
fpga_main_rv32i.elf:     file format elf32-littleriscv


Disassembly of section .vectors:

00000000 <reset_handler-0x18>:
   0:	00000013          	nop
   4:	00000013          	nop
   8:	00000013          	nop
   c:	00000013          	nop
  10:	00000013          	nop
  14:	0040006f          	j	18 <reset_handler>

00000018 <reset_handler>:
  18:	00000093          	li	ra,0
  1c:	00008113          	mv	sp,ra
  20:	00008193          	mv	gp,ra
  24:	00008213          	mv	tp,ra
  28:	00008293          	mv	t0,ra
  2c:	00008313          	mv	t1,ra
  30:	00008393          	mv	t2,ra
  34:	00008413          	mv	s0,ra
  38:	00008493          	mv	s1,ra
  3c:	00008513          	mv	a0,ra
  40:	00008593          	mv	a1,ra
  44:	00008613          	mv	a2,ra
  48:	00008693          	mv	a3,ra
  4c:	00008713          	mv	a4,ra
  50:	00008793          	mv	a5,ra
  54:	00008813          	mv	a6,ra
  58:	00008893          	mv	a7,ra
  5c:	00008913          	mv	s2,ra
  60:	00008993          	mv	s3,ra
  64:	00008a13          	mv	s4,ra
  68:	00008a93          	mv	s5,ra
  6c:	00008b13          	mv	s6,ra
  70:	00008b93          	mv	s7,ra
  74:	00008c13          	mv	s8,ra
  78:	00008c93          	mv	s9,ra
  7c:	00008d13          	mv	s10,ra
  80:	00008d93          	mv	s11,ra
  84:	00008e13          	mv	t3,ra
  88:	00008e93          	mv	t4,ra
  8c:	00008f13          	mv	t5,ra
  90:	00008f93          	mv	t6,ra
  94:	00c002b7          	lui	t0,0xc00
  98:	00c28293          	addi	t0,t0,12 # c0000c <_stack_start+0x7fec0c>
  9c:	0002a103          	lw	sp,0(t0)
  a0:	3bc010ef          	jal	ra,145c <main>
  a4:	00100073          	ebreak

Disassembly of section .text:

000000a8 <draw_char>:
      a8:	fd010113          	addi	sp,sp,-48
      ac:	02812623          	sw	s0,44(sp)
      b0:	03010413          	addi	s0,sp,48
      b4:	00050793          	mv	a5,a0
      b8:	fcb42c23          	sw	a1,-40(s0)
      bc:	fcc42a23          	sw	a2,-44(s0)
      c0:	fcf40fa3          	sb	a5,-33(s0)
      c4:	fd842703          	lw	a4,-40(s0)
      c8:	00070793          	mv	a5,a4
      cc:	00279793          	slli	a5,a5,0x2
      d0:	00e787b3          	add	a5,a5,a4
      d4:	00679793          	slli	a5,a5,0x6
      d8:	fef42623          	sw	a5,-20(s0)
      dc:	fd442783          	lw	a5,-44(s0)
      e0:	00279793          	slli	a5,a5,0x2
      e4:	fef42423          	sw	a5,-24(s0)
      e8:	fe842703          	lw	a4,-24(s0)
      ec:	fec42783          	lw	a5,-20(s0)
      f0:	00f70733          	add	a4,a4,a5
      f4:	034007b7          	lui	a5,0x3400
      f8:	00f707b3          	add	a5,a4,a5
      fc:	fef42223          	sw	a5,-28(s0)
     100:	fe842703          	lw	a4,-24(s0)
     104:	fec42783          	lw	a5,-20(s0)
     108:	00f70733          	add	a4,a4,a5
     10c:	034007b7          	lui	a5,0x3400
     110:	14078793          	addi	a5,a5,320 # 3400140 <_stack+0x2ffed40>
     114:	00f707b3          	add	a5,a4,a5
     118:	fef42023          	sw	a5,-32(s0)
     11c:	fdf44783          	lbu	a5,-33(s0)
     120:	00400737          	lui	a4,0x400
     124:	54870713          	addi	a4,a4,1352 # 400548 <ASCII_TOP>
     128:	00279793          	slli	a5,a5,0x2
     12c:	00f707b3          	add	a5,a4,a5
     130:	0007a783          	lw	a5,0(a5)
     134:	00078713          	mv	a4,a5
     138:	fe442783          	lw	a5,-28(s0)
     13c:	00e7a023          	sw	a4,0(a5)
     140:	fdf44783          	lbu	a5,-33(s0)
     144:	00400737          	lui	a4,0x400
     148:	6cc70713          	addi	a4,a4,1740 # 4006cc <ASCII_BOTTOM>
     14c:	00279793          	slli	a5,a5,0x2
     150:	00f707b3          	add	a5,a4,a5
     154:	0007a783          	lw	a5,0(a5)
     158:	00078713          	mv	a4,a5
     15c:	fe042783          	lw	a5,-32(s0)
     160:	00e7a023          	sw	a4,0(a5)
     164:	00000013          	nop
     168:	02c12403          	lw	s0,44(sp)
     16c:	03010113          	addi	sp,sp,48
     170:	00008067          	ret

00000174 <rvc_printf>:
     174:	fd010113          	addi	sp,sp,-48
     178:	02112623          	sw	ra,44(sp)
     17c:	02812423          	sw	s0,40(sp)
     180:	03010413          	addi	s0,sp,48
     184:	fca42e23          	sw	a0,-36(s0)
     188:	fe042623          	sw	zero,-20(s0)
     18c:	fe042423          	sw	zero,-24(s0)
     190:	fe042223          	sw	zero,-28(s0)
     194:	00c007b7          	lui	a5,0xc00
     198:	22078793          	addi	a5,a5,544 # c00220 <_stack+0x7fee20>
     19c:	0007a783          	lw	a5,0(a5)
     1a0:	fef42223          	sw	a5,-28(s0)
     1a4:	00c007b7          	lui	a5,0xc00
     1a8:	23478793          	addi	a5,a5,564 # c00234 <_stack+0x7fee34>
     1ac:	0007a783          	lw	a5,0(a5)
     1b0:	fef42423          	sw	a5,-24(s0)
     1b4:	0b80006f          	j	26c <rvc_printf+0xf8>
     1b8:	fec42783          	lw	a5,-20(s0)
     1bc:	fdc42703          	lw	a4,-36(s0)
     1c0:	00f707b3          	add	a5,a4,a5
     1c4:	0007c703          	lbu	a4,0(a5)
     1c8:	00a00793          	li	a5,10
     1cc:	02f71a63          	bne	a4,a5,200 <rvc_printf+0x8c>
     1d0:	fe042223          	sw	zero,-28(s0)
     1d4:	fe842783          	lw	a5,-24(s0)
     1d8:	00278793          	addi	a5,a5,2
     1dc:	fef42423          	sw	a5,-24(s0)
     1e0:	fe842703          	lw	a4,-24(s0)
     1e4:	07800793          	li	a5,120
     1e8:	00f71463          	bne	a4,a5,1f0 <rvc_printf+0x7c>
     1ec:	fe042423          	sw	zero,-24(s0)
     1f0:	fec42783          	lw	a5,-20(s0)
     1f4:	00178793          	addi	a5,a5,1
     1f8:	fef42623          	sw	a5,-20(s0)
     1fc:	0700006f          	j	26c <rvc_printf+0xf8>
     200:	fec42783          	lw	a5,-20(s0)
     204:	fdc42703          	lw	a4,-36(s0)
     208:	00f707b3          	add	a5,a4,a5
     20c:	0007c783          	lbu	a5,0(a5)
     210:	fe842703          	lw	a4,-24(s0)
     214:	fe442683          	lw	a3,-28(s0)
     218:	00068613          	mv	a2,a3
     21c:	00070593          	mv	a1,a4
     220:	00078513          	mv	a0,a5
     224:	e85ff0ef          	jal	ra,a8 <draw_char>
     228:	fe442783          	lw	a5,-28(s0)
     22c:	00178793          	addi	a5,a5,1
     230:	fef42223          	sw	a5,-28(s0)
     234:	fe442703          	lw	a4,-28(s0)
     238:	05000793          	li	a5,80
     23c:	02f71263          	bne	a4,a5,260 <rvc_printf+0xec>
     240:	fe042223          	sw	zero,-28(s0)
     244:	fe842783          	lw	a5,-24(s0)
     248:	00278793          	addi	a5,a5,2
     24c:	fef42423          	sw	a5,-24(s0)
     250:	fe842703          	lw	a4,-24(s0)
     254:	07800793          	li	a5,120
     258:	00f71463          	bne	a4,a5,260 <rvc_printf+0xec>
     25c:	fe042423          	sw	zero,-24(s0)
     260:	fec42783          	lw	a5,-20(s0)
     264:	00178793          	addi	a5,a5,1
     268:	fef42623          	sw	a5,-20(s0)
     26c:	fec42783          	lw	a5,-20(s0)
     270:	fdc42703          	lw	a4,-36(s0)
     274:	00f707b3          	add	a5,a4,a5
     278:	0007c783          	lbu	a5,0(a5)
     27c:	f2079ee3          	bnez	a5,1b8 <rvc_printf+0x44>
     280:	00c007b7          	lui	a5,0xc00
     284:	22078793          	addi	a5,a5,544 # c00220 <_stack+0x7fee20>
     288:	fe442703          	lw	a4,-28(s0)
     28c:	00e7a023          	sw	a4,0(a5)
     290:	00c007b7          	lui	a5,0xc00
     294:	23478793          	addi	a5,a5,564 # c00234 <_stack+0x7fee34>
     298:	fe842703          	lw	a4,-24(s0)
     29c:	00e7a023          	sw	a4,0(a5)
     2a0:	00000013          	nop
     2a4:	02c12083          	lw	ra,44(sp)
     2a8:	02812403          	lw	s0,40(sp)
     2ac:	03010113          	addi	sp,sp,48
     2b0:	00008067          	ret

000002b4 <draw_symbol>:
     2b4:	fd010113          	addi	sp,sp,-48
     2b8:	02812623          	sw	s0,44(sp)
     2bc:	03010413          	addi	s0,sp,48
     2c0:	fca42e23          	sw	a0,-36(s0)
     2c4:	fcb42c23          	sw	a1,-40(s0)
     2c8:	fcc42a23          	sw	a2,-44(s0)
     2cc:	fd842703          	lw	a4,-40(s0)
     2d0:	00070793          	mv	a5,a4
     2d4:	00279793          	slli	a5,a5,0x2
     2d8:	00e787b3          	add	a5,a5,a4
     2dc:	00679793          	slli	a5,a5,0x6
     2e0:	fef42623          	sw	a5,-20(s0)
     2e4:	fd442783          	lw	a5,-44(s0)
     2e8:	00279793          	slli	a5,a5,0x2
     2ec:	fef42423          	sw	a5,-24(s0)
     2f0:	fe842703          	lw	a4,-24(s0)
     2f4:	fec42783          	lw	a5,-20(s0)
     2f8:	00f70733          	add	a4,a4,a5
     2fc:	034007b7          	lui	a5,0x3400
     300:	00f707b3          	add	a5,a4,a5
     304:	fef42223          	sw	a5,-28(s0)
     308:	fe842703          	lw	a4,-24(s0)
     30c:	fec42783          	lw	a5,-20(s0)
     310:	00f70733          	add	a4,a4,a5
     314:	034007b7          	lui	a5,0x3400
     318:	14078793          	addi	a5,a5,320 # 3400140 <_stack+0x2ffed40>
     31c:	00f707b3          	add	a5,a4,a5
     320:	fef42023          	sw	a5,-32(s0)
     324:	004017b7          	lui	a5,0x401
     328:	85078713          	addi	a4,a5,-1968 # 400850 <ANIME_TOP>
     32c:	fdc42783          	lw	a5,-36(s0)
     330:	00279793          	slli	a5,a5,0x2
     334:	00f707b3          	add	a5,a4,a5
     338:	0007a783          	lw	a5,0(a5)
     33c:	00078713          	mv	a4,a5
     340:	fe442783          	lw	a5,-28(s0)
     344:	00e7a023          	sw	a4,0(a5)
     348:	004017b7          	lui	a5,0x401
     34c:	86878713          	addi	a4,a5,-1944 # 400868 <ANIME_BOTTOM>
     350:	fdc42783          	lw	a5,-36(s0)
     354:	00279793          	slli	a5,a5,0x2
     358:	00f707b3          	add	a5,a4,a5
     35c:	0007a783          	lw	a5,0(a5)
     360:	00078713          	mv	a4,a5
     364:	fe042783          	lw	a5,-32(s0)
     368:	00e7a023          	sw	a4,0(a5)
     36c:	00000013          	nop
     370:	02c12403          	lw	s0,44(sp)
     374:	03010113          	addi	sp,sp,48
     378:	00008067          	ret

0000037c <set_cursor>:
     37c:	fe010113          	addi	sp,sp,-32
     380:	00812e23          	sw	s0,28(sp)
     384:	02010413          	addi	s0,sp,32
     388:	fea42623          	sw	a0,-20(s0)
     38c:	feb42423          	sw	a1,-24(s0)
     390:	00c007b7          	lui	a5,0xc00
     394:	22078793          	addi	a5,a5,544 # c00220 <_stack+0x7fee20>
     398:	fe842703          	lw	a4,-24(s0)
     39c:	00e7a023          	sw	a4,0(a5)
     3a0:	00c007b7          	lui	a5,0xc00
     3a4:	23478793          	addi	a5,a5,564 # c00234 <_stack+0x7fee34>
     3a8:	fec42703          	lw	a4,-20(s0)
     3ac:	00e7a023          	sw	a4,0(a5)
     3b0:	00000013          	nop
     3b4:	01c12403          	lw	s0,28(sp)
     3b8:	02010113          	addi	sp,sp,32
     3bc:	00008067          	ret

000003c0 <clear_screen>:
     3c0:	fe010113          	addi	sp,sp,-32
     3c4:	00812e23          	sw	s0,28(sp)
     3c8:	02010413          	addi	s0,sp,32
     3cc:	fe042623          	sw	zero,-20(s0)
     3d0:	034007b7          	lui	a5,0x3400
     3d4:	fef42423          	sw	a5,-24(s0)
     3d8:	fe042623          	sw	zero,-20(s0)
     3dc:	0240006f          	j	400 <_min_stack>
     3e0:	fec42783          	lw	a5,-20(s0)
     3e4:	00279793          	slli	a5,a5,0x2
     3e8:	fe842703          	lw	a4,-24(s0)
     3ec:	00f707b3          	add	a5,a4,a5
     3f0:	0007a023          	sw	zero,0(a5) # 3400000 <_stack+0x2ffec00>
     3f4:	fec42783          	lw	a5,-20(s0)
     3f8:	00178793          	addi	a5,a5,1
     3fc:	fef42623          	sw	a5,-20(s0)
     400:	fec42703          	lw	a4,-20(s0)
     404:	000027b7          	lui	a5,0x2
     408:	57f78793          	addi	a5,a5,1407 # 257f <_endtext+0x5af>
     40c:	fce7dae3          	bge	a5,a4,3e0 <clear_screen+0x20>
     410:	00000013          	nop
     414:	00000013          	nop
     418:	01c12403          	lw	s0,28(sp)
     41c:	02010113          	addi	sp,sp,32
     420:	00008067          	ret

00000424 <delay>:
     424:	fe010113          	addi	sp,sp,-32
     428:	00812e23          	sw	s0,28(sp)
     42c:	02010413          	addi	s0,sp,32
     430:	fe042623          	sw	zero,-20(s0)
     434:	0100006f          	j	444 <delay+0x20>
     438:	fec42783          	lw	a5,-20(s0)
     43c:	00178793          	addi	a5,a5,1
     440:	fef42623          	sw	a5,-20(s0)
     444:	fec42703          	lw	a4,-20(s0)
     448:	000147b7          	lui	a5,0x14
     44c:	87f78793          	addi	a5,a5,-1921 # 1387f <_endtext+0x118af>
     450:	fee7d4e3          	bge	a5,a4,438 <delay+0x14>
     454:	00000013          	nop
     458:	00000013          	nop
     45c:	01c12403          	lw	s0,28(sp)
     460:	02010113          	addi	sp,sp,32
     464:	00008067          	ret

00000468 <draw_stick>:
     468:	fd010113          	addi	sp,sp,-48
     46c:	02812623          	sw	s0,44(sp)
     470:	03010413          	addi	s0,sp,48
     474:	fca42e23          	sw	a0,-36(s0)
     478:	fcb42c23          	sw	a1,-40(s0)
     47c:	fcc42a23          	sw	a2,-44(s0)
     480:	fcd42823          	sw	a3,-48(s0)
     484:	fd842783          	lw	a5,-40(s0)
     488:	14178793          	addi	a5,a5,321
     48c:	00179793          	slli	a5,a5,0x1
     490:	fd442703          	lw	a4,-44(s0)
     494:	00f707b3          	add	a5,a4,a5
     498:	fef42223          	sw	a5,-28(s0)
     49c:	fdc42703          	lw	a4,-36(s0)
     4a0:	00070793          	mv	a5,a4
     4a4:	00279793          	slli	a5,a5,0x2
     4a8:	00e787b3          	add	a5,a5,a4
     4ac:	00479793          	slli	a5,a5,0x4
     4b0:	00178793          	addi	a5,a5,1
     4b4:	fef42023          	sw	a5,-32(s0)
     4b8:	fe042623          	sw	zero,-20(s0)
     4bc:	0340006f          	j	4f0 <draw_stick+0x88>
     4c0:	fe442703          	lw	a4,-28(s0)
     4c4:	fec42783          	lw	a5,-20(s0)
     4c8:	40f70733          	sub	a4,a4,a5
     4cc:	fd042783          	lw	a5,-48(s0)
     4d0:	00f707b3          	add	a5,a4,a5
     4d4:	00279713          	slli	a4,a5,0x2
     4d8:	034007b7          	lui	a5,0x3400
     4dc:	00f707b3          	add	a5,a4,a5
     4e0:	0007a023          	sw	zero,0(a5) # 3400000 <_stack+0x2ffec00>
     4e4:	fec42783          	lw	a5,-20(s0)
     4e8:	05078793          	addi	a5,a5,80
     4ec:	fef42623          	sw	a5,-20(s0)
     4f0:	fec42703          	lw	a4,-20(s0)
     4f4:	64000793          	li	a5,1600
     4f8:	fce7d4e3          	bge	a5,a4,4c0 <draw_stick+0x58>
     4fc:	fe042423          	sw	zero,-24(s0)
     500:	0380006f          	j	538 <draw_stick+0xd0>
     504:	fe442703          	lw	a4,-28(s0)
     508:	fe842783          	lw	a5,-24(s0)
     50c:	40f70733          	sub	a4,a4,a5
     510:	fd042783          	lw	a5,-48(s0)
     514:	00f707b3          	add	a5,a4,a5
     518:	00279713          	slli	a4,a5,0x2
     51c:	034007b7          	lui	a5,0x3400
     520:	00f707b3          	add	a5,a4,a5
     524:	fff00713          	li	a4,-1
     528:	00e7a023          	sw	a4,0(a5) # 3400000 <_stack+0x2ffec00>
     52c:	fe842783          	lw	a5,-24(s0)
     530:	05078793          	addi	a5,a5,80
     534:	fef42423          	sw	a5,-24(s0)
     538:	fe842703          	lw	a4,-24(s0)
     53c:	fe042783          	lw	a5,-32(s0)
     540:	fcf742e3          	blt	a4,a5,504 <draw_stick+0x9c>
     544:	00000013          	nop
     548:	00000013          	nop
     54c:	02c12403          	lw	s0,44(sp)
     550:	03010113          	addi	sp,sp,48
     554:	00008067          	ret

00000558 <swap>:
     558:	fd010113          	addi	sp,sp,-48
     55c:	02812623          	sw	s0,44(sp)
     560:	03010413          	addi	s0,sp,48
     564:	fca42e23          	sw	a0,-36(s0)
     568:	fcb42c23          	sw	a1,-40(s0)
     56c:	fdc42783          	lw	a5,-36(s0)
     570:	0007a783          	lw	a5,0(a5)
     574:	fef42623          	sw	a5,-20(s0)
     578:	fd842783          	lw	a5,-40(s0)
     57c:	0007a703          	lw	a4,0(a5)
     580:	fdc42783          	lw	a5,-36(s0)
     584:	00e7a023          	sw	a4,0(a5)
     588:	fd842783          	lw	a5,-40(s0)
     58c:	fec42703          	lw	a4,-20(s0)
     590:	00e7a023          	sw	a4,0(a5)
     594:	00000013          	nop
     598:	02c12403          	lw	s0,44(sp)
     59c:	03010113          	addi	sp,sp,48
     5a0:	00008067          	ret

000005a4 <bubbleSort>:
     5a4:	fd010113          	addi	sp,sp,-48
     5a8:	02112623          	sw	ra,44(sp)
     5ac:	02812423          	sw	s0,40(sp)
     5b0:	03010413          	addi	s0,sp,48
     5b4:	fca42e23          	sw	a0,-36(s0)
     5b8:	fcb42c23          	sw	a1,-40(s0)
     5bc:	fcc42a23          	sw	a2,-44(s0)
     5c0:	fcd42823          	sw	a3,-48(s0)
     5c4:	fe042623          	sw	zero,-20(s0)
     5c8:	0fc0006f          	j	6c4 <bubbleSort+0x120>
     5cc:	fe042423          	sw	zero,-24(s0)
     5d0:	0d00006f          	j	6a0 <bubbleSort+0xfc>
     5d4:	fe842783          	lw	a5,-24(s0)
     5d8:	00279793          	slli	a5,a5,0x2
     5dc:	fdc42703          	lw	a4,-36(s0)
     5e0:	00f707b3          	add	a5,a4,a5
     5e4:	0007a703          	lw	a4,0(a5)
     5e8:	fe842783          	lw	a5,-24(s0)
     5ec:	00178793          	addi	a5,a5,1
     5f0:	00279793          	slli	a5,a5,0x2
     5f4:	fdc42683          	lw	a3,-36(s0)
     5f8:	00f687b3          	add	a5,a3,a5
     5fc:	0007a783          	lw	a5,0(a5)
     600:	08e7da63          	bge	a5,a4,694 <bubbleSort+0xf0>
     604:	fe842783          	lw	a5,-24(s0)
     608:	00279793          	slli	a5,a5,0x2
     60c:	fdc42703          	lw	a4,-36(s0)
     610:	00f706b3          	add	a3,a4,a5
     614:	fe842783          	lw	a5,-24(s0)
     618:	00178793          	addi	a5,a5,1
     61c:	00279793          	slli	a5,a5,0x2
     620:	fdc42703          	lw	a4,-36(s0)
     624:	00f707b3          	add	a5,a4,a5
     628:	00078593          	mv	a1,a5
     62c:	00068513          	mv	a0,a3
     630:	f29ff0ef          	jal	ra,558 <swap>
     634:	fe842783          	lw	a5,-24(s0)
     638:	00279793          	slli	a5,a5,0x2
     63c:	fdc42703          	lw	a4,-36(s0)
     640:	00f707b3          	add	a5,a4,a5
     644:	0007a783          	lw	a5,0(a5)
     648:	fd042683          	lw	a3,-48(s0)
     64c:	fd442603          	lw	a2,-44(s0)
     650:	fe842583          	lw	a1,-24(s0)
     654:	00078513          	mv	a0,a5
     658:	e11ff0ef          	jal	ra,468 <draw_stick>
     65c:	fe842783          	lw	a5,-24(s0)
     660:	00178793          	addi	a5,a5,1
     664:	00279793          	slli	a5,a5,0x2
     668:	fdc42703          	lw	a4,-36(s0)
     66c:	00f707b3          	add	a5,a4,a5
     670:	0007a703          	lw	a4,0(a5)
     674:	fe842783          	lw	a5,-24(s0)
     678:	00178793          	addi	a5,a5,1
     67c:	fd042683          	lw	a3,-48(s0)
     680:	fd442603          	lw	a2,-44(s0)
     684:	00078593          	mv	a1,a5
     688:	00070513          	mv	a0,a4
     68c:	dddff0ef          	jal	ra,468 <draw_stick>
     690:	d95ff0ef          	jal	ra,424 <delay>
     694:	fe842783          	lw	a5,-24(s0)
     698:	00178793          	addi	a5,a5,1
     69c:	fef42423          	sw	a5,-24(s0)
     6a0:	fd842703          	lw	a4,-40(s0)
     6a4:	fec42783          	lw	a5,-20(s0)
     6a8:	40f707b3          	sub	a5,a4,a5
     6ac:	fff78793          	addi	a5,a5,-1
     6b0:	fe842703          	lw	a4,-24(s0)
     6b4:	f2f740e3          	blt	a4,a5,5d4 <bubbleSort+0x30>
     6b8:	fec42783          	lw	a5,-20(s0)
     6bc:	00178793          	addi	a5,a5,1
     6c0:	fef42623          	sw	a5,-20(s0)
     6c4:	fd842783          	lw	a5,-40(s0)
     6c8:	fff78793          	addi	a5,a5,-1
     6cc:	fec42703          	lw	a4,-20(s0)
     6d0:	eef74ee3          	blt	a4,a5,5cc <bubbleSort+0x28>
     6d4:	00000013          	nop
     6d8:	00000013          	nop
     6dc:	02c12083          	lw	ra,44(sp)
     6e0:	02812403          	lw	s0,40(sp)
     6e4:	03010113          	addi	sp,sp,48
     6e8:	00008067          	ret

000006ec <insertionSort>:
     6ec:	fd010113          	addi	sp,sp,-48
     6f0:	02112623          	sw	ra,44(sp)
     6f4:	02812423          	sw	s0,40(sp)
     6f8:	03010413          	addi	s0,sp,48
     6fc:	fca42e23          	sw	a0,-36(s0)
     700:	fcb42c23          	sw	a1,-40(s0)
     704:	fcc42a23          	sw	a2,-44(s0)
     708:	fcd42823          	sw	a3,-48(s0)
     70c:	00100793          	li	a5,1
     710:	fef42623          	sw	a5,-20(s0)
     714:	1200006f          	j	834 <insertionSort+0x148>
     718:	fec42783          	lw	a5,-20(s0)
     71c:	00279793          	slli	a5,a5,0x2
     720:	fdc42703          	lw	a4,-36(s0)
     724:	00f707b3          	add	a5,a4,a5
     728:	0007a783          	lw	a5,0(a5)
     72c:	fef42223          	sw	a5,-28(s0)
     730:	fec42783          	lw	a5,-20(s0)
     734:	fff78793          	addi	a5,a5,-1
     738:	fef42423          	sw	a5,-24(s0)
     73c:	0740006f          	j	7b0 <insertionSort+0xc4>
     740:	fe842783          	lw	a5,-24(s0)
     744:	00279793          	slli	a5,a5,0x2
     748:	fdc42703          	lw	a4,-36(s0)
     74c:	00f70733          	add	a4,a4,a5
     750:	fe842783          	lw	a5,-24(s0)
     754:	00178793          	addi	a5,a5,1
     758:	00279793          	slli	a5,a5,0x2
     75c:	fdc42683          	lw	a3,-36(s0)
     760:	00f687b3          	add	a5,a3,a5
     764:	00072703          	lw	a4,0(a4)
     768:	00e7a023          	sw	a4,0(a5)
     76c:	fe842783          	lw	a5,-24(s0)
     770:	00178793          	addi	a5,a5,1
     774:	00279793          	slli	a5,a5,0x2
     778:	fdc42703          	lw	a4,-36(s0)
     77c:	00f707b3          	add	a5,a4,a5
     780:	0007a703          	lw	a4,0(a5)
     784:	fe842783          	lw	a5,-24(s0)
     788:	00178793          	addi	a5,a5,1
     78c:	fd042683          	lw	a3,-48(s0)
     790:	fd442603          	lw	a2,-44(s0)
     794:	00078593          	mv	a1,a5
     798:	00070513          	mv	a0,a4
     79c:	ccdff0ef          	jal	ra,468 <draw_stick>
     7a0:	c85ff0ef          	jal	ra,424 <delay>
     7a4:	fe842783          	lw	a5,-24(s0)
     7a8:	fff78793          	addi	a5,a5,-1
     7ac:	fef42423          	sw	a5,-24(s0)
     7b0:	fe842783          	lw	a5,-24(s0)
     7b4:	0207c063          	bltz	a5,7d4 <insertionSort+0xe8>
     7b8:	fe842783          	lw	a5,-24(s0)
     7bc:	00279793          	slli	a5,a5,0x2
     7c0:	fdc42703          	lw	a4,-36(s0)
     7c4:	00f707b3          	add	a5,a4,a5
     7c8:	0007a783          	lw	a5,0(a5)
     7cc:	fe442703          	lw	a4,-28(s0)
     7d0:	f6f748e3          	blt	a4,a5,740 <insertionSort+0x54>
     7d4:	fe842783          	lw	a5,-24(s0)
     7d8:	00178793          	addi	a5,a5,1
     7dc:	00279793          	slli	a5,a5,0x2
     7e0:	fdc42703          	lw	a4,-36(s0)
     7e4:	00f707b3          	add	a5,a4,a5
     7e8:	fe442703          	lw	a4,-28(s0)
     7ec:	00e7a023          	sw	a4,0(a5)
     7f0:	fe842783          	lw	a5,-24(s0)
     7f4:	00178793          	addi	a5,a5,1
     7f8:	00279793          	slli	a5,a5,0x2
     7fc:	fdc42703          	lw	a4,-36(s0)
     800:	00f707b3          	add	a5,a4,a5
     804:	0007a703          	lw	a4,0(a5)
     808:	fe842783          	lw	a5,-24(s0)
     80c:	00178793          	addi	a5,a5,1
     810:	fd042683          	lw	a3,-48(s0)
     814:	fd442603          	lw	a2,-44(s0)
     818:	00078593          	mv	a1,a5
     81c:	00070513          	mv	a0,a4
     820:	c49ff0ef          	jal	ra,468 <draw_stick>
     824:	c01ff0ef          	jal	ra,424 <delay>
     828:	fec42783          	lw	a5,-20(s0)
     82c:	00178793          	addi	a5,a5,1
     830:	fef42623          	sw	a5,-20(s0)
     834:	fec42703          	lw	a4,-20(s0)
     838:	fd842783          	lw	a5,-40(s0)
     83c:	ecf74ee3          	blt	a4,a5,718 <insertionSort+0x2c>
     840:	00000013          	nop
     844:	00000013          	nop
     848:	02c12083          	lw	ra,44(sp)
     84c:	02812403          	lw	s0,40(sp)
     850:	03010113          	addi	sp,sp,48
     854:	00008067          	ret

00000858 <show_menu>:
     858:	ff010113          	addi	sp,sp,-16
     85c:	00112623          	sw	ra,12(sp)
     860:	00812423          	sw	s0,8(sp)
     864:	01010413          	addi	s0,sp,16
     868:	00100593          	li	a1,1
     86c:	00100513          	li	a0,1
     870:	b0dff0ef          	jal	ra,37c <set_cursor>
     874:	004007b7          	lui	a5,0x400
     878:	00078513          	mv	a0,a5
     87c:	8f9ff0ef          	jal	ra,174 <rvc_printf>
     880:	00100593          	li	a1,1
     884:	00a00513          	li	a0,10
     888:	af5ff0ef          	jal	ra,37c <set_cursor>
     88c:	004007b7          	lui	a5,0x400
     890:	01c78513          	addi	a0,a5,28 # 40001c <_endtext+0x3fe04c>
     894:	8e1ff0ef          	jal	ra,174 <rvc_printf>
     898:	01400593          	li	a1,20
     89c:	01400513          	li	a0,20
     8a0:	addff0ef          	jal	ra,37c <set_cursor>
     8a4:	004007b7          	lui	a5,0x400
     8a8:	03c78513          	addi	a0,a5,60 # 40003c <_endtext+0x3fe06c>
     8ac:	8c9ff0ef          	jal	ra,174 <rvc_printf>
     8b0:	01400593          	li	a1,20
     8b4:	02800513          	li	a0,40
     8b8:	ac5ff0ef          	jal	ra,37c <set_cursor>
     8bc:	004007b7          	lui	a5,0x400
     8c0:	05c78513          	addi	a0,a5,92 # 40005c <_endtext+0x3fe08c>
     8c4:	8b1ff0ef          	jal	ra,174 <rvc_printf>
     8c8:	01400593          	li	a1,20
     8cc:	03200513          	li	a0,50
     8d0:	aadff0ef          	jal	ra,37c <set_cursor>
     8d4:	004007b7          	lui	a5,0x400
     8d8:	07878513          	addi	a0,a5,120 # 400078 <_endtext+0x3fe0a8>
     8dc:	899ff0ef          	jal	ra,174 <rvc_printf>
     8e0:	01400593          	li	a1,20
     8e4:	03c00513          	li	a0,60
     8e8:	a95ff0ef          	jal	ra,37c <set_cursor>
     8ec:	004007b7          	lui	a5,0x400
     8f0:	08878513          	addi	a0,a5,136 # 400088 <_endtext+0x3fe0b8>
     8f4:	881ff0ef          	jal	ra,174 <rvc_printf>
     8f8:	01400593          	li	a1,20
     8fc:	04600513          	li	a0,70
     900:	a7dff0ef          	jal	ra,37c <set_cursor>
     904:	004007b7          	lui	a5,0x400
     908:	0a078513          	addi	a0,a5,160 # 4000a0 <_endtext+0x3fe0d0>
     90c:	869ff0ef          	jal	ra,174 <rvc_printf>
     910:	00000013          	nop
     914:	00c12083          	lw	ra,12(sp)
     918:	00812403          	lw	s0,8(sp)
     91c:	01010113          	addi	sp,sp,16
     920:	00008067          	ret

00000924 <led_blinky>:
     924:	fd010113          	addi	sp,sp,-48
     928:	02112623          	sw	ra,44(sp)
     92c:	02812423          	sw	s0,40(sp)
     930:	03010413          	addi	s0,sp,48
     934:	00100793          	li	a5,1
     938:	fef42623          	sw	a5,-20(s0)
     93c:	3ff00793          	li	a5,1023
     940:	fef42423          	sw	a5,-24(s0)
     944:	fe042223          	sw	zero,-28(s0)
     948:	00100793          	li	a5,1
     94c:	fef42023          	sw	a5,-32(s0)
     950:	20000793          	li	a5,512
     954:	fcf42e23          	sw	a5,-36(s0)
     958:	00a00593          	li	a1,10
     95c:	01400513          	li	a0,20
     960:	a1dff0ef          	jal	ra,37c <set_cursor>
     964:	004007b7          	lui	a5,0x400
     968:	0b478513          	addi	a0,a5,180 # 4000b4 <_endtext+0x3fe0e4>
     96c:	809ff0ef          	jal	ra,174 <rvc_printf>
     970:	00f00593          	li	a1,15
     974:	01e00513          	li	a0,30
     978:	a05ff0ef          	jal	ra,37c <set_cursor>
     97c:	004007b7          	lui	a5,0x400
     980:	0d078513          	addi	a0,a5,208 # 4000d0 <_endtext+0x3fe100>
     984:	ff0ff0ef          	jal	ra,174 <rvc_printf>
     988:	01400593          	li	a1,20
     98c:	02800513          	li	a0,40
     990:	9edff0ef          	jal	ra,37c <set_cursor>
     994:	004007b7          	lui	a5,0x400
     998:	10478513          	addi	a0,a5,260 # 400104 <_endtext+0x3fe134>
     99c:	fd8ff0ef          	jal	ra,174 <rvc_printf>
     9a0:	01400593          	li	a1,20
     9a4:	02d00513          	li	a0,45
     9a8:	9d5ff0ef          	jal	ra,37c <set_cursor>
     9ac:	004007b7          	lui	a5,0x400
     9b0:	11c78513          	addi	a0,a5,284 # 40011c <_endtext+0x3fe14c>
     9b4:	fc0ff0ef          	jal	ra,174 <rvc_printf>
     9b8:	01400593          	li	a1,20
     9bc:	03200513          	li	a0,50
     9c0:	9bdff0ef          	jal	ra,37c <set_cursor>
     9c4:	004007b7          	lui	a5,0x400
     9c8:	13478513          	addi	a0,a5,308 # 400134 <_endtext+0x3fe164>
     9cc:	fa8ff0ef          	jal	ra,174 <rvc_printf>
     9d0:	01400593          	li	a1,20
     9d4:	03700513          	li	a0,55
     9d8:	9a5ff0ef          	jal	ra,37c <set_cursor>
     9dc:	004007b7          	lui	a5,0x400
     9e0:	15078513          	addi	a0,a5,336 # 400150 <_endtext+0x3fe180>
     9e4:	f90ff0ef          	jal	ra,174 <rvc_printf>
     9e8:	01400593          	li	a1,20
     9ec:	03c00513          	li	a0,60
     9f0:	98dff0ef          	jal	ra,37c <set_cursor>
     9f4:	004007b7          	lui	a5,0x400
     9f8:	17078513          	addi	a0,a5,368 # 400170 <_endtext+0x3fe1a0>
     9fc:	f78ff0ef          	jal	ra,174 <rvc_printf>
     a00:	03c027b7          	lui	a5,0x3c02
     a04:	02478793          	addi	a5,a5,36 # 3c02024 <_stack+0x3800c24>
     a08:	0007a783          	lw	a5,0(a5)
     a0c:	04079c63          	bnez	a5,a64 <led_blinky+0x140>
     a10:	00100793          	li	a5,1
     a14:	fef42623          	sw	a5,-20(s0)
     a18:	3ff00793          	li	a5,1023
     a1c:	fef42423          	sw	a5,-24(s0)
     a20:	00100793          	li	a5,1
     a24:	fef42023          	sw	a5,-32(s0)
     a28:	20000793          	li	a5,512
     a2c:	fcf42e23          	sw	a5,-36(s0)
     a30:	9f5ff0ef          	jal	ra,424 <delay>
     a34:	03c027b7          	lui	a5,0x3c02
     a38:	01878793          	addi	a5,a5,24 # 3c02018 <_stack+0x3800c18>
     a3c:	fe442703          	lw	a4,-28(s0)
     a40:	00e7a023          	sw	a4,0(a5)
     a44:	fe442703          	lw	a4,-28(s0)
     a48:	3ff00793          	li	a5,1023
     a4c:	00f71663          	bne	a4,a5,a58 <led_blinky+0x134>
     a50:	fe042223          	sw	zero,-28(s0)
     a54:	fadff06f          	j	a00 <led_blinky+0xdc>
     a58:	3ff00793          	li	a5,1023
     a5c:	fef42223          	sw	a5,-28(s0)
     a60:	fa1ff06f          	j	a00 <led_blinky+0xdc>
     a64:	03c027b7          	lui	a5,0x3c02
     a68:	02478793          	addi	a5,a5,36 # 3c02024 <_stack+0x3800c24>
     a6c:	0007a703          	lw	a4,0(a5)
     a70:	00100793          	li	a5,1
     a74:	04f71c63          	bne	a4,a5,acc <led_blinky+0x1a8>
     a78:	3ff00793          	li	a5,1023
     a7c:	fef42423          	sw	a5,-24(s0)
     a80:	fe042223          	sw	zero,-28(s0)
     a84:	00100793          	li	a5,1
     a88:	fef42023          	sw	a5,-32(s0)
     a8c:	20000793          	li	a5,512
     a90:	fcf42e23          	sw	a5,-36(s0)
     a94:	991ff0ef          	jal	ra,424 <delay>
     a98:	03c027b7          	lui	a5,0x3c02
     a9c:	01878793          	addi	a5,a5,24 # 3c02018 <_stack+0x3800c18>
     aa0:	fec42703          	lw	a4,-20(s0)
     aa4:	00e7a023          	sw	a4,0(a5)
     aa8:	fec42783          	lw	a5,-20(s0)
     aac:	00178793          	addi	a5,a5,1
     ab0:	fef42623          	sw	a5,-20(s0)
     ab4:	fec42703          	lw	a4,-20(s0)
     ab8:	3ff00793          	li	a5,1023
     abc:	f4f712e3          	bne	a4,a5,a00 <led_blinky+0xdc>
     ac0:	00100793          	li	a5,1
     ac4:	fef42623          	sw	a5,-20(s0)
     ac8:	f39ff06f          	j	a00 <led_blinky+0xdc>
     acc:	03c027b7          	lui	a5,0x3c02
     ad0:	02478793          	addi	a5,a5,36 # 3c02024 <_stack+0x3800c24>
     ad4:	0007a703          	lw	a4,0(a5)
     ad8:	00200793          	li	a5,2
     adc:	04f71c63          	bne	a4,a5,b34 <led_blinky+0x210>
     ae0:	00100793          	li	a5,1
     ae4:	fef42623          	sw	a5,-20(s0)
     ae8:	3ff00793          	li	a5,1023
     aec:	fef42423          	sw	a5,-24(s0)
     af0:	fe042223          	sw	zero,-28(s0)
     af4:	20000793          	li	a5,512
     af8:	fcf42e23          	sw	a5,-36(s0)
     afc:	929ff0ef          	jal	ra,424 <delay>
     b00:	03c027b7          	lui	a5,0x3c02
     b04:	01878793          	addi	a5,a5,24 # 3c02018 <_stack+0x3800c18>
     b08:	fe042703          	lw	a4,-32(s0)
     b0c:	00e7a023          	sw	a4,0(a5)
     b10:	fe042783          	lw	a5,-32(s0)
     b14:	00179793          	slli	a5,a5,0x1
     b18:	fef42023          	sw	a5,-32(s0)
     b1c:	fe042703          	lw	a4,-32(s0)
     b20:	20000793          	li	a5,512
     b24:	ece7dee3          	bge	a5,a4,a00 <led_blinky+0xdc>
     b28:	00100793          	li	a5,1
     b2c:	fef42023          	sw	a5,-32(s0)
     b30:	ed1ff06f          	j	a00 <led_blinky+0xdc>
     b34:	03c027b7          	lui	a5,0x3c02
     b38:	02478793          	addi	a5,a5,36 # 3c02024 <_stack+0x3800c24>
     b3c:	0007a703          	lw	a4,0(a5)
     b40:	00300793          	li	a5,3
     b44:	04f71a63          	bne	a4,a5,b98 <led_blinky+0x274>
     b48:	00100793          	li	a5,1
     b4c:	fef42623          	sw	a5,-20(s0)
     b50:	fe042223          	sw	zero,-28(s0)
     b54:	00100793          	li	a5,1
     b58:	fef42023          	sw	a5,-32(s0)
     b5c:	20000793          	li	a5,512
     b60:	fcf42e23          	sw	a5,-36(s0)
     b64:	8c1ff0ef          	jal	ra,424 <delay>
     b68:	03c027b7          	lui	a5,0x3c02
     b6c:	01878793          	addi	a5,a5,24 # 3c02018 <_stack+0x3800c18>
     b70:	fe842703          	lw	a4,-24(s0)
     b74:	00e7a023          	sw	a4,0(a5)
     b78:	fe842783          	lw	a5,-24(s0)
     b7c:	fff78793          	addi	a5,a5,-1
     b80:	fef42423          	sw	a5,-24(s0)
     b84:	fe842783          	lw	a5,-24(s0)
     b88:	e6079ce3          	bnez	a5,a00 <led_blinky+0xdc>
     b8c:	3ff00793          	li	a5,1023
     b90:	fef42423          	sw	a5,-24(s0)
     b94:	e6dff06f          	j	a00 <led_blinky+0xdc>
     b98:	03c027b7          	lui	a5,0x3c02
     b9c:	02478793          	addi	a5,a5,36 # 3c02024 <_stack+0x3800c24>
     ba0:	0007a703          	lw	a4,0(a5)
     ba4:	00400793          	li	a5,4
     ba8:	e4f71ce3          	bne	a4,a5,a00 <led_blinky+0xdc>
     bac:	00100793          	li	a5,1
     bb0:	fef42623          	sw	a5,-20(s0)
     bb4:	3ff00793          	li	a5,1023
     bb8:	fef42423          	sw	a5,-24(s0)
     bbc:	fe042223          	sw	zero,-28(s0)
     bc0:	00100793          	li	a5,1
     bc4:	fef42023          	sw	a5,-32(s0)
     bc8:	85dff0ef          	jal	ra,424 <delay>
     bcc:	03c027b7          	lui	a5,0x3c02
     bd0:	01878793          	addi	a5,a5,24 # 3c02018 <_stack+0x3800c18>
     bd4:	fdc42703          	lw	a4,-36(s0)
     bd8:	00e7a023          	sw	a4,0(a5)
     bdc:	fdc42783          	lw	a5,-36(s0)
     be0:	4017d793          	srai	a5,a5,0x1
     be4:	fcf42e23          	sw	a5,-36(s0)
     be8:	fdc42783          	lw	a5,-36(s0)
     bec:	e0079ae3          	bnez	a5,a00 <led_blinky+0xdc>
     bf0:	20000793          	li	a5,512
     bf4:	fcf42e23          	sw	a5,-36(s0)
     bf8:	e09ff06f          	j	a00 <led_blinky+0xdc>

00000bfc <sys_info>:
     bfc:	ff010113          	addi	sp,sp,-16
     c00:	00112623          	sw	ra,12(sp)
     c04:	00812423          	sw	s0,8(sp)
     c08:	01010413          	addi	s0,sp,16
     c0c:	00100593          	li	a1,1
     c10:	00100513          	li	a0,1
     c14:	f68ff0ef          	jal	ra,37c <set_cursor>
     c18:	004007b7          	lui	a5,0x400
     c1c:	18c78513          	addi	a0,a5,396 # 40018c <_endtext+0x3fe1bc>
     c20:	d54ff0ef          	jal	ra,174 <rvc_printf>
     c24:	00100593          	li	a1,1
     c28:	00500513          	li	a0,5
     c2c:	f50ff0ef          	jal	ra,37c <set_cursor>
     c30:	004007b7          	lui	a5,0x400
     c34:	19c78513          	addi	a0,a5,412 # 40019c <_endtext+0x3fe1cc>
     c38:	d3cff0ef          	jal	ra,174 <rvc_printf>
     c3c:	01400593          	li	a1,20
     c40:	00a00513          	li	a0,10
     c44:	f38ff0ef          	jal	ra,37c <set_cursor>
     c48:	004007b7          	lui	a5,0x400
     c4c:	1a478513          	addi	a0,a5,420 # 4001a4 <_endtext+0x3fe1d4>
     c50:	d24ff0ef          	jal	ra,174 <rvc_printf>
     c54:	01400593          	li	a1,20
     c58:	01400513          	li	a0,20
     c5c:	f20ff0ef          	jal	ra,37c <set_cursor>
     c60:	004007b7          	lui	a5,0x400
     c64:	1bc78513          	addi	a0,a5,444 # 4001bc <_endtext+0x3fe1ec>
     c68:	d0cff0ef          	jal	ra,174 <rvc_printf>
     c6c:	01400593          	li	a1,20
     c70:	01900513          	li	a0,25
     c74:	f08ff0ef          	jal	ra,37c <set_cursor>
     c78:	004007b7          	lui	a5,0x400
     c7c:	1d078513          	addi	a0,a5,464 # 4001d0 <_endtext+0x3fe200>
     c80:	cf4ff0ef          	jal	ra,174 <rvc_printf>
     c84:	01400593          	li	a1,20
     c88:	01e00513          	li	a0,30
     c8c:	ef0ff0ef          	jal	ra,37c <set_cursor>
     c90:	004007b7          	lui	a5,0x400
     c94:	1f078513          	addi	a0,a5,496 # 4001f0 <_endtext+0x3fe220>
     c98:	cdcff0ef          	jal	ra,174 <rvc_printf>
     c9c:	01400593          	li	a1,20
     ca0:	02300513          	li	a0,35
     ca4:	ed8ff0ef          	jal	ra,37c <set_cursor>
     ca8:	004007b7          	lui	a5,0x400
     cac:	20878513          	addi	a0,a5,520 # 400208 <_endtext+0x3fe238>
     cb0:	cc4ff0ef          	jal	ra,174 <rvc_printf>
     cb4:	01400593          	li	a1,20
     cb8:	02800513          	li	a0,40
     cbc:	ec0ff0ef          	jal	ra,37c <set_cursor>
     cc0:	004007b7          	lui	a5,0x400
     cc4:	23878513          	addi	a0,a5,568 # 400238 <_endtext+0x3fe268>
     cc8:	cacff0ef          	jal	ra,174 <rvc_printf>
     ccc:	01400593          	li	a1,20
     cd0:	02d00513          	li	a0,45
     cd4:	ea8ff0ef          	jal	ra,37c <set_cursor>
     cd8:	004007b7          	lui	a5,0x400
     cdc:	26078513          	addi	a0,a5,608 # 400260 <_endtext+0x3fe290>
     ce0:	c94ff0ef          	jal	ra,174 <rvc_printf>
     ce4:	01400593          	li	a1,20
     ce8:	03200513          	li	a0,50
     cec:	e90ff0ef          	jal	ra,37c <set_cursor>
     cf0:	004007b7          	lui	a5,0x400
     cf4:	27c78513          	addi	a0,a5,636 # 40027c <_endtext+0x3fe2ac>
     cf8:	c7cff0ef          	jal	ra,174 <rvc_printf>
     cfc:	01900593          	li	a1,25
     d00:	03700513          	li	a0,55
     d04:	e78ff0ef          	jal	ra,37c <set_cursor>
     d08:	004007b7          	lui	a5,0x400
     d0c:	29478513          	addi	a0,a5,660 # 400294 <_endtext+0x3fe2c4>
     d10:	c64ff0ef          	jal	ra,174 <rvc_printf>
     d14:	01900593          	li	a1,25
     d18:	03c00513          	li	a0,60
     d1c:	e60ff0ef          	jal	ra,37c <set_cursor>
     d20:	004007b7          	lui	a5,0x400
     d24:	2a878513          	addi	a0,a5,680 # 4002a8 <_endtext+0x3fe2d8>
     d28:	c4cff0ef          	jal	ra,174 <rvc_printf>
     d2c:	01400593          	li	a1,20
     d30:	04100513          	li	a0,65
     d34:	e48ff0ef          	jal	ra,37c <set_cursor>
     d38:	004007b7          	lui	a5,0x400
     d3c:	2bc78513          	addi	a0,a5,700 # 4002bc <_endtext+0x3fe2ec>
     d40:	c34ff0ef          	jal	ra,174 <rvc_printf>
     d44:	01900593          	li	a1,25
     d48:	04600513          	li	a0,70
     d4c:	e30ff0ef          	jal	ra,37c <set_cursor>
     d50:	004007b7          	lui	a5,0x400
     d54:	2c878513          	addi	a0,a5,712 # 4002c8 <_endtext+0x3fe2f8>
     d58:	c1cff0ef          	jal	ra,174 <rvc_printf>
     d5c:	01900593          	li	a1,25
     d60:	04b00513          	li	a0,75
     d64:	e18ff0ef          	jal	ra,37c <set_cursor>
     d68:	004007b7          	lui	a5,0x400
     d6c:	2d478513          	addi	a0,a5,724 # 4002d4 <_endtext+0x3fe304>
     d70:	c04ff0ef          	jal	ra,174 <rvc_printf>
     d74:	01900593          	li	a1,25
     d78:	05000513          	li	a0,80
     d7c:	e00ff0ef          	jal	ra,37c <set_cursor>
     d80:	004007b7          	lui	a5,0x400
     d84:	2e478513          	addi	a0,a5,740 # 4002e4 <_endtext+0x3fe314>
     d88:	becff0ef          	jal	ra,174 <rvc_printf>
     d8c:	00000013          	nop
     d90:	00c12083          	lw	ra,12(sp)
     d94:	00812403          	lw	s0,8(sp)
     d98:	01010113          	addi	sp,sp,16
     d9c:	00008067          	ret

00000da0 <new_direction>:
     da0:	fd010113          	addi	sp,sp,-48
     da4:	02812623          	sw	s0,44(sp)
     da8:	03010413          	addi	s0,sp,48
     dac:	00050793          	mv	a5,a0
     db0:	fcf40fa3          	sb	a5,-33(s0)
     db4:	03c027b7          	lui	a5,0x3c02
     db8:	02478793          	addi	a5,a5,36 # 3c02024 <_stack+0x3800c24>
     dbc:	0007a783          	lw	a5,0(a5)
     dc0:	fef407a3          	sb	a5,-17(s0)
     dc4:	fef44783          	lbu	a5,-17(s0)
     dc8:	02078463          	beqz	a5,df0 <new_direction+0x50>
     dcc:	fef44703          	lbu	a4,-17(s0)
     dd0:	00200793          	li	a5,2
     dd4:	00f70e63          	beq	a4,a5,df0 <new_direction+0x50>
     dd8:	fef44703          	lbu	a4,-17(s0)
     ddc:	00400793          	li	a5,4
     de0:	00f70863          	beq	a4,a5,df0 <new_direction+0x50>
     de4:	fef44703          	lbu	a4,-17(s0)
     de8:	00100793          	li	a5,1
     dec:	04f71e63          	bne	a4,a5,e48 <new_direction+0xa8>
     df0:	fdf44783          	lbu	a5,-33(s0)
     df4:	00079863          	bnez	a5,e04 <new_direction+0x64>
     df8:	fef44703          	lbu	a4,-17(s0)
     dfc:	00400793          	li	a5,4
     e00:	04f70463          	beq	a4,a5,e48 <new_direction+0xa8>
     e04:	fdf44703          	lbu	a4,-33(s0)
     e08:	00400793          	li	a5,4
     e0c:	00f71663          	bne	a4,a5,e18 <new_direction+0x78>
     e10:	fef44783          	lbu	a5,-17(s0)
     e14:	02078a63          	beqz	a5,e48 <new_direction+0xa8>
     e18:	fdf44703          	lbu	a4,-33(s0)
     e1c:	00200793          	li	a5,2
     e20:	00f71863          	bne	a4,a5,e30 <new_direction+0x90>
     e24:	fef44703          	lbu	a4,-17(s0)
     e28:	00100793          	li	a5,1
     e2c:	00f70e63          	beq	a4,a5,e48 <new_direction+0xa8>
     e30:	fdf44703          	lbu	a4,-33(s0)
     e34:	00100793          	li	a5,1
     e38:	00f71c63          	bne	a4,a5,e50 <new_direction+0xb0>
     e3c:	fef44703          	lbu	a4,-17(s0)
     e40:	00200793          	li	a5,2
     e44:	00f71663          	bne	a4,a5,e50 <new_direction+0xb0>
     e48:	fdf44783          	lbu	a5,-33(s0)
     e4c:	fef407a3          	sb	a5,-17(s0)
     e50:	fef44783          	lbu	a5,-17(s0)
     e54:	00078513          	mv	a0,a5
     e58:	02c12403          	lw	s0,44(sp)
     e5c:	03010113          	addi	sp,sp,48
     e60:	00008067          	ret

00000e64 <snk_move>:
     e64:	fd010113          	addi	sp,sp,-48
     e68:	02812623          	sw	s0,44(sp)
     e6c:	03010413          	addi	s0,sp,48
     e70:	00050793          	mv	a5,a0
     e74:	fcb42c23          	sw	a1,-40(s0)
     e78:	fcc42a23          	sw	a2,-44(s0)
     e7c:	00068713          	mv	a4,a3
     e80:	fcf40fa3          	sb	a5,-33(s0)
     e84:	00070793          	mv	a5,a4
     e88:	fcf40f23          	sb	a5,-34(s0)
     e8c:	fde44783          	lbu	a5,-34(s0)
     e90:	fff78793          	addi	a5,a5,-1
     e94:	fef42623          	sw	a5,-20(s0)
     e98:	0580006f          	j	ef0 <snk_move+0x8c>
     e9c:	fec42783          	lw	a5,-20(s0)
     ea0:	fff78793          	addi	a5,a5,-1
     ea4:	fd842703          	lw	a4,-40(s0)
     ea8:	00f70733          	add	a4,a4,a5
     eac:	fec42783          	lw	a5,-20(s0)
     eb0:	fd842683          	lw	a3,-40(s0)
     eb4:	00f687b3          	add	a5,a3,a5
     eb8:	00074703          	lbu	a4,0(a4)
     ebc:	00e78023          	sb	a4,0(a5)
     ec0:	fec42783          	lw	a5,-20(s0)
     ec4:	fff78793          	addi	a5,a5,-1
     ec8:	fd442703          	lw	a4,-44(s0)
     ecc:	00f70733          	add	a4,a4,a5
     ed0:	fec42783          	lw	a5,-20(s0)
     ed4:	fd442683          	lw	a3,-44(s0)
     ed8:	00f687b3          	add	a5,a3,a5
     edc:	00074703          	lbu	a4,0(a4)
     ee0:	00e78023          	sb	a4,0(a5)
     ee4:	fec42783          	lw	a5,-20(s0)
     ee8:	fff78793          	addi	a5,a5,-1
     eec:	fef42623          	sw	a5,-20(s0)
     ef0:	fec42783          	lw	a5,-20(s0)
     ef4:	faf044e3          	bgtz	a5,e9c <snk_move+0x38>
     ef8:	fdf44703          	lbu	a4,-33(s0)
     efc:	00200793          	li	a5,2
     f00:	02f71863          	bne	a4,a5,f30 <snk_move+0xcc>
     f04:	fd842783          	lw	a5,-40(s0)
     f08:	0017c703          	lbu	a4,1(a5)
     f0c:	fd842783          	lw	a5,-40(s0)
     f10:	00e78023          	sb	a4,0(a5)
     f14:	fd442783          	lw	a5,-44(s0)
     f18:	00178793          	addi	a5,a5,1
     f1c:	0007c783          	lbu	a5,0(a5)
     f20:	fff78793          	addi	a5,a5,-1
     f24:	0ff7f713          	andi	a4,a5,255
     f28:	fd442783          	lw	a5,-44(s0)
     f2c:	00e78023          	sb	a4,0(a5)
     f30:	fdf44703          	lbu	a4,-33(s0)
     f34:	00100793          	li	a5,1
     f38:	02f71863          	bne	a4,a5,f68 <snk_move+0x104>
     f3c:	fd842783          	lw	a5,-40(s0)
     f40:	0017c703          	lbu	a4,1(a5)
     f44:	fd842783          	lw	a5,-40(s0)
     f48:	00e78023          	sb	a4,0(a5)
     f4c:	fd442783          	lw	a5,-44(s0)
     f50:	00178793          	addi	a5,a5,1
     f54:	0007c783          	lbu	a5,0(a5)
     f58:	00178793          	addi	a5,a5,1
     f5c:	0ff7f713          	andi	a4,a5,255
     f60:	fd442783          	lw	a5,-44(s0)
     f64:	00e78023          	sb	a4,0(a5)
     f68:	fdf44703          	lbu	a4,-33(s0)
     f6c:	00400793          	li	a5,4
     f70:	02f71863          	bne	a4,a5,fa0 <snk_move+0x13c>
     f74:	fd842783          	lw	a5,-40(s0)
     f78:	00178793          	addi	a5,a5,1
     f7c:	0007c783          	lbu	a5,0(a5)
     f80:	fff78793          	addi	a5,a5,-1
     f84:	0ff7f713          	andi	a4,a5,255
     f88:	fd842783          	lw	a5,-40(s0)
     f8c:	00e78023          	sb	a4,0(a5)
     f90:	fd442783          	lw	a5,-44(s0)
     f94:	0017c703          	lbu	a4,1(a5)
     f98:	fd442783          	lw	a5,-44(s0)
     f9c:	00e78023          	sb	a4,0(a5)
     fa0:	fdf44783          	lbu	a5,-33(s0)
     fa4:	02079863          	bnez	a5,fd4 <snk_move+0x170>
     fa8:	fd842783          	lw	a5,-40(s0)
     fac:	00178793          	addi	a5,a5,1
     fb0:	0007c783          	lbu	a5,0(a5)
     fb4:	00178793          	addi	a5,a5,1
     fb8:	0ff7f713          	andi	a4,a5,255
     fbc:	fd842783          	lw	a5,-40(s0)
     fc0:	00e78023          	sb	a4,0(a5)
     fc4:	fd442783          	lw	a5,-44(s0)
     fc8:	0017c703          	lbu	a4,1(a5)
     fcc:	fd442783          	lw	a5,-44(s0)
     fd0:	00e78023          	sb	a4,0(a5)
     fd4:	fdf44783          	lbu	a5,-33(s0)
     fd8:	02079863          	bnez	a5,1008 <snk_move+0x1a4>
     fdc:	fd842783          	lw	a5,-40(s0)
     fe0:	00178793          	addi	a5,a5,1
     fe4:	0007c783          	lbu	a5,0(a5)
     fe8:	00178793          	addi	a5,a5,1
     fec:	0ff7f713          	andi	a4,a5,255
     ff0:	fd842783          	lw	a5,-40(s0)
     ff4:	00e78023          	sb	a4,0(a5)
     ff8:	fd442783          	lw	a5,-44(s0)
     ffc:	0017c703          	lbu	a4,1(a5)
    1000:	fd442783          	lw	a5,-44(s0)
    1004:	00e78023          	sb	a4,0(a5)
    1008:	00000013          	nop
    100c:	02c12403          	lw	s0,44(sp)
    1010:	03010113          	addi	sp,sp,48
    1014:	00008067          	ret

00001018 <print_snake>:
    1018:	fd010113          	addi	sp,sp,-48
    101c:	02112623          	sw	ra,44(sp)
    1020:	02812423          	sw	s0,40(sp)
    1024:	03010413          	addi	s0,sp,48
    1028:	00050793          	mv	a5,a0
    102c:	fcb42c23          	sw	a1,-40(s0)
    1030:	fcc42a23          	sw	a2,-44(s0)
    1034:	fcd42823          	sw	a3,-48(s0)
    1038:	fcf40fa3          	sb	a5,-33(s0)
    103c:	00070793          	mv	a5,a4
    1040:	fcf40f23          	sb	a5,-34(s0)
    1044:	fe042623          	sw	zero,-20(s0)
    1048:	0d40006f          	j	111c <print_snake+0x104>
    104c:	fec42783          	lw	a5,-20(s0)
    1050:	fd842703          	lw	a4,-40(s0)
    1054:	00f707b3          	add	a5,a4,a5
    1058:	0007c783          	lbu	a5,0(a5)
    105c:	0a078a63          	beqz	a5,1110 <print_snake+0xf8>
    1060:	fec42783          	lw	a5,-20(s0)
    1064:	fd042703          	lw	a4,-48(s0)
    1068:	00f707b3          	add	a5,a4,a5
    106c:	0007c783          	lbu	a5,0(a5)
    1070:	00179693          	slli	a3,a5,0x1
    1074:	fec42783          	lw	a5,-20(s0)
    1078:	fd442703          	lw	a4,-44(s0)
    107c:	00f707b3          	add	a5,a4,a5
    1080:	0007c783          	lbu	a5,0(a5)
    1084:	00078613          	mv	a2,a5
    1088:	00068593          	mv	a1,a3
    108c:	05800513          	li	a0,88
    1090:	818ff0ef          	jal	ra,a8 <draw_char>
    1094:	fec42783          	lw	a5,-20(s0)
    1098:	00178793          	addi	a5,a5,1
    109c:	fd842703          	lw	a4,-40(s0)
    10a0:	00f707b3          	add	a5,a4,a5
    10a4:	0007c783          	lbu	a5,0(a5)
    10a8:	06079463          	bnez	a5,1110 <print_snake+0xf8>
    10ac:	fdf44783          	lbu	a5,-33(s0)
    10b0:	02078263          	beqz	a5,10d4 <print_snake+0xbc>
    10b4:	fec42783          	lw	a5,-20(s0)
    10b8:	00178793          	addi	a5,a5,1
    10bc:	fd842703          	lw	a4,-40(s0)
    10c0:	00f707b3          	add	a5,a4,a5
    10c4:	00100713          	li	a4,1
    10c8:	00e78023          	sb	a4,0(a5)
    10cc:	fc040fa3          	sb	zero,-33(s0)
    10d0:	0400006f          	j	1110 <print_snake+0xf8>
    10d4:	fec42783          	lw	a5,-20(s0)
    10d8:	00178793          	addi	a5,a5,1
    10dc:	fd042703          	lw	a4,-48(s0)
    10e0:	00f707b3          	add	a5,a4,a5
    10e4:	0007c783          	lbu	a5,0(a5)
    10e8:	00179693          	slli	a3,a5,0x1
    10ec:	fec42783          	lw	a5,-20(s0)
    10f0:	00178793          	addi	a5,a5,1
    10f4:	fd442703          	lw	a4,-44(s0)
    10f8:	00f707b3          	add	a5,a4,a5
    10fc:	0007c783          	lbu	a5,0(a5)
    1100:	00078613          	mv	a2,a5
    1104:	00068593          	mv	a1,a3
    1108:	02000513          	li	a0,32
    110c:	f9dfe0ef          	jal	ra,a8 <draw_char>
    1110:	fec42783          	lw	a5,-20(s0)
    1114:	00178793          	addi	a5,a5,1
    1118:	fef42623          	sw	a5,-20(s0)
    111c:	fde44783          	lbu	a5,-34(s0)
    1120:	fec42703          	lw	a4,-20(s0)
    1124:	f2f744e3          	blt	a4,a5,104c <print_snake+0x34>
    1128:	00000013          	nop
    112c:	00000013          	nop
    1130:	02c12083          	lw	ra,44(sp)
    1134:	02812403          	lw	s0,40(sp)
    1138:	03010113          	addi	sp,sp,48
    113c:	00008067          	ret

00001140 <eat>:
    1140:	fd010113          	addi	sp,sp,-48
    1144:	02812623          	sw	s0,44(sp)
    1148:	03010413          	addi	s0,sp,48
    114c:	fca42e23          	sw	a0,-36(s0)
    1150:	fcf42a23          	sw	a5,-44(s0)
    1154:	00058793          	mv	a5,a1
    1158:	fcf40da3          	sb	a5,-37(s0)
    115c:	00060793          	mv	a5,a2
    1160:	fcf40d23          	sb	a5,-38(s0)
    1164:	00068793          	mv	a5,a3
    1168:	fcf40ca3          	sb	a5,-39(s0)
    116c:	00070793          	mv	a5,a4
    1170:	fcf40c23          	sb	a5,-40(s0)
    1174:	fdb44703          	lbu	a4,-37(s0)
    1178:	fd944783          	lbu	a5,-39(s0)
    117c:	00f71c63          	bne	a4,a5,1194 <eat+0x54>
    1180:	fda44703          	lbu	a4,-38(s0)
    1184:	fd844783          	lbu	a5,-40(s0)
    1188:	00f71663          	bne	a4,a5,1194 <eat+0x54>
    118c:	00100793          	li	a5,1
    1190:	0080006f          	j	1198 <eat+0x58>
    1194:	00000793          	li	a5,0
    1198:	fef407a3          	sb	a5,-17(s0)
    119c:	fef44783          	lbu	a5,-17(s0)
    11a0:	00078e63          	beqz	a5,11bc <eat+0x7c>
    11a4:	fd442783          	lw	a5,-44(s0)
    11a8:	0007c783          	lbu	a5,0(a5)
    11ac:	00178793          	addi	a5,a5,1
    11b0:	0ff7f713          	andi	a4,a5,255
    11b4:	fd442783          	lw	a5,-44(s0)
    11b8:	00e78023          	sb	a4,0(a5)
    11bc:	fef44783          	lbu	a5,-17(s0)
    11c0:	00078513          	mv	a0,a5
    11c4:	02c12403          	lw	s0,44(sp)
    11c8:	03010113          	addi	sp,sp,48
    11cc:	00008067          	ret

000011d0 <snake_game>:
    11d0:	fa010113          	addi	sp,sp,-96
    11d4:	04112e23          	sw	ra,92(sp)
    11d8:	04812c23          	sw	s0,88(sp)
    11dc:	06010413          	addi	s0,sp,96
    11e0:	fe0407a3          	sb	zero,-17(s0)
    11e4:	00500793          	li	a5,5
    11e8:	fef40723          	sb	a5,-18(s0)
    11ec:	00500793          	li	a5,5
    11f0:	fef406a3          	sb	a5,-19(s0)
    11f4:	fa0405a3          	sb	zero,-85(s0)
    11f8:	fe040623          	sb	zero,-20(s0)
    11fc:	fe0405a3          	sb	zero,-21(s0)
    1200:	fe040523          	sb	zero,-22(s0)
    1204:	fe042223          	sw	zero,-28(s0)
    1208:	0300006f          	j	1238 <snake_game+0x68>
    120c:	fe442603          	lw	a2,-28(s0)
    1210:	00000593          	li	a1,0
    1214:	04100513          	li	a0,65
    1218:	e91fe0ef          	jal	ra,a8 <draw_char>
    121c:	fe442603          	lw	a2,-28(s0)
    1220:	07600593          	li	a1,118
    1224:	04100513          	li	a0,65
    1228:	e81fe0ef          	jal	ra,a8 <draw_char>
    122c:	fe442783          	lw	a5,-28(s0)
    1230:	00178793          	addi	a5,a5,1
    1234:	fef42223          	sw	a5,-28(s0)
    1238:	fe442703          	lw	a4,-28(s0)
    123c:	04f00793          	li	a5,79
    1240:	fce7d6e3          	bge	a5,a4,120c <snake_game+0x3c>
    1244:	fe042023          	sw	zero,-32(s0)
    1248:	0400006f          	j	1288 <snake_game+0xb8>
    124c:	fe042783          	lw	a5,-32(s0)
    1250:	00179793          	slli	a5,a5,0x1
    1254:	00000613          	li	a2,0
    1258:	00078593          	mv	a1,a5
    125c:	04100513          	li	a0,65
    1260:	e49fe0ef          	jal	ra,a8 <draw_char>
    1264:	fe042783          	lw	a5,-32(s0)
    1268:	00179793          	slli	a5,a5,0x1
    126c:	04f00613          	li	a2,79
    1270:	00078593          	mv	a1,a5
    1274:	04100513          	li	a0,65
    1278:	e31fe0ef          	jal	ra,a8 <draw_char>
    127c:	fe042783          	lw	a5,-32(s0)
    1280:	00178793          	addi	a5,a5,1
    1284:	fef42023          	sw	a5,-32(s0)
    1288:	fe042703          	lw	a4,-32(s0)
    128c:	03b00793          	li	a5,59
    1290:	fae7dee3          	bge	a5,a4,124c <snake_game+0x7c>
    1294:	fc040fa3          	sb	zero,-33(s0)
    1298:	05c0006f          	j	12f4 <snake_game+0x124>
    129c:	fdf44783          	lbu	a5,-33(s0)
    12a0:	fdf44703          	lbu	a4,-33(s0)
    12a4:	01470713          	addi	a4,a4,20
    12a8:	0ff77713          	andi	a4,a4,255
    12ac:	ff040693          	addi	a3,s0,-16
    12b0:	00f687b3          	add	a5,a3,a5
    12b4:	fce78e23          	sb	a4,-36(a5)
    12b8:	fdf44783          	lbu	a5,-33(s0)
    12bc:	ff040713          	addi	a4,s0,-16
    12c0:	00f707b3          	add	a5,a4,a5
    12c4:	01400713          	li	a4,20
    12c8:	fce78623          	sb	a4,-52(a5)
    12cc:	fdf44783          	lbu	a5,-33(s0)
    12d0:	0057b793          	sltiu	a5,a5,5
    12d4:	0ff7f713          	andi	a4,a5,255
    12d8:	fdf44783          	lbu	a5,-33(s0)
    12dc:	ff040693          	addi	a3,s0,-16
    12e0:	00f687b3          	add	a5,a3,a5
    12e4:	fae78e23          	sb	a4,-68(a5)
    12e8:	fdf44783          	lbu	a5,-33(s0)
    12ec:	00178793          	addi	a5,a5,1
    12f0:	fcf40fa3          	sb	a5,-33(s0)
    12f4:	fdf44703          	lbu	a4,-33(s0)
    12f8:	00e00793          	li	a5,14
    12fc:	fae7f0e3          	bgeu	a5,a4,129c <snake_game+0xcc>
    1300:	fef44783          	lbu	a5,-17(s0)
    1304:	00078513          	mv	a0,a5
    1308:	a99ff0ef          	jal	ra,da0 <new_direction>
    130c:	00050793          	mv	a5,a0
    1310:	fef407a3          	sb	a5,-17(s0)
    1314:	feb44783          	lbu	a5,-21(s0)
    1318:	02079063          	bnez	a5,1338 <snake_game+0x168>
    131c:	fbc40613          	addi	a2,s0,-68
    1320:	fcc40713          	addi	a4,s0,-52
    1324:	fef44783          	lbu	a5,-17(s0)
    1328:	00f00693          	li	a3,15
    132c:	00070593          	mv	a1,a4
    1330:	00078513          	mv	a0,a5
    1334:	b31ff0ef          	jal	ra,e64 <snk_move>
    1338:	fcc44583          	lbu	a1,-52(s0)
    133c:	fbc44603          	lbu	a2,-68(s0)
    1340:	fab40793          	addi	a5,s0,-85
    1344:	fed44703          	lbu	a4,-19(s0)
    1348:	fee44683          	lbu	a3,-18(s0)
    134c:	fac40513          	addi	a0,s0,-84
    1350:	df1ff0ef          	jal	ra,1140 <eat>
    1354:	00050793          	mv	a5,a0
    1358:	fcf40f23          	sb	a5,-34(s0)
    135c:	fde44703          	lbu	a4,-34(s0)
    1360:	00100793          	li	a5,1
    1364:	04f71463          	bne	a4,a5,13ac <snake_game+0x1dc>
    1368:	fea44783          	lbu	a5,-22(s0)
    136c:	02079063          	bnez	a5,138c <snake_game+0x1bc>
    1370:	00900793          	li	a5,9
    1374:	fef40723          	sb	a5,-18(s0)
    1378:	00900793          	li	a5,9
    137c:	fef406a3          	sb	a5,-19(s0)
    1380:	00100793          	li	a5,1
    1384:	fef40523          	sb	a5,-22(s0)
    1388:	0180006f          	j	13a0 <snake_game+0x1d0>
    138c:	01d00793          	li	a5,29
    1390:	fef40723          	sb	a5,-18(s0)
    1394:	01d00793          	li	a5,29
    1398:	fef406a3          	sb	a5,-19(s0)
    139c:	fe040523          	sb	zero,-22(s0)
    13a0:	fec44783          	lbu	a5,-20(s0)
    13a4:	00178793          	addi	a5,a5,1
    13a8:	fef40623          	sb	a5,-20(s0)
    13ac:	01400593          	li	a1,20
    13b0:	00300513          	li	a0,3
    13b4:	fc9fe0ef          	jal	ra,37c <set_cursor>
    13b8:	004007b7          	lui	a5,0x400
    13bc:	2f878513          	addi	a0,a5,760 # 4002f8 <_endtext+0x3fe328>
    13c0:	db5fe0ef          	jal	ra,174 <rvc_printf>
    13c4:	fed44783          	lbu	a5,-19(s0)
    13c8:	00179793          	slli	a5,a5,0x1
    13cc:	fee44703          	lbu	a4,-18(s0)
    13d0:	00070613          	mv	a2,a4
    13d4:	00078593          	mv	a1,a5
    13d8:	04f00513          	li	a0,79
    13dc:	ccdfe0ef          	jal	ra,a8 <draw_char>
    13e0:	fbc40693          	addi	a3,s0,-68
    13e4:	fcc40613          	addi	a2,s0,-52
    13e8:	fac40593          	addi	a1,s0,-84
    13ec:	fde44783          	lbu	a5,-34(s0)
    13f0:	00f00713          	li	a4,15
    13f4:	00078513          	mv	a0,a5
    13f8:	c21ff0ef          	jal	ra,1018 <print_snake>
    13fc:	fec44783          	lbu	a5,-20(s0)
    1400:	03078793          	addi	a5,a5,48
    1404:	0ff7f793          	andi	a5,a5,255
    1408:	02700613          	li	a2,39
    140c:	00300593          	li	a1,3
    1410:	00078513          	mv	a0,a5
    1414:	c95fe0ef          	jal	ra,a8 <draw_char>
    1418:	fcc44783          	lbu	a5,-52(s0)
    141c:	02078263          	beqz	a5,1440 <snake_game+0x270>
    1420:	fcc44703          	lbu	a4,-52(s0)
    1424:	04f00793          	li	a5,79
    1428:	00f70c63          	beq	a4,a5,1440 <snake_game+0x270>
    142c:	fbc44783          	lbu	a5,-68(s0)
    1430:	00078863          	beqz	a5,1440 <snake_game+0x270>
    1434:	fbc44703          	lbu	a4,-68(s0)
    1438:	03b00793          	li	a5,59
    143c:	00f71663          	bne	a4,a5,1448 <snake_game+0x278>
    1440:	00100793          	li	a5,1
    1444:	0080006f          	j	144c <snake_game+0x27c>
    1448:	00000793          	li	a5,0
    144c:	fef405a3          	sb	a5,-21(s0)
    1450:	fc040f23          	sb	zero,-34(s0)
    1454:	fd1fe0ef          	jal	ra,424 <delay>
    1458:	ea9ff06f          	j	1300 <snake_game+0x130>

0000145c <main>:
    145c:	f7010113          	addi	sp,sp,-144
    1460:	08112623          	sw	ra,140(sp)
    1464:	08812423          	sw	s0,136(sp)
    1468:	09010413          	addi	s0,sp,144
    146c:	f55fe0ef          	jal	ra,3c0 <clear_screen>
    1470:	00c007b7          	lui	a5,0xc00
    1474:	0007a783          	lw	a5,0(a5) # c00000 <_stack+0x7fec00>
    1478:	fcf42423          	sw	a5,-56(s0)
    147c:	01200793          	li	a5,18
    1480:	fcf42223          	sw	a5,-60(s0)
    1484:	fc842783          	lw	a5,-56(s0)
    1488:	ffc78793          	addi	a5,a5,-4
    148c:	00700713          	li	a4,7
    1490:	1ef76ce3          	bltu	a4,a5,1e88 <main+0xa2c>
    1494:	00279713          	slli	a4,a5,0x2
    1498:	004007b7          	lui	a5,0x400
    149c:	52878793          	addi	a5,a5,1320 # 400528 <_endtext+0x3fe558>
    14a0:	00f707b3          	add	a5,a4,a5
    14a4:	0007a783          	lw	a5,0(a5)
    14a8:	00078067          	jr	a5
    14ac:	01c007b7          	lui	a5,0x1c00
    14b0:	15078793          	addi	a5,a5,336 # 1c00150 <_stack+0x17fed50>
    14b4:	0007a023          	sw	zero,0(a5)
    14b8:	f6dfe0ef          	jal	ra,424 <delay>
    14bc:	00100593          	li	a1,1
    14c0:	01e00513          	li	a0,30
    14c4:	eb9fe0ef          	jal	ra,37c <set_cursor>
    14c8:	004007b7          	lui	a5,0x400
    14cc:	30478513          	addi	a0,a5,772 # 400304 <_endtext+0x3fe334>
    14d0:	ca5fe0ef          	jal	ra,174 <rvc_printf>
    14d4:	004007b7          	lui	a5,0x400
    14d8:	40878713          	addi	a4,a5,1032 # 400408 <_endtext+0x3fe438>
    14dc:	f7840793          	addi	a5,s0,-136
    14e0:	00070693          	mv	a3,a4
    14e4:	04800713          	li	a4,72
    14e8:	00070613          	mv	a2,a4
    14ec:	00068593          	mv	a1,a3
    14f0:	00078513          	mv	a0,a5
    14f4:	1b5000ef          	jal	ra,1ea8 <memcpy>
    14f8:	fe042423          	sw	zero,-24(s0)
    14fc:	03c0006f          	j	1538 <main+0xdc>
    1500:	fe842783          	lw	a5,-24(s0)
    1504:	00279793          	slli	a5,a5,0x2
    1508:	ff040713          	addi	a4,s0,-16
    150c:	00f707b3          	add	a5,a4,a5
    1510:	f887a703          	lw	a4,-120(a5)
    1514:	000017b7          	lui	a5,0x1
    1518:	e1078693          	addi	a3,a5,-496 # e10 <new_direction+0x70>
    151c:	00000613          	li	a2,0
    1520:	fe842583          	lw	a1,-24(s0)
    1524:	00070513          	mv	a0,a4
    1528:	f41fe0ef          	jal	ra,468 <draw_stick>
    152c:	fe842783          	lw	a5,-24(s0)
    1530:	00178793          	addi	a5,a5,1
    1534:	fef42423          	sw	a5,-24(s0)
    1538:	fe842703          	lw	a4,-24(s0)
    153c:	fc442783          	lw	a5,-60(s0)
    1540:	fcf740e3          	blt	a4,a5,1500 <main+0xa4>
    1544:	ee1fe0ef          	jal	ra,424 <delay>
    1548:	f7840713          	addi	a4,s0,-136
    154c:	000017b7          	lui	a5,0x1
    1550:	e1078693          	addi	a3,a5,-496 # e10 <new_direction+0x70>
    1554:	00000613          	li	a2,0
    1558:	fc442583          	lw	a1,-60(s0)
    155c:	00070513          	mv	a0,a4
    1560:	844ff0ef          	jal	ra,5a4 <bubbleSort>
    1564:	ec1fe0ef          	jal	ra,424 <delay>
    1568:	0000006f          	j	1568 <main+0x10c>
    156c:	aecff0ef          	jal	ra,858 <show_menu>
    1570:	fc042023          	sw	zero,-64(s0)
    1574:	03c027b7          	lui	a5,0x3c02
    1578:	02478793          	addi	a5,a5,36 # 3c02024 <_stack+0x3800c24>
    157c:	0007a783          	lw	a5,0(a5)
    1580:	fcf42023          	sw	a5,-64(s0)
    1584:	fc042703          	lw	a4,-64(s0)
    1588:	00100793          	li	a5,1
    158c:	04f71463          	bne	a4,a5,15d4 <main+0x178>
    1590:	01200613          	li	a2,18
    1594:	02800593          	li	a1,40
    1598:	00100513          	li	a0,1
    159c:	d19fe0ef          	jal	ra,2b4 <draw_symbol>
    15a0:	01200613          	li	a2,18
    15a4:	03200593          	li	a1,50
    15a8:	00500513          	li	a0,5
    15ac:	d09fe0ef          	jal	ra,2b4 <draw_symbol>
    15b0:	01200613          	li	a2,18
    15b4:	03c00593          	li	a1,60
    15b8:	00500513          	li	a0,5
    15bc:	cf9fe0ef          	jal	ra,2b4 <draw_symbol>
    15c0:	01200613          	li	a2,18
    15c4:	04600593          	li	a1,70
    15c8:	00500513          	li	a0,5
    15cc:	ce9fe0ef          	jal	ra,2b4 <draw_symbol>
    15d0:	fa5ff06f          	j	1574 <main+0x118>
    15d4:	fc042703          	lw	a4,-64(s0)
    15d8:	00200793          	li	a5,2
    15dc:	04f71463          	bne	a4,a5,1624 <main+0x1c8>
    15e0:	01200613          	li	a2,18
    15e4:	03200593          	li	a1,50
    15e8:	00100513          	li	a0,1
    15ec:	cc9fe0ef          	jal	ra,2b4 <draw_symbol>
    15f0:	01200613          	li	a2,18
    15f4:	02800593          	li	a1,40
    15f8:	00500513          	li	a0,5
    15fc:	cb9fe0ef          	jal	ra,2b4 <draw_symbol>
    1600:	01200613          	li	a2,18
    1604:	03c00593          	li	a1,60
    1608:	00500513          	li	a0,5
    160c:	ca9fe0ef          	jal	ra,2b4 <draw_symbol>
    1610:	01200613          	li	a2,18
    1614:	04600593          	li	a1,70
    1618:	00500513          	li	a0,5
    161c:	c99fe0ef          	jal	ra,2b4 <draw_symbol>
    1620:	f55ff06f          	j	1574 <main+0x118>
    1624:	fc042703          	lw	a4,-64(s0)
    1628:	00400793          	li	a5,4
    162c:	04f71463          	bne	a4,a5,1674 <main+0x218>
    1630:	01200613          	li	a2,18
    1634:	03c00593          	li	a1,60
    1638:	00100513          	li	a0,1
    163c:	c79fe0ef          	jal	ra,2b4 <draw_symbol>
    1640:	01200613          	li	a2,18
    1644:	02800593          	li	a1,40
    1648:	00500513          	li	a0,5
    164c:	c69fe0ef          	jal	ra,2b4 <draw_symbol>
    1650:	01200613          	li	a2,18
    1654:	03200593          	li	a1,50
    1658:	00500513          	li	a0,5
    165c:	c59fe0ef          	jal	ra,2b4 <draw_symbol>
    1660:	01200613          	li	a2,18
    1664:	04600593          	li	a1,70
    1668:	00500513          	li	a0,5
    166c:	c49fe0ef          	jal	ra,2b4 <draw_symbol>
    1670:	f05ff06f          	j	1574 <main+0x118>
    1674:	fc042703          	lw	a4,-64(s0)
    1678:	00500793          	li	a5,5
    167c:	04f71463          	bne	a4,a5,16c4 <main+0x268>
    1680:	01200613          	li	a2,18
    1684:	04600593          	li	a1,70
    1688:	00100513          	li	a0,1
    168c:	c29fe0ef          	jal	ra,2b4 <draw_symbol>
    1690:	01200613          	li	a2,18
    1694:	02800593          	li	a1,40
    1698:	00500513          	li	a0,5
    169c:	c19fe0ef          	jal	ra,2b4 <draw_symbol>
    16a0:	01200613          	li	a2,18
    16a4:	03200593          	li	a1,50
    16a8:	00500513          	li	a0,5
    16ac:	c09fe0ef          	jal	ra,2b4 <draw_symbol>
    16b0:	01200613          	li	a2,18
    16b4:	03c00593          	li	a1,60
    16b8:	00500513          	li	a0,5
    16bc:	bf9fe0ef          	jal	ra,2b4 <draw_symbol>
    16c0:	eb5ff06f          	j	1574 <main+0x118>
    16c4:	fc042703          	lw	a4,-64(s0)
    16c8:	08100793          	li	a5,129
    16cc:	06f70663          	beq	a4,a5,1738 <main+0x2dc>
    16d0:	fc042703          	lw	a4,-64(s0)
    16d4:	08200793          	li	a5,130
    16d8:	06f70063          	beq	a4,a5,1738 <main+0x2dc>
    16dc:	fc042703          	lw	a4,-64(s0)
    16e0:	08400793          	li	a5,132
    16e4:	04f70a63          	beq	a4,a5,1738 <main+0x2dc>
    16e8:	fc042703          	lw	a4,-64(s0)
    16ec:	08500793          	li	a5,133
    16f0:	04f70463          	beq	a4,a5,1738 <main+0x2dc>
    16f4:	01200613          	li	a2,18
    16f8:	02800593          	li	a1,40
    16fc:	00500513          	li	a0,5
    1700:	bb5fe0ef          	jal	ra,2b4 <draw_symbol>
    1704:	01200613          	li	a2,18
    1708:	03200593          	li	a1,50
    170c:	00500513          	li	a0,5
    1710:	ba5fe0ef          	jal	ra,2b4 <draw_symbol>
    1714:	01200613          	li	a2,18
    1718:	03c00593          	li	a1,60
    171c:	00500513          	li	a0,5
    1720:	b95fe0ef          	jal	ra,2b4 <draw_symbol>
    1724:	01200613          	li	a2,18
    1728:	04600593          	li	a1,70
    172c:	00500513          	li	a0,5
    1730:	b85fe0ef          	jal	ra,2b4 <draw_symbol>
    1734:	e41ff06f          	j	1574 <main+0x118>
    1738:	fc042703          	lw	a4,-64(s0)
    173c:	08100793          	li	a5,129
    1740:	00f71863          	bne	a4,a5,1750 <main+0x2f4>
    1744:	c7dfe0ef          	jal	ra,3c0 <clear_screen>
    1748:	cb4ff0ef          	jal	ra,bfc <sys_info>
    174c:	0000006f          	j	174c <main+0x2f0>
    1750:	fc042703          	lw	a4,-64(s0)
    1754:	08200793          	li	a5,130
    1758:	00f71863          	bne	a4,a5,1768 <main+0x30c>
    175c:	c65fe0ef          	jal	ra,3c0 <clear_screen>
    1760:	9c4ff0ef          	jal	ra,924 <led_blinky>
    1764:	0000006f          	j	1764 <main+0x308>
    1768:	fc042703          	lw	a4,-64(s0)
    176c:	08500793          	li	a5,133
    1770:	00f71863          	bne	a4,a5,1780 <main+0x324>
    1774:	c4dfe0ef          	jal	ra,3c0 <clear_screen>
    1778:	a59ff0ef          	jal	ra,11d0 <snake_game>
    177c:	0000006f          	j	177c <main+0x320>
    1780:	fc042703          	lw	a4,-64(s0)
    1784:	08400793          	li	a5,132
    1788:	70f71263          	bne	a4,a5,1e8c <main+0xa30>
    178c:	c35fe0ef          	jal	ra,3c0 <clear_screen>
    1790:	02c007b7          	lui	a5,0x2c00
    1794:	15c78713          	addi	a4,a5,348 # 2c0015c <_stack+0x27fed5c>
    1798:	00100793          	li	a5,1
    179c:	00f72023          	sw	a5,0(a4)
    17a0:	02c00737          	lui	a4,0x2c00
    17a4:	15870713          	addi	a4,a4,344 # 2c00158 <_stack+0x27fed58>
    17a8:	00f72023          	sw	a5,0(a4)
    17ac:	02c00737          	lui	a4,0x2c00
    17b0:	15470713          	addi	a4,a4,340 # 2c00154 <_stack+0x27fed54>
    17b4:	00f72023          	sw	a5,0(a4)
    17b8:	02c00737          	lui	a4,0x2c00
    17bc:	15070713          	addi	a4,a4,336 # 2c00150 <_stack+0x27fed50>
    17c0:	00f72023          	sw	a5,0(a4)
    17c4:	01c00737          	lui	a4,0x1c00
    17c8:	15c70713          	addi	a4,a4,348 # 1c0015c <_stack+0x17fed5c>
    17cc:	00f72023          	sw	a5,0(a4)
    17d0:	01c00737          	lui	a4,0x1c00
    17d4:	15870713          	addi	a4,a4,344 # 1c00158 <_stack+0x17fed58>
    17d8:	00f72023          	sw	a5,0(a4)
    17dc:	01c00737          	lui	a4,0x1c00
    17e0:	15070713          	addi	a4,a4,336 # 1c00150 <_stack+0x17fed50>
    17e4:	00f72023          	sw	a5,0(a4)
    17e8:	c3dfe0ef          	jal	ra,424 <delay>
    17ec:	02800593          	li	a1,40
    17f0:	05a00513          	li	a0,90
    17f4:	b89fe0ef          	jal	ra,37c <set_cursor>
    17f8:	004007b7          	lui	a5,0x400
    17fc:	32078513          	addi	a0,a5,800 # 400320 <_endtext+0x3fe350>
    1800:	975fe0ef          	jal	ra,174 <rvc_printf>
    1804:	004007b7          	lui	a5,0x400
    1808:	45078713          	addi	a4,a5,1104 # 400450 <_endtext+0x3fe480>
    180c:	f7840793          	addi	a5,s0,-136
    1810:	00070693          	mv	a3,a4
    1814:	04800713          	li	a4,72
    1818:	00070613          	mv	a2,a4
    181c:	00068593          	mv	a1,a3
    1820:	00078513          	mv	a0,a5
    1824:	684000ef          	jal	ra,1ea8 <memcpy>
    1828:	fe042223          	sw	zero,-28(s0)
    182c:	0400006f          	j	186c <main+0x410>
    1830:	fe442783          	lw	a5,-28(s0)
    1834:	00279793          	slli	a5,a5,0x2
    1838:	ff040713          	addi	a4,s0,-16
    183c:	00f707b3          	add	a5,a4,a5
    1840:	f887a703          	lw	a4,-120(a5)
    1844:	000017b7          	lui	a5,0x1
    1848:	e1078693          	addi	a3,a5,-496 # e10 <new_direction+0x70>
    184c:	000017b7          	lui	a5,0x1
    1850:	2e878613          	addi	a2,a5,744 # 12e8 <snake_game+0x118>
    1854:	fe442583          	lw	a1,-28(s0)
    1858:	00070513          	mv	a0,a4
    185c:	c0dfe0ef          	jal	ra,468 <draw_stick>
    1860:	fe442783          	lw	a5,-28(s0)
    1864:	00178793          	addi	a5,a5,1
    1868:	fef42223          	sw	a5,-28(s0)
    186c:	fe442703          	lw	a4,-28(s0)
    1870:	fc442783          	lw	a5,-60(s0)
    1874:	faf74ee3          	blt	a4,a5,1830 <main+0x3d4>
    1878:	badfe0ef          	jal	ra,424 <delay>
    187c:	f7840713          	addi	a4,s0,-136
    1880:	000017b7          	lui	a5,0x1
    1884:	e1078693          	addi	a3,a5,-496 # e10 <new_direction+0x70>
    1888:	000017b7          	lui	a5,0x1
    188c:	2e878613          	addi	a2,a5,744 # 12e8 <snake_game+0x118>
    1890:	fc442583          	lw	a1,-60(s0)
    1894:	00070513          	mv	a0,a4
    1898:	d0dfe0ef          	jal	ra,5a4 <bubbleSort>
    189c:	b89fe0ef          	jal	ra,424 <delay>
    18a0:	0000006f          	j	18a0 <main+0x444>
    18a4:	01c007b7          	lui	a5,0x1c00
    18a8:	15878793          	addi	a5,a5,344 # 1c00158 <_stack+0x17fed58>
    18ac:	0007a023          	sw	zero,0(a5)
    18b0:	fe042623          	sw	zero,-20(s0)
    18b4:	0bc0006f          	j	1970 <main+0x514>
    18b8:	fec42783          	lw	a5,-20(s0)
    18bc:	00279713          	slli	a4,a5,0x2
    18c0:	034007b7          	lui	a5,0x3400
    18c4:	00f707b3          	add	a5,a4,a5
    18c8:	fff00713          	li	a4,-1
    18cc:	00e7a023          	sw	a4,0(a5) # 3400000 <_stack+0x2ffec00>
    18d0:	fec42703          	lw	a4,-20(s0)
    18d4:	000017b7          	lui	a5,0x1
    18d8:	96078793          	addi	a5,a5,-1696 # 960 <led_blinky+0x3c>
    18dc:	00f707b3          	add	a5,a4,a5
    18e0:	00279713          	slli	a4,a5,0x2
    18e4:	034007b7          	lui	a5,0x3400
    18e8:	ec078793          	addi	a5,a5,-320 # 33ffec0 <_stack+0x2ffeac0>
    18ec:	00f707b3          	add	a5,a4,a5
    18f0:	fff00713          	li	a4,-1
    18f4:	00e7a023          	sw	a4,0(a5)
    18f8:	fec42703          	lw	a4,-20(s0)
    18fc:	000017b7          	lui	a5,0x1
    1900:	2c078793          	addi	a5,a5,704 # 12c0 <snake_game+0xf0>
    1904:	00f707b3          	add	a5,a4,a5
    1908:	00279713          	slli	a4,a5,0x2
    190c:	034007b7          	lui	a5,0x3400
    1910:	ec078793          	addi	a5,a5,-320 # 33ffec0 <_stack+0x2ffeac0>
    1914:	00f707b3          	add	a5,a4,a5
    1918:	fff00713          	li	a4,-1
    191c:	00e7a023          	sw	a4,0(a5)
    1920:	fec42703          	lw	a4,-20(s0)
    1924:	000027b7          	lui	a5,0x2
    1928:	c2078793          	addi	a5,a5,-992 # 1c20 <main+0x7c4>
    192c:	00f707b3          	add	a5,a4,a5
    1930:	00279713          	slli	a4,a5,0x2
    1934:	034007b7          	lui	a5,0x3400
    1938:	ec078793          	addi	a5,a5,-320 # 33ffec0 <_stack+0x2ffeac0>
    193c:	00f707b3          	add	a5,a4,a5
    1940:	fff00713          	li	a4,-1
    1944:	00e7a023          	sw	a4,0(a5)
    1948:	fec42783          	lw	a5,-20(s0)
    194c:	00279713          	slli	a4,a5,0x2
    1950:	034097b7          	lui	a5,0x3409
    1954:	4c078793          	addi	a5,a5,1216 # 34094c0 <_stack+0x30080c0>
    1958:	00f707b3          	add	a5,a4,a5
    195c:	fff00713          	li	a4,-1
    1960:	00e7a023          	sw	a4,0(a5)
    1964:	fec42783          	lw	a5,-20(s0)
    1968:	00178793          	addi	a5,a5,1
    196c:	fef42623          	sw	a5,-20(s0)
    1970:	fec42703          	lw	a4,-20(s0)
    1974:	04f00793          	li	a5,79
    1978:	f4e7d0e3          	bge	a5,a4,18b8 <main+0x45c>
    197c:	fe042623          	sw	zero,-20(s0)
    1980:	0900006f          	j	1a10 <main+0x5b4>
    1984:	fec42703          	lw	a4,-20(s0)
    1988:	00070793          	mv	a5,a4
    198c:	00279793          	slli	a5,a5,0x2
    1990:	00e787b3          	add	a5,a5,a4
    1994:	00679793          	slli	a5,a5,0x6
    1998:	00078713          	mv	a4,a5
    199c:	034007b7          	lui	a5,0x3400
    19a0:	00f707b3          	add	a5,a4,a5
    19a4:	fff00713          	li	a4,-1
    19a8:	00e7a023          	sw	a4,0(a5) # 3400000 <_stack+0x2ffec00>
    19ac:	fec42703          	lw	a4,-20(s0)
    19b0:	00070793          	mv	a5,a4
    19b4:	00279793          	slli	a5,a5,0x2
    19b8:	00e787b3          	add	a5,a5,a4
    19bc:	00679793          	slli	a5,a5,0x6
    19c0:	00078713          	mv	a4,a5
    19c4:	034007b7          	lui	a5,0x3400
    19c8:	09c78793          	addi	a5,a5,156 # 340009c <_stack+0x2ffec9c>
    19cc:	00f707b3          	add	a5,a4,a5
    19d0:	fff00713          	li	a4,-1
    19d4:	00e7a023          	sw	a4,0(a5)
    19d8:	fec42703          	lw	a4,-20(s0)
    19dc:	00070793          	mv	a5,a4
    19e0:	00279793          	slli	a5,a5,0x2
    19e4:	00e787b3          	add	a5,a5,a4
    19e8:	00679793          	slli	a5,a5,0x6
    19ec:	00078713          	mv	a4,a5
    19f0:	034007b7          	lui	a5,0x3400
    19f4:	13c78793          	addi	a5,a5,316 # 340013c <_stack+0x2ffed3c>
    19f8:	00f707b3          	add	a5,a4,a5
    19fc:	fff00713          	li	a4,-1
    1a00:	00e7a023          	sw	a4,0(a5)
    1a04:	fec42783          	lw	a5,-20(s0)
    1a08:	00178793          	addi	a5,a5,1
    1a0c:	fef42623          	sw	a5,-20(s0)
    1a10:	fec42703          	lw	a4,-20(s0)
    1a14:	07700793          	li	a5,119
    1a18:	f6e7d6e3          	bge	a5,a4,1984 <main+0x528>
    1a1c:	a09fe0ef          	jal	ra,424 <delay>
    1a20:	02800593          	li	a1,40
    1a24:	01e00513          	li	a0,30
    1a28:	955fe0ef          	jal	ra,37c <set_cursor>
    1a2c:	004007b7          	lui	a5,0x400
    1a30:	34078513          	addi	a0,a5,832 # 400340 <_endtext+0x3fe370>
    1a34:	f40fe0ef          	jal	ra,174 <rvc_printf>
    1a38:	004007b7          	lui	a5,0x400
    1a3c:	49878713          	addi	a4,a5,1176 # 400498 <_endtext+0x3fe4c8>
    1a40:	f7840793          	addi	a5,s0,-136
    1a44:	00070693          	mv	a3,a4
    1a48:	04800713          	li	a4,72
    1a4c:	00070613          	mv	a2,a4
    1a50:	00068593          	mv	a1,a3
    1a54:	00078513          	mv	a0,a5
    1a58:	450000ef          	jal	ra,1ea8 <memcpy>
    1a5c:	fe042023          	sw	zero,-32(s0)
    1a60:	03c0006f          	j	1a9c <main+0x640>
    1a64:	fe042783          	lw	a5,-32(s0)
    1a68:	00279793          	slli	a5,a5,0x2
    1a6c:	ff040713          	addi	a4,s0,-16
    1a70:	00f707b3          	add	a5,a4,a5
    1a74:	f887a703          	lw	a4,-120(a5)
    1a78:	000017b7          	lui	a5,0x1
    1a7c:	e1078693          	addi	a3,a5,-496 # e10 <new_direction+0x70>
    1a80:	02800613          	li	a2,40
    1a84:	fe042583          	lw	a1,-32(s0)
    1a88:	00070513          	mv	a0,a4
    1a8c:	9ddfe0ef          	jal	ra,468 <draw_stick>
    1a90:	fe042783          	lw	a5,-32(s0)
    1a94:	00178793          	addi	a5,a5,1
    1a98:	fef42023          	sw	a5,-32(s0)
    1a9c:	fe042703          	lw	a4,-32(s0)
    1aa0:	fc442783          	lw	a5,-60(s0)
    1aa4:	fcf740e3          	blt	a4,a5,1a64 <main+0x608>
    1aa8:	97dfe0ef          	jal	ra,424 <delay>
    1aac:	f7840713          	addi	a4,s0,-136
    1ab0:	000017b7          	lui	a5,0x1
    1ab4:	e1078693          	addi	a3,a5,-496 # e10 <new_direction+0x70>
    1ab8:	02800613          	li	a2,40
    1abc:	fc442583          	lw	a1,-60(s0)
    1ac0:	00070513          	mv	a0,a4
    1ac4:	ae1fe0ef          	jal	ra,5a4 <bubbleSort>
    1ac8:	95dfe0ef          	jal	ra,424 <delay>
    1acc:	0000006f          	j	1acc <main+0x670>
    1ad0:	01c007b7          	lui	a5,0x1c00
    1ad4:	15c78793          	addi	a5,a5,348 # 1c0015c <_stack+0x17fed5c>
    1ad8:	0007a023          	sw	zero,0(a5)
    1adc:	949fe0ef          	jal	ra,424 <delay>
    1ae0:	00100593          	li	a1,1
    1ae4:	05a00513          	li	a0,90
    1ae8:	895fe0ef          	jal	ra,37c <set_cursor>
    1aec:	004007b7          	lui	a5,0x400
    1af0:	35c78513          	addi	a0,a5,860 # 40035c <_endtext+0x3fe38c>
    1af4:	e80fe0ef          	jal	ra,174 <rvc_printf>
    1af8:	004007b7          	lui	a5,0x400
    1afc:	4e078713          	addi	a4,a5,1248 # 4004e0 <_endtext+0x3fe510>
    1b00:	f7840793          	addi	a5,s0,-136
    1b04:	00070693          	mv	a3,a4
    1b08:	04800713          	li	a4,72
    1b0c:	00070613          	mv	a2,a4
    1b10:	00068593          	mv	a1,a3
    1b14:	00078513          	mv	a0,a5
    1b18:	390000ef          	jal	ra,1ea8 <memcpy>
    1b1c:	fc042e23          	sw	zero,-36(s0)
    1b20:	0400006f          	j	1b60 <main+0x704>
    1b24:	fdc42783          	lw	a5,-36(s0)
    1b28:	00279793          	slli	a5,a5,0x2
    1b2c:	ff040713          	addi	a4,s0,-16
    1b30:	00f707b3          	add	a5,a4,a5
    1b34:	f887a703          	lw	a4,-120(a5)
    1b38:	000017b7          	lui	a5,0x1
    1b3c:	e1078693          	addi	a3,a5,-496 # e10 <new_direction+0x70>
    1b40:	000017b7          	lui	a5,0x1
    1b44:	2c078613          	addi	a2,a5,704 # 12c0 <snake_game+0xf0>
    1b48:	fdc42583          	lw	a1,-36(s0)
    1b4c:	00070513          	mv	a0,a4
    1b50:	919fe0ef          	jal	ra,468 <draw_stick>
    1b54:	fdc42783          	lw	a5,-36(s0)
    1b58:	00178793          	addi	a5,a5,1
    1b5c:	fcf42e23          	sw	a5,-36(s0)
    1b60:	fdc42703          	lw	a4,-36(s0)
    1b64:	fc442783          	lw	a5,-60(s0)
    1b68:	faf74ee3          	blt	a4,a5,1b24 <main+0x6c8>
    1b6c:	8b9fe0ef          	jal	ra,424 <delay>
    1b70:	f7840713          	addi	a4,s0,-136
    1b74:	000017b7          	lui	a5,0x1
    1b78:	e1078693          	addi	a3,a5,-496 # e10 <new_direction+0x70>
    1b7c:	000017b7          	lui	a5,0x1
    1b80:	2c078613          	addi	a2,a5,704 # 12c0 <snake_game+0xf0>
    1b84:	fc442583          	lw	a1,-60(s0)
    1b88:	00070513          	mv	a0,a4
    1b8c:	a19fe0ef          	jal	ra,5a4 <bubbleSort>
    1b90:	895fe0ef          	jal	ra,424 <delay>
    1b94:	0000006f          	j	1b94 <main+0x738>
    1b98:	02c007b7          	lui	a5,0x2c00
    1b9c:	15078793          	addi	a5,a5,336 # 2c00150 <_stack+0x27fed50>
    1ba0:	0007a023          	sw	zero,0(a5)
    1ba4:	881fe0ef          	jal	ra,424 <delay>
    1ba8:	00100593          	li	a1,1
    1bac:	00100513          	li	a0,1
    1bb0:	fccfe0ef          	jal	ra,37c <set_cursor>
    1bb4:	004007b7          	lui	a5,0x400
    1bb8:	38078513          	addi	a0,a5,896 # 400380 <_endtext+0x3fe3b0>
    1bbc:	db8fe0ef          	jal	ra,174 <rvc_printf>
    1bc0:	004007b7          	lui	a5,0x400
    1bc4:	40878713          	addi	a4,a5,1032 # 400408 <_endtext+0x3fe438>
    1bc8:	f7840793          	addi	a5,s0,-136
    1bcc:	00070693          	mv	a3,a4
    1bd0:	04800713          	li	a4,72
    1bd4:	00070613          	mv	a2,a4
    1bd8:	00068593          	mv	a1,a3
    1bdc:	00078513          	mv	a0,a5
    1be0:	2c8000ef          	jal	ra,1ea8 <memcpy>
    1be4:	fc042c23          	sw	zero,-40(s0)
    1be8:	0380006f          	j	1c20 <main+0x7c4>
    1bec:	fd842783          	lw	a5,-40(s0)
    1bf0:	00279793          	slli	a5,a5,0x2
    1bf4:	ff040713          	addi	a4,s0,-16
    1bf8:	00f707b3          	add	a5,a4,a5
    1bfc:	f887a783          	lw	a5,-120(a5)
    1c00:	4b000693          	li	a3,1200
    1c04:	00000613          	li	a2,0
    1c08:	fd842583          	lw	a1,-40(s0)
    1c0c:	00078513          	mv	a0,a5
    1c10:	859fe0ef          	jal	ra,468 <draw_stick>
    1c14:	fd842783          	lw	a5,-40(s0)
    1c18:	00178793          	addi	a5,a5,1
    1c1c:	fcf42c23          	sw	a5,-40(s0)
    1c20:	fd842703          	lw	a4,-40(s0)
    1c24:	fc442783          	lw	a5,-60(s0)
    1c28:	fcf742e3          	blt	a4,a5,1bec <main+0x790>
    1c2c:	ff8fe0ef          	jal	ra,424 <delay>
    1c30:	f7840793          	addi	a5,s0,-136
    1c34:	4b000693          	li	a3,1200
    1c38:	00000613          	li	a2,0
    1c3c:	fc442583          	lw	a1,-60(s0)
    1c40:	00078513          	mv	a0,a5
    1c44:	aa9fe0ef          	jal	ra,6ec <insertionSort>
    1c48:	fdcfe0ef          	jal	ra,424 <delay>
    1c4c:	0000006f          	j	1c4c <main+0x7f0>
    1c50:	02c007b7          	lui	a5,0x2c00
    1c54:	15478793          	addi	a5,a5,340 # 2c00154 <_stack+0x27fed54>
    1c58:	0007a023          	sw	zero,0(a5)
    1c5c:	fc8fe0ef          	jal	ra,424 <delay>
    1c60:	02800593          	li	a1,40
    1c64:	03c00513          	li	a0,60
    1c68:	f14fe0ef          	jal	ra,37c <set_cursor>
    1c6c:	004007b7          	lui	a5,0x400
    1c70:	3a078513          	addi	a0,a5,928 # 4003a0 <_endtext+0x3fe3d0>
    1c74:	d00fe0ef          	jal	ra,174 <rvc_printf>
    1c78:	004007b7          	lui	a5,0x400
    1c7c:	45078713          	addi	a4,a5,1104 # 400450 <_endtext+0x3fe480>
    1c80:	f7840793          	addi	a5,s0,-136
    1c84:	00070693          	mv	a3,a4
    1c88:	04800713          	li	a4,72
    1c8c:	00070613          	mv	a2,a4
    1c90:	00068593          	mv	a1,a3
    1c94:	00078513          	mv	a0,a5
    1c98:	210000ef          	jal	ra,1ea8 <memcpy>
    1c9c:	fc042a23          	sw	zero,-44(s0)
    1ca0:	03c0006f          	j	1cdc <main+0x880>
    1ca4:	fd442783          	lw	a5,-44(s0)
    1ca8:	00279793          	slli	a5,a5,0x2
    1cac:	ff040713          	addi	a4,s0,-16
    1cb0:	00f707b3          	add	a5,a4,a5
    1cb4:	f887a703          	lw	a4,-120(a5)
    1cb8:	4b000693          	li	a3,1200
    1cbc:	000017b7          	lui	a5,0x1
    1cc0:	2e878613          	addi	a2,a5,744 # 12e8 <snake_game+0x118>
    1cc4:	fd442583          	lw	a1,-44(s0)
    1cc8:	00070513          	mv	a0,a4
    1ccc:	f9cfe0ef          	jal	ra,468 <draw_stick>
    1cd0:	fd442783          	lw	a5,-44(s0)
    1cd4:	00178793          	addi	a5,a5,1
    1cd8:	fcf42a23          	sw	a5,-44(s0)
    1cdc:	fd442703          	lw	a4,-44(s0)
    1ce0:	fc442783          	lw	a5,-60(s0)
    1ce4:	fcf740e3          	blt	a4,a5,1ca4 <main+0x848>
    1ce8:	f3cfe0ef          	jal	ra,424 <delay>
    1cec:	f7840713          	addi	a4,s0,-136
    1cf0:	4b000693          	li	a3,1200
    1cf4:	000017b7          	lui	a5,0x1
    1cf8:	2e878613          	addi	a2,a5,744 # 12e8 <snake_game+0x118>
    1cfc:	fc442583          	lw	a1,-60(s0)
    1d00:	00070513          	mv	a0,a4
    1d04:	9e9fe0ef          	jal	ra,6ec <insertionSort>
    1d08:	f1cfe0ef          	jal	ra,424 <delay>
    1d0c:	0000006f          	j	1d0c <main+0x8b0>
    1d10:	02c007b7          	lui	a5,0x2c00
    1d14:	15878793          	addi	a5,a5,344 # 2c00158 <_stack+0x27fed58>
    1d18:	0007a023          	sw	zero,0(a5)
    1d1c:	f08fe0ef          	jal	ra,424 <delay>
    1d20:	02800593          	li	a1,40
    1d24:	00100513          	li	a0,1
    1d28:	e54fe0ef          	jal	ra,37c <set_cursor>
    1d2c:	004007b7          	lui	a5,0x400
    1d30:	3c078513          	addi	a0,a5,960 # 4003c0 <_endtext+0x3fe3f0>
    1d34:	c40fe0ef          	jal	ra,174 <rvc_printf>
    1d38:	004007b7          	lui	a5,0x400
    1d3c:	49878713          	addi	a4,a5,1176 # 400498 <_endtext+0x3fe4c8>
    1d40:	f7840793          	addi	a5,s0,-136
    1d44:	00070693          	mv	a3,a4
    1d48:	04800713          	li	a4,72
    1d4c:	00070613          	mv	a2,a4
    1d50:	00068593          	mv	a1,a3
    1d54:	00078513          	mv	a0,a5
    1d58:	150000ef          	jal	ra,1ea8 <memcpy>
    1d5c:	fc042823          	sw	zero,-48(s0)
    1d60:	0380006f          	j	1d98 <main+0x93c>
    1d64:	fd042783          	lw	a5,-48(s0)
    1d68:	00279793          	slli	a5,a5,0x2
    1d6c:	ff040713          	addi	a4,s0,-16
    1d70:	00f707b3          	add	a5,a4,a5
    1d74:	f887a783          	lw	a5,-120(a5)
    1d78:	4b000693          	li	a3,1200
    1d7c:	02800613          	li	a2,40
    1d80:	fd042583          	lw	a1,-48(s0)
    1d84:	00078513          	mv	a0,a5
    1d88:	ee0fe0ef          	jal	ra,468 <draw_stick>
    1d8c:	fd042783          	lw	a5,-48(s0)
    1d90:	00178793          	addi	a5,a5,1
    1d94:	fcf42823          	sw	a5,-48(s0)
    1d98:	fd042703          	lw	a4,-48(s0)
    1d9c:	fc442783          	lw	a5,-60(s0)
    1da0:	fcf742e3          	blt	a4,a5,1d64 <main+0x908>
    1da4:	e80fe0ef          	jal	ra,424 <delay>
    1da8:	f7840793          	addi	a5,s0,-136
    1dac:	4b000693          	li	a3,1200
    1db0:	02800613          	li	a2,40
    1db4:	fc442583          	lw	a1,-60(s0)
    1db8:	00078513          	mv	a0,a5
    1dbc:	931fe0ef          	jal	ra,6ec <insertionSort>
    1dc0:	e64fe0ef          	jal	ra,424 <delay>
    1dc4:	0000006f          	j	1dc4 <main+0x968>
    1dc8:	02c007b7          	lui	a5,0x2c00
    1dcc:	15c78793          	addi	a5,a5,348 # 2c0015c <_stack+0x27fed5c>
    1dd0:	0007a023          	sw	zero,0(a5)
    1dd4:	e50fe0ef          	jal	ra,424 <delay>
    1dd8:	00100593          	li	a1,1
    1ddc:	03c00513          	li	a0,60
    1de0:	d9cfe0ef          	jal	ra,37c <set_cursor>
    1de4:	004007b7          	lui	a5,0x400
    1de8:	3e078513          	addi	a0,a5,992 # 4003e0 <_endtext+0x3fe410>
    1dec:	b88fe0ef          	jal	ra,174 <rvc_printf>
    1df0:	004007b7          	lui	a5,0x400
    1df4:	4e078713          	addi	a4,a5,1248 # 4004e0 <_endtext+0x3fe510>
    1df8:	f7840793          	addi	a5,s0,-136
    1dfc:	00070693          	mv	a3,a4
    1e00:	04800713          	li	a4,72
    1e04:	00070613          	mv	a2,a4
    1e08:	00068593          	mv	a1,a3
    1e0c:	00078513          	mv	a0,a5
    1e10:	098000ef          	jal	ra,1ea8 <memcpy>
    1e14:	fc042623          	sw	zero,-52(s0)
    1e18:	03c0006f          	j	1e54 <main+0x9f8>
    1e1c:	fcc42783          	lw	a5,-52(s0)
    1e20:	00279793          	slli	a5,a5,0x2
    1e24:	ff040713          	addi	a4,s0,-16
    1e28:	00f707b3          	add	a5,a4,a5
    1e2c:	f887a703          	lw	a4,-120(a5)
    1e30:	4b000693          	li	a3,1200
    1e34:	000017b7          	lui	a5,0x1
    1e38:	2c078613          	addi	a2,a5,704 # 12c0 <snake_game+0xf0>
    1e3c:	fcc42583          	lw	a1,-52(s0)
    1e40:	00070513          	mv	a0,a4
    1e44:	e24fe0ef          	jal	ra,468 <draw_stick>
    1e48:	fcc42783          	lw	a5,-52(s0)
    1e4c:	00178793          	addi	a5,a5,1
    1e50:	fcf42623          	sw	a5,-52(s0)
    1e54:	fcc42703          	lw	a4,-52(s0)
    1e58:	fc442783          	lw	a5,-60(s0)
    1e5c:	fcf740e3          	blt	a4,a5,1e1c <main+0x9c0>
    1e60:	dc4fe0ef          	jal	ra,424 <delay>
    1e64:	f7840713          	addi	a4,s0,-136
    1e68:	4b000693          	li	a3,1200
    1e6c:	000017b7          	lui	a5,0x1
    1e70:	2c078613          	addi	a2,a5,704 # 12c0 <snake_game+0xf0>
    1e74:	fc442583          	lw	a1,-60(s0)
    1e78:	00070513          	mv	a0,a4
    1e7c:	871fe0ef          	jal	ra,6ec <insertionSort>
    1e80:	da4fe0ef          	jal	ra,424 <delay>
    1e84:	0000006f          	j	1e84 <main+0xa28>
    1e88:	0000006f          	j	1e88 <main+0xa2c>
    1e8c:	00000013          	nop
    1e90:	00000793          	li	a5,0
    1e94:	00078513          	mv	a0,a5
    1e98:	08c12083          	lw	ra,140(sp)
    1e9c:	08812403          	lw	s0,136(sp)
    1ea0:	09010113          	addi	sp,sp,144
    1ea4:	00008067          	ret

00001ea8 <memcpy>:
    1ea8:	00a5c7b3          	xor	a5,a1,a0
    1eac:	0037f793          	andi	a5,a5,3
    1eb0:	00c508b3          	add	a7,a0,a2
    1eb4:	06079663          	bnez	a5,1f20 <memcpy+0x78>
    1eb8:	00300793          	li	a5,3
    1ebc:	06c7f263          	bgeu	a5,a2,1f20 <memcpy+0x78>
    1ec0:	00357793          	andi	a5,a0,3
    1ec4:	00050713          	mv	a4,a0
    1ec8:	0c079a63          	bnez	a5,1f9c <memcpy+0xf4>
    1ecc:	ffc8f613          	andi	a2,a7,-4
    1ed0:	40e606b3          	sub	a3,a2,a4
    1ed4:	02000793          	li	a5,32
    1ed8:	02000293          	li	t0,32
    1edc:	06d7c263          	blt	a5,a3,1f40 <memcpy+0x98>
    1ee0:	00058693          	mv	a3,a1
    1ee4:	00070793          	mv	a5,a4
    1ee8:	02c77863          	bgeu	a4,a2,1f18 <memcpy+0x70>
    1eec:	0006a803          	lw	a6,0(a3)
    1ef0:	00478793          	addi	a5,a5,4
    1ef4:	00468693          	addi	a3,a3,4
    1ef8:	ff07ae23          	sw	a6,-4(a5)
    1efc:	fec7e8e3          	bltu	a5,a2,1eec <memcpy+0x44>
    1f00:	fff60793          	addi	a5,a2,-1
    1f04:	40e787b3          	sub	a5,a5,a4
    1f08:	ffc7f793          	andi	a5,a5,-4
    1f0c:	00478793          	addi	a5,a5,4
    1f10:	00f70733          	add	a4,a4,a5
    1f14:	00f585b3          	add	a1,a1,a5
    1f18:	01176863          	bltu	a4,a7,1f28 <memcpy+0x80>
    1f1c:	00008067          	ret
    1f20:	00050713          	mv	a4,a0
    1f24:	ff157ce3          	bgeu	a0,a7,1f1c <memcpy+0x74>
    1f28:	0005c783          	lbu	a5,0(a1)
    1f2c:	00170713          	addi	a4,a4,1
    1f30:	00158593          	addi	a1,a1,1
    1f34:	fef70fa3          	sb	a5,-1(a4)
    1f38:	ff1768e3          	bltu	a4,a7,1f28 <memcpy+0x80>
    1f3c:	00008067          	ret
    1f40:	0045a683          	lw	a3,4(a1)
    1f44:	01c5a783          	lw	a5,28(a1)
    1f48:	0005af83          	lw	t6,0(a1)
    1f4c:	0085af03          	lw	t5,8(a1)
    1f50:	00c5ae83          	lw	t4,12(a1)
    1f54:	0105ae03          	lw	t3,16(a1)
    1f58:	0145a303          	lw	t1,20(a1)
    1f5c:	0185a803          	lw	a6,24(a1)
    1f60:	00d72223          	sw	a3,4(a4)
    1f64:	0205a683          	lw	a3,32(a1)
    1f68:	01f72023          	sw	t6,0(a4)
    1f6c:	01e72423          	sw	t5,8(a4)
    1f70:	01d72623          	sw	t4,12(a4)
    1f74:	01c72823          	sw	t3,16(a4)
    1f78:	00672a23          	sw	t1,20(a4)
    1f7c:	01072c23          	sw	a6,24(a4)
    1f80:	00f72e23          	sw	a5,28(a4)
    1f84:	02470713          	addi	a4,a4,36
    1f88:	40e607b3          	sub	a5,a2,a4
    1f8c:	fed72e23          	sw	a3,-4(a4)
    1f90:	02458593          	addi	a1,a1,36
    1f94:	faf2c6e3          	blt	t0,a5,1f40 <memcpy+0x98>
    1f98:	f49ff06f          	j	1ee0 <memcpy+0x38>
    1f9c:	0005c683          	lbu	a3,0(a1)
    1fa0:	00170713          	addi	a4,a4,1
    1fa4:	00377793          	andi	a5,a4,3
    1fa8:	fed70fa3          	sb	a3,-1(a4)
    1fac:	00158593          	addi	a1,a1,1
    1fb0:	f0078ee3          	beqz	a5,1ecc <memcpy+0x24>
    1fb4:	0005c683          	lbu	a3,0(a1)
    1fb8:	00170713          	addi	a4,a4,1
    1fbc:	00377793          	andi	a5,a4,3
    1fc0:	fed70fa3          	sb	a3,-1(a4)
    1fc4:	00158593          	addi	a1,a1,1
    1fc8:	fc079ae3          	bnez	a5,1f9c <memcpy+0xf4>
    1fcc:	f01ff06f          	j	1ecc <memcpy+0x24>
