
out/release/rv32i/ilp32/bin/prime_factoring:     file format elf32-littleriscv


Disassembly of section .text:

00000000 <_start>:
   0:	00000013          	nop
   4:	00000013          	nop
   8:	00000013          	nop
   c:	00000013          	nop
  10:	00000013          	nop
  14:	00000093          	li	ra,0
  18:	00000113          	li	sp,0
  1c:	00000193          	li	gp,0
  20:	00000213          	li	tp,0
  24:	00000293          	li	t0,0
  28:	00000313          	li	t1,0
  2c:	00000393          	li	t2,0
  30:	00000413          	li	s0,0
  34:	00000493          	li	s1,0
  38:	00000513          	li	a0,0
  3c:	00000593          	li	a1,0
  40:	00000613          	li	a2,0
  44:	00000693          	li	a3,0
  48:	00000713          	li	a4,0
  4c:	00000793          	li	a5,0
  50:	00000813          	li	a6,0
  54:	00000893          	li	a7,0
  58:	00000913          	li	s2,0
  5c:	00000993          	li	s3,0
  60:	00000a13          	li	s4,0
  64:	00000a93          	li	s5,0
  68:	00000b13          	li	s6,0
  6c:	00000b93          	li	s7,0
  70:	00000c13          	li	s8,0
  74:	00000c93          	li	s9,0
  78:	00000d13          	li	s10,0
  7c:	00000d93          	li	s11,0
  80:	00000e13          	li	t3,0
  84:	00000e93          	li	t4,0
  88:	00000f13          	li	t5,0
  8c:	00000f93          	li	t6,0

00000090 <read_tid>:
  90:	00c002b7          	lui	t0,0xc00
  94:	0042a283          	lw	t0,4(t0) # c00004 <gpc_wait_for_non_zero+0xbffcf0>

00000098 <init_stack>:
  98:	07000593          	li	a1,112
  9c:	00128613          	addi	a2,t0,1
  a0:	0c8000ef          	jal	ra,168 <init_multiply>
  a4:	00400637          	lui	a2,0x400
  a8:	64060613          	addi	a2,a2,1600 # 400640 <gpc_wait_for_non_zero+0x40032c>
  ac:	00c50133          	add	sp,a0,a2
  b0:	00010413          	mv	s0,sp

000000b4 <init_gpc_params>:
  b4:	02000593          	li	a1,32
  b8:	00028613          	mv	a2,t0
  bc:	0ac000ef          	jal	ra,168 <init_multiply>
  c0:	004006b7          	lui	a3,0x400
  c4:	00a686b3          	add	a3,a3,a0
  c8:	0056a023          	sw	t0,0(a3) # 400000 <gpc_wait_for_non_zero+0x3ffcec>
  cc:	00400337          	lui	t1,0x400
  d0:	08030313          	addi	t1,t1,128 # 400080 <gpc_wait_for_non_zero+0x3ffd6c>
  d4:	0066a223          	sw	t1,4(a3)
  d8:	08000313          	li	t1,128
  dc:	0066a423          	sw	t1,8(a3)
  e0:	15000593          	li	a1,336
  e4:	00028613          	mv	a2,t0
  e8:	080000ef          	jal	ra,168 <init_multiply>
  ec:	00400337          	lui	t1,0x400
  f0:	10030313          	addi	t1,t1,256 # 400100 <gpc_wait_for_non_zero+0x3ffdec>
  f4:	00a30333          	add	t1,t1,a0
  f8:	0066a623          	sw	t1,12(a3)
  fc:	15000313          	li	t1,336
 100:	0066a823          	sw	t1,16(a3)
 104:	01400313          	li	t1,20
 108:	02000393          	li	t2,32

0000010c <reserved_init_loop>:
 10c:	00668533          	add	a0,a3,t1
 110:	00052023          	sw	zero,0(a0)
 114:	00430313          	addi	t1,t1,4
 118:	fe734ae3          	blt	t1,t2,10c <reserved_init_loop>

0000011c <init_gp>:
 11c:	0046a183          	lw	gp,4(a3)

00000120 <init_tp>:
 120:	00c6a203          	lw	tp,12(a3)

00000124 <is_bootstrap_thread>:
 124:	00000393          	li	t2,0
 128:	00728a63          	beq	t0,t2,13c <bootstrap_thread>

0000012c <non_bootstrap_thread_wait>:
 12c:	00c00337          	lui	t1,0xc00
 130:	20032383          	lw	t2,512(t1) # c00200 <gpc_wait_for_non_zero+0xbffeec>
 134:	fe038ce3          	beqz	t2,12c <non_bootstrap_thread_wait>
 138:	0180006f          	j	150 <global_setup_done>

0000013c <bootstrap_thread>:
 13c:	00068513          	mv	a0,a3
 140:	040000ef          	jal	ra,180 <gpc_global_setup>
 144:	00c00337          	lui	t1,0xc00
 148:	00100393          	li	t2,1
 14c:	20732023          	sw	t2,512(t1) # c00200 <gpc_wait_for_non_zero+0xbffeec>

00000150 <global_setup_done>:
 150:	00068513          	mv	a0,a3
 154:	064000ef          	jal	ra,1b8 <gpc_local_setup>

00000158 <exec_loop>:
 158:	00068513          	mv	a0,a3
 15c:	0c8000ef          	jal	ra,224 <gpc_loop>
 160:	ff9ff06f          	j	158 <exec_loop>

00000164 <unreachable>:
 164:	00100073          	ebreak

00000168 <init_multiply>:
 168:	00000513          	li	a0,0
 16c:	00060863          	beqz	a2,17c <init_multiply_end>

00000170 <init_multiply_loop>:
 170:	00b50533          	add	a0,a0,a1
 174:	fff60613          	addi	a2,a2,-1
 178:	fe061ce3          	bnez	a2,170 <init_multiply_loop>

0000017c <init_multiply_end>:
 17c:	00008067          	ret

00000180 <gpc_global_setup>:
 180:	ff010113          	addi	sp,sp,-16
 184:	00812423          	sw	s0,8(sp)
 188:	00452403          	lw	s0,4(a0)
 18c:	00000613          	li	a2,0
 190:	01400593          	li	a1,20
 194:	00040513          	mv	a0,s0
 198:	00112623          	sw	ra,12(sp)
 19c:	160000ef          	jal	ra,2fc <gpc_memset>
 1a0:	3e500793          	li	a5,997
 1a4:	00c12083          	lw	ra,12(sp)
 1a8:	00f42023          	sw	a5,0(s0)
 1ac:	00812403          	lw	s0,8(sp)
 1b0:	01010113          	addi	sp,sp,16
 1b4:	00008067          	ret

000001b8 <gpc_local_setup>:
 1b8:	ff010113          	addi	sp,sp,-16
 1bc:	00912223          	sw	s1,4(sp)
 1c0:	00c52483          	lw	s1,12(a0)
 1c4:	00812423          	sw	s000001300,8(sp)
 1c8:	00000613          	li	a2,0
 1cc:	00050413          	mv	s0,a0
 1d0:	00800593          	li	a1,8
 1d4:	00048513          	mv	a0,s1
 1d8:	01212023          	sw	s2,0(sp)
 1dc:	00112623          	sw	ra,12(sp)
 1e0:	00442903          	lw	s2,4(s0)
 1e4:	118000ef          	jal	ra,2fc <gpc_memset>
 1e8:	00042703          	lw	a4,0(s0)
 1ec:	02070063          	beqz	a4,20c <gpc_local_setup+0x54>
 1f0:	00092783          	lw	a5,0(s2)
 1f4:	00300693          	li	a3,3
 1f8:	00d4a223          	sw	a3,4(s1)
 1fc:	0017d793          	srli	a5,a5,0x1
 200:	40e787b3          	sub	a5,a5,a4
 204:	00178793          	addi	a5,a5,1
 208:	00f4a023          	sw	a5,0(s1)
 20c:	00c12083          	lw	ra,12(sp)
 210:	00812403          	lw	s0,8(sp)
 214:	00412483          	lw	s1,4(sp)
 218:	00012903          	lw	s2,0(sp)
 21c:	01010113          	addi	sp,sp,16
 220:	00008067          	ret

00000224 <gpc_loop>:
 224:	00052783          	lw	a5,0(a0)
 228:	00452603          	lw	a2,4(a0)
 22c:	04079e63          	bnez	a5,288 <gpc_loop+0x64>
 230:	00c62783          	lw	a5,12(a2)
 234:	00862683          	lw	a3,8(a2)
 238:	01062703          	lw	a4,16(a2)
 23c:	0017f593          	andi	a1,a5,1
 240:	0036f693          	andi	a3,a3,3
 244:	00b6e6b3          	or	a3,a3,a1
 248:	0027f793          	andi	a5,a5,2
 24c:	00177593          	andi	a1,a4,1
 250:	0016c693          	xori	a3,a3,1
 254:	00d7e6b3          	or	a3,a5,a3
 258:	fff5c793          	not	a5,a1
 25c:	00d7f6b3          	and	a3,a5,a3
 260:	00462583          	lw	a1,4(a2)
 264:	00277793          	andi	a5,a4,2
 268:	00d7e7b3          	or	a5,a5,a3
 26c:	0027f713          	andi	a4,a5,2
 270:	fff7c793          	not	a5,a5
 274:	00b76733          	or	a4,a4,a1
 278:	0017f793          	andi	a5,a5,1
 27c:	00f767b3          	or	a5,a4,a5
 280:	00f62223          	sw	a5,4(a2)
 284:	00008067          	ret
 288:	00c52503          	lw	a0,12(a0)
 28c:	00279793          	slli	a5,a5,0x2
 290:	00f606b3          	add	a3,a2,a5
 294:	00052703          	lw	a4,0(a0)
 298:	00100793          	li	a5,1
 29c:	0046a583          	lw	a1,4(a3)
 2a0:	02e7fa63          	bgeu	a5,a4,2d4 <gpc_loop+0xb0>
 2a4:	0015f793          	andi	a5,a1,1
 2a8:	04079863          	bnez	a5,2f8 <gpc_loop+0xd4>
 2ac:	00062783          	lw	a5,0(a2)
 2b0:	02f77863          	bgeu	a4,a5,2e0 <gpc_loop+0xbc>
 2b4:	40e787b3          	sub	a5,a5,a4
 2b8:	fef76ee3          	bltu	a4,a5,2b4 <gpc_loop+0x90>
 2bc:	00452783          	lw	a5,4(a0)
 2c0:	0035e593          	ori	a1,a1,3
 2c4:	00b6a223          	sw	a1,4(a3)
 2c8:	02f77263          	bgeu	a4,a5,2ec <gpc_loop+0xc8>
 2cc:	00052023          	sw	zero,0(a0)
 2d0:	00008067          	ret
 2d4:	0015e593          	ori	a1,a1,1
 2d8:	00b6a223          	sw	a1,4(a3)
 2dc:	00008067          	ret
 2e0:	fc079ee3          	bnez	a5,2bc <gpc_loop+0x98>
 2e4:	00452783          	lw	a5,4(a0)
 2e8:	fef762e3          	bltu	a4,a5,2cc <gpc_loop+0xa8>
 2ec:	40f70733          	sub	a4,a4,a5
 2f0:	00e52023          	sw	a4,0(a0)
 2f4:	00008067          	ret
 2f8:	00008067          	ret

000002fc <gpc_memset>:
 2fc:	00058a63          	beqz	a1,310 <gpc_memset+0x14>
 300:	00b505b3          	add	a1,a0,a1
 304:	00c52023          	sw	a2,0(a0)
 308:	00450513          	addi	a0,a0,4
 30c:	feb51ce3          	bne	a0,a1,304 <gpc_memset+0x8>
 310:	00008067          	ret

00000314 <gpc_wait_for_non_zero>:
 314:	00052783          	lw	a5,0(a0)
 318:	fe078ee3          	beqz	a5,314 <gpc_wait_for_non_zero>
 31c:	00052503          	lw	a0,0(a0)
 320:	00008067          	ret
	...
