
sorting_VGA_rv32i.elf:     file format elf32-littleriscv


Disassembly of section .vectors:

00000000 <reset_handler-0x18>:
   0:	00000013          	nop
   4:	00000013          	nop
   8:	00000013          	nop
   c:	00000013          	nop
  10:	00000013          	nop
  14:	0040006f          	j	18 <reset_handler>

00000018 <reset_handler>:
  18:	00000093          	li	ra,0
  1c:	00008113          	mv	sp,ra
  20:	00008193          	mv	gp,ra
  24:	00008213          	mv	tp,ra
  28:	00008293          	mv	t0,ra
  2c:	00008313          	mv	t1,ra
  30:	00008393          	mv	t2,ra
  34:	00008413          	mv	s0,ra
  38:	00008493          	mv	s1,ra
  3c:	00008513          	mv	a0,ra
  40:	00008593          	mv	a1,ra
  44:	00008613          	mv	a2,ra
  48:	00008693          	mv	a3,ra
  4c:	00008713          	mv	a4,ra
  50:	00008793          	mv	a5,ra
  54:	00008813          	mv	a6,ra
  58:	00008893          	mv	a7,ra
  5c:	00008913          	mv	s2,ra
  60:	00008993          	mv	s3,ra
  64:	00008a13          	mv	s4,ra
  68:	00008a93          	mv	s5,ra
  6c:	00008b13          	mv	s6,ra
  70:	00008b93          	mv	s7,ra
  74:	00008c13          	mv	s8,ra
  78:	00008c93          	mv	s9,ra
  7c:	00008d13          	mv	s10,ra
  80:	00008d93          	mv	s11,ra
  84:	00008e13          	mv	t3,ra
  88:	00008e93          	mv	t4,ra
  8c:	00008f13          	mv	t5,ra
  90:	00008f93          	mv	t6,ra
  94:	00c002b7          	lui	t0,0xc00
  98:	00c28293          	addi	t0,t0,12 # c0000c <_bss_end+0x7ff80c>
  9c:	0002a103          	lw	sp,0(t0)
  a0:	561000ef          	jal	ra,e00 <main>
  a4:	00100073          	ebreak

Disassembly of section .text:

000000a8 <delay>:
  a8:	fe010113          	addi	sp,sp,-32
  ac:	00812e23          	sw	s0,28(sp)
  b0:	02010413          	addi	s0,sp,32
  b4:	fe042623          	sw	zero,-20(s0)
  b8:	0100006f          	j	c8 <delay+0x20>
  bc:	fec42783          	lw	a5,-20(s0)
  c0:	00178793          	addi	a5,a5,1
  c4:	fef42623          	sw	a5,-20(s0)
  c8:	fec42703          	lw	a4,-20(s0)
  cc:	000147b7          	lui	a5,0x14
  d0:	87f78793          	addi	a5,a5,-1921 # 1387f <_endtext+0x12883>
  d4:	fee7d4e3          	bge	a5,a4,bc <delay+0x14>
  d8:	00000013          	nop
  dc:	00000013          	nop
  e0:	01c12403          	lw	s0,28(sp)
  e4:	02010113          	addi	sp,sp,32
  e8:	00008067          	ret

000000ec <draw_stick>:
  ec:	fc010113          	addi	sp,sp,-64
  f0:	02812e23          	sw	s0,60(sp)
  f4:	04010413          	addi	s0,sp,64
  f8:	fca42623          	sw	a0,-52(s0)
  fc:	fcb42423          	sw	a1,-56(s0)
 100:	fcc42223          	sw	a2,-60(s0)
 104:	fc842783          	lw	a5,-56(s0)
 108:	14178793          	addi	a5,a5,321
 10c:	00179793          	slli	a5,a5,0x1
 110:	fc442703          	lw	a4,-60(s0)
 114:	00f707b3          	add	a5,a4,a5
 118:	fef42223          	sw	a5,-28(s0)
 11c:	000017b7          	lui	a5,0x1
 120:	e1078793          	addi	a5,a5,-496 # e10 <main+0x10>
 124:	fef42023          	sw	a5,-32(s0)
 128:	00100793          	li	a5,1
 12c:	fcf42e23          	sw	a5,-36(s0)
 130:	fcc42703          	lw	a4,-52(s0)
 134:	00070793          	mv	a5,a4
 138:	00279793          	slli	a5,a5,0x2
 13c:	00e787b3          	add	a5,a5,a4
 140:	00479793          	slli	a5,a5,0x4
 144:	00178793          	addi	a5,a5,1
 148:	fcf42c23          	sw	a5,-40(s0)
 14c:	fe042623          	sw	zero,-20(s0)
 150:	0340006f          	j	184 <_min_stack+0x84>
 154:	fe442703          	lw	a4,-28(s0)
 158:	fec42783          	lw	a5,-20(s0)
 15c:	40f70733          	sub	a4,a4,a5
 160:	fe042783          	lw	a5,-32(s0)
 164:	00f707b3          	add	a5,a4,a5
 168:	00279713          	slli	a4,a5,0x2
 16c:	034007b7          	lui	a5,0x3400
 170:	00f707b3          	add	a5,a4,a5
 174:	0007a023          	sw	zero,0(a5) # 3400000 <_bss_end+0x2fff800>
 178:	fec42783          	lw	a5,-20(s0)
 17c:	05078793          	addi	a5,a5,80
 180:	fef42623          	sw	a5,-20(s0)
 184:	fec42703          	lw	a4,-20(s0)
 188:	000017b7          	lui	a5,0x1
 18c:	96078793          	addi	a5,a5,-1696 # 960 <merge+0xa0>
 190:	fce7d2e3          	bge	a5,a4,154 <_min_stack+0x54>
 194:	fe042423          	sw	zero,-24(s0)
 198:	0380006f          	j	1d0 <_min_stack+0xd0>
 19c:	fe442703          	lw	a4,-28(s0)
 1a0:	fe842783          	lw	a5,-24(s0)
 1a4:	40f70733          	sub	a4,a4,a5
 1a8:	fe042783          	lw	a5,-32(s0)
 1ac:	00f707b3          	add	a5,a4,a5
 1b0:	00279713          	slli	a4,a5,0x2
 1b4:	034007b7          	lui	a5,0x3400
 1b8:	00f707b3          	add	a5,a4,a5
 1bc:	fff00713          	li	a4,-1
 1c0:	00e7a023          	sw	a4,0(a5) # 3400000 <_bss_end+0x2fff800>
 1c4:	fe842783          	lw	a5,-24(s0)
 1c8:	05078793          	addi	a5,a5,80
 1cc:	fef42423          	sw	a5,-24(s0)
 1d0:	fe842703          	lw	a4,-24(s0)
 1d4:	fd842783          	lw	a5,-40(s0)
 1d8:	fcf742e3          	blt	a4,a5,19c <_min_stack+0x9c>
 1dc:	00000793          	li	a5,0
 1e0:	00078513          	mv	a0,a5
 1e4:	03c12403          	lw	s0,60(sp)
 1e8:	04010113          	addi	sp,sp,64
 1ec:	00008067          	ret

000001f0 <swap>:
 1f0:	fd010113          	addi	sp,sp,-48
 1f4:	02812623          	sw	s0,44(sp)
 1f8:	03010413          	addi	s0,sp,48
 1fc:	fca42e23          	sw	a0,-36(s0)
 200:	fcb42c23          	sw	a1,-40(s0)
 204:	fdc42783          	lw	a5,-36(s0)
 208:	0007a783          	lw	a5,0(a5)
 20c:	fef42623          	sw	a5,-20(s0)
 210:	fd842783          	lw	a5,-40(s0)
 214:	0007a703          	lw	a4,0(a5)
 218:	fdc42783          	lw	a5,-36(s0)
 21c:	00e7a023          	sw	a4,0(a5)
 220:	fd842783          	lw	a5,-40(s0)
 224:	fec42703          	lw	a4,-20(s0)
 228:	00e7a023          	sw	a4,0(a5)
 22c:	00000013          	nop
 230:	02c12403          	lw	s0,44(sp)
 234:	03010113          	addi	sp,sp,48
 238:	00008067          	ret

0000023c <bubbleSort>:
 23c:	fd010113          	addi	sp,sp,-48
 240:	02112623          	sw	ra,44(sp)
 244:	02812423          	sw	s0,40(sp)
 248:	03010413          	addi	s0,sp,48
 24c:	fca42e23          	sw	a0,-36(s0)
 250:	fcb42c23          	sw	a1,-40(s0)
 254:	fe042623          	sw	zero,-20(s0)
 258:	0f40006f          	j	34c <bubbleSort+0x110>
 25c:	fe042423          	sw	zero,-24(s0)
 260:	0c80006f          	j	328 <bubbleSort+0xec>
 264:	fe842783          	lw	a5,-24(s0)
 268:	00279793          	slli	a5,a5,0x2
 26c:	fdc42703          	lw	a4,-36(s0)
 270:	00f707b3          	add	a5,a4,a5
 274:	0007a703          	lw	a4,0(a5)
 278:	fe842783          	lw	a5,-24(s0)
 27c:	00178793          	addi	a5,a5,1
 280:	00279793          	slli	a5,a5,0x2
 284:	fdc42683          	lw	a3,-36(s0)
 288:	00f687b3          	add	a5,a3,a5
 28c:	0007a783          	lw	a5,0(a5)
 290:	08e7d663          	bge	a5,a4,31c <bubbleSort+0xe0>
 294:	fe842783          	lw	a5,-24(s0)
 298:	00279793          	slli	a5,a5,0x2
 29c:	fdc42703          	lw	a4,-36(s0)
 2a0:	00f706b3          	add	a3,a4,a5
 2a4:	fe842783          	lw	a5,-24(s0)
 2a8:	00178793          	addi	a5,a5,1
 2ac:	00279793          	slli	a5,a5,0x2
 2b0:	fdc42703          	lw	a4,-36(s0)
 2b4:	00f707b3          	add	a5,a4,a5
 2b8:	00078593          	mv	a1,a5
 2bc:	00068513          	mv	a0,a3
 2c0:	f31ff0ef          	jal	ra,1f0 <swap>
 2c4:	fe842783          	lw	a5,-24(s0)
 2c8:	00279793          	slli	a5,a5,0x2
 2cc:	fdc42703          	lw	a4,-36(s0)
 2d0:	00f707b3          	add	a5,a4,a5
 2d4:	0007a783          	lw	a5,0(a5)
 2d8:	02800613          	li	a2,40
 2dc:	fe842583          	lw	a1,-24(s0)
 2e0:	00078513          	mv	a0,a5
 2e4:	e09ff0ef          	jal	ra,ec <draw_stick>
 2e8:	fe842783          	lw	a5,-24(s0)
 2ec:	00178793          	addi	a5,a5,1
 2f0:	00279793          	slli	a5,a5,0x2
 2f4:	fdc42703          	lw	a4,-36(s0)
 2f8:	00f707b3          	add	a5,a4,a5
 2fc:	0007a703          	lw	a4,0(a5)
 300:	fe842783          	lw	a5,-24(s0)
 304:	00178793          	addi	a5,a5,1
 308:	02800613          	li	a2,40
 30c:	00078593          	mv	a1,a5
 310:	00070513          	mv	a0,a4
 314:	dd9ff0ef          	jal	ra,ec <draw_stick>
 318:	d91ff0ef          	jal	ra,a8 <delay>
 31c:	fe842783          	lw	a5,-24(s0)
 320:	00178793          	addi	a5,a5,1
 324:	fef42423          	sw	a5,-24(s0)
 328:	fd842703          	lw	a4,-40(s0)
 32c:	fec42783          	lw	a5,-20(s0)
 330:	40f707b3          	sub	a5,a4,a5
 334:	fff78793          	addi	a5,a5,-1
 338:	fe842703          	lw	a4,-24(s0)
 33c:	f2f744e3          	blt	a4,a5,264 <bubbleSort+0x28>
 340:	fec42783          	lw	a5,-20(s0)
 344:	00178793          	addi	a5,a5,1
 348:	fef42623          	sw	a5,-20(s0)
 34c:	fd842783          	lw	a5,-40(s0)
 350:	fff78793          	addi	a5,a5,-1
 354:	fec42703          	lw	a4,-20(s0)
 358:	f0f742e3          	blt	a4,a5,25c <bubbleSort+0x20>
 35c:	00000013          	nop
 360:	00000013          	nop
 364:	02c12083          	lw	ra,44(sp)
 368:	02812403          	lw	s0,40(sp)
 36c:	03010113          	addi	sp,sp,48
 370:	00008067          	ret

00000374 <partition>:
 374:	fd010113          	addi	sp,sp,-48
 378:	02112623          	sw	ra,44(sp)
 37c:	02812423          	sw	s0,40(sp)
 380:	03010413          	addi	s0,sp,48
 384:	fca42e23          	sw	a0,-36(s0)
 388:	fcb42c23          	sw	a1,-40(s0)
 38c:	fcc42a23          	sw	a2,-44(s0)
 390:	fd442783          	lw	a5,-44(s0)
 394:	00279793          	slli	a5,a5,0x2
 398:	fdc42703          	lw	a4,-36(s0)
 39c:	00f707b3          	add	a5,a4,a5
 3a0:	0007a783          	lw	a5,0(a5)
 3a4:	fef42223          	sw	a5,-28(s0)
 3a8:	fd842783          	lw	a5,-40(s0)
 3ac:	fff78793          	addi	a5,a5,-1
 3b0:	fef42623          	sw	a5,-20(s0)
 3b4:	fd842783          	lw	a5,-40(s0)
 3b8:	fef42423          	sw	a5,-24(s0)
 3bc:	0dc0006f          	j	498 <partition+0x124>
 3c0:	fe842783          	lw	a5,-24(s0)
 3c4:	00279793          	slli	a5,a5,0x2
 3c8:	fdc42703          	lw	a4,-36(s0)
 3cc:	00f707b3          	add	a5,a4,a5
 3d0:	0007a783          	lw	a5,0(a5)
 3d4:	fe442703          	lw	a4,-28(s0)
 3d8:	0af74a63          	blt	a4,a5,48c <partition+0x118>
 3dc:	fec42783          	lw	a5,-20(s0)
 3e0:	00178793          	addi	a5,a5,1
 3e4:	fef42623          	sw	a5,-20(s0)
 3e8:	fec42783          	lw	a5,-20(s0)
 3ec:	00279793          	slli	a5,a5,0x2
 3f0:	fdc42703          	lw	a4,-36(s0)
 3f4:	00f706b3          	add	a3,a4,a5
 3f8:	fe842783          	lw	a5,-24(s0)
 3fc:	00279793          	slli	a5,a5,0x2
 400:	fdc42703          	lw	a4,-36(s0)
 404:	00f707b3          	add	a5,a4,a5
 408:	00078593          	mv	a1,a5
 40c:	00068513          	mv	a0,a3
 410:	de1ff0ef          	jal	ra,1f0 <swap>
 414:	fec42783          	lw	a5,-20(s0)
 418:	00279793          	slli	a5,a5,0x2
 41c:	fdc42703          	lw	a4,-36(s0)
 420:	00f707b3          	add	a5,a4,a5
 424:	0007a783          	lw	a5,0(a5)
 428:	00000613          	li	a2,0
 42c:	fec42583          	lw	a1,-20(s0)
 430:	00078513          	mv	a0,a5
 434:	cb9ff0ef          	jal	ra,ec <draw_stick>
 438:	fe842783          	lw	a5,-24(s0)
 43c:	00279793          	slli	a5,a5,0x2
 440:	fdc42703          	lw	a4,-36(s0)
 444:	00f707b3          	add	a5,a4,a5
 448:	0007a783          	lw	a5,0(a5)
 44c:	00000613          	li	a2,0
 450:	fe842583          	lw	a1,-24(s0)
 454:	00078513          	mv	a0,a5
 458:	c95ff0ef          	jal	ra,ec <draw_stick>
 45c:	fec42783          	lw	a5,-20(s0)
 460:	00279793          	slli	a5,a5,0x2
 464:	fdc42703          	lw	a4,-36(s0)
 468:	00f707b3          	add	a5,a4,a5
 46c:	0007a703          	lw	a4,0(a5)
 470:	fe842783          	lw	a5,-24(s0)
 474:	00279793          	slli	a5,a5,0x2
 478:	fdc42683          	lw	a3,-36(s0)
 47c:	00f687b3          	add	a5,a3,a5
 480:	0007a783          	lw	a5,0(a5)
 484:	00f70463          	beq	a4,a5,48c <partition+0x118>
 488:	c21ff0ef          	jal	ra,a8 <delay>
 48c:	fe842783          	lw	a5,-24(s0)
 490:	00178793          	addi	a5,a5,1
 494:	fef42423          	sw	a5,-24(s0)
 498:	fd442703          	lw	a4,-44(s0)
 49c:	fe842783          	lw	a5,-24(s0)
 4a0:	f2e7c0e3          	blt	a5,a4,3c0 <partition+0x4c>
 4a4:	fec42783          	lw	a5,-20(s0)
 4a8:	00178793          	addi	a5,a5,1
 4ac:	00279793          	slli	a5,a5,0x2
 4b0:	fdc42703          	lw	a4,-36(s0)
 4b4:	00f706b3          	add	a3,a4,a5
 4b8:	fd442783          	lw	a5,-44(s0)
 4bc:	00279793          	slli	a5,a5,0x2
 4c0:	fdc42703          	lw	a4,-36(s0)
 4c4:	00f707b3          	add	a5,a4,a5
 4c8:	00078593          	mv	a1,a5
 4cc:	00068513          	mv	a0,a3
 4d0:	d21ff0ef          	jal	ra,1f0 <swap>
 4d4:	fec42783          	lw	a5,-20(s0)
 4d8:	00178793          	addi	a5,a5,1
 4dc:	00279793          	slli	a5,a5,0x2
 4e0:	fdc42703          	lw	a4,-36(s0)
 4e4:	00f707b3          	add	a5,a4,a5
 4e8:	0007a703          	lw	a4,0(a5)
 4ec:	fec42783          	lw	a5,-20(s0)
 4f0:	00178793          	addi	a5,a5,1
 4f4:	00000613          	li	a2,0
 4f8:	00078593          	mv	a1,a5
 4fc:	00070513          	mv	a0,a4
 500:	bedff0ef          	jal	ra,ec <draw_stick>
 504:	fd442783          	lw	a5,-44(s0)
 508:	00279793          	slli	a5,a5,0x2
 50c:	fdc42703          	lw	a4,-36(s0)
 510:	00f707b3          	add	a5,a4,a5
 514:	0007a783          	lw	a5,0(a5)
 518:	00000613          	li	a2,0
 51c:	fd442583          	lw	a1,-44(s0)
 520:	00078513          	mv	a0,a5
 524:	bc9ff0ef          	jal	ra,ec <draw_stick>
 528:	fec42783          	lw	a5,-20(s0)
 52c:	00178793          	addi	a5,a5,1
 530:	00279793          	slli	a5,a5,0x2
 534:	fdc42703          	lw	a4,-36(s0)
 538:	00f707b3          	add	a5,a4,a5
 53c:	0007a703          	lw	a4,0(a5)
 540:	fd442783          	lw	a5,-44(s0)
 544:	00279793          	slli	a5,a5,0x2
 548:	fdc42683          	lw	a3,-36(s0)
 54c:	00f687b3          	add	a5,a3,a5
 550:	0007a783          	lw	a5,0(a5)
 554:	00f70463          	beq	a4,a5,55c <partition+0x1e8>
 558:	b51ff0ef          	jal	ra,a8 <delay>
 55c:	fec42783          	lw	a5,-20(s0)
 560:	00178793          	addi	a5,a5,1
 564:	00078513          	mv	a0,a5
 568:	02c12083          	lw	ra,44(sp)
 56c:	02812403          	lw	s0,40(sp)
 570:	03010113          	addi	sp,sp,48
 574:	00008067          	ret

00000578 <quickSortIterative>:
 578:	fd010113          	addi	sp,sp,-48
 57c:	02112623          	sw	ra,44(sp)
 580:	02812423          	sw	s0,40(sp)
 584:	02912223          	sw	s1,36(sp)
 588:	03010413          	addi	s0,sp,48
 58c:	fca42e23          	sw	a0,-36(s0)
 590:	fcb42c23          	sw	a1,-40(s0)
 594:	fcc42a23          	sw	a2,-44(s0)
 598:	00010693          	mv	a3,sp
 59c:	00068493          	mv	s1,a3
 5a0:	fd442603          	lw	a2,-44(s0)
 5a4:	fd842683          	lw	a3,-40(s0)
 5a8:	40d606b3          	sub	a3,a2,a3
 5ac:	00168693          	addi	a3,a3,1
 5b0:	fff68613          	addi	a2,a3,-1
 5b4:	fec42423          	sw	a2,-24(s0)
 5b8:	00068613          	mv	a2,a3
 5bc:	00060e13          	mv	t3,a2
 5c0:	00000e93          	li	t4,0
 5c4:	01be5613          	srli	a2,t3,0x1b
 5c8:	005e9893          	slli	a7,t4,0x5
 5cc:	011668b3          	or	a7,a2,a7
 5d0:	005e1813          	slli	a6,t3,0x5
 5d4:	00068613          	mv	a2,a3
 5d8:	00060313          	mv	t1,a2
 5dc:	00000393          	li	t2,0
 5e0:	01b35613          	srli	a2,t1,0x1b
 5e4:	00539793          	slli	a5,t2,0x5
 5e8:	00f667b3          	or	a5,a2,a5
 5ec:	00531713          	slli	a4,t1,0x5
 5f0:	00068793          	mv	a5,a3
 5f4:	00279793          	slli	a5,a5,0x2
 5f8:	00f78793          	addi	a5,a5,15
 5fc:	0047d793          	srli	a5,a5,0x4
 600:	00479793          	slli	a5,a5,0x4
 604:	40f10133          	sub	sp,sp,a5
 608:	00010793          	mv	a5,sp
 60c:	00378793          	addi	a5,a5,3
 610:	0027d793          	srli	a5,a5,0x2
 614:	00279793          	slli	a5,a5,0x2
 618:	fef42223          	sw	a5,-28(s0)
 61c:	fff00793          	li	a5,-1
 620:	fef42623          	sw	a5,-20(s0)
 624:	fec42783          	lw	a5,-20(s0)
 628:	00178793          	addi	a5,a5,1
 62c:	fef42623          	sw	a5,-20(s0)
 630:	fe442703          	lw	a4,-28(s0)
 634:	fec42783          	lw	a5,-20(s0)
 638:	00279793          	slli	a5,a5,0x2
 63c:	00f707b3          	add	a5,a4,a5
 640:	fd842703          	lw	a4,-40(s0)
 644:	00e7a023          	sw	a4,0(a5)
 648:	fec42783          	lw	a5,-20(s0)
 64c:	00178793          	addi	a5,a5,1
 650:	fef42623          	sw	a5,-20(s0)
 654:	fe442703          	lw	a4,-28(s0)
 658:	fec42783          	lw	a5,-20(s0)
 65c:	00279793          	slli	a5,a5,0x2
 660:	00f707b3          	add	a5,a4,a5
 664:	fd442703          	lw	a4,-44(s0)
 668:	00e7a023          	sw	a4,0(a5)
 66c:	1100006f          	j	77c <quickSortIterative+0x204>
 670:	fec42783          	lw	a5,-20(s0)
 674:	fff78713          	addi	a4,a5,-1
 678:	fee42623          	sw	a4,-20(s0)
 67c:	fe442703          	lw	a4,-28(s0)
 680:	00279793          	slli	a5,a5,0x2
 684:	00f707b3          	add	a5,a4,a5
 688:	0007a783          	lw	a5,0(a5)
 68c:	fcf42a23          	sw	a5,-44(s0)
 690:	fec42783          	lw	a5,-20(s0)
 694:	fff78713          	addi	a4,a5,-1
 698:	fee42623          	sw	a4,-20(s0)
 69c:	fe442703          	lw	a4,-28(s0)
 6a0:	00279793          	slli	a5,a5,0x2
 6a4:	00f707b3          	add	a5,a4,a5
 6a8:	0007a783          	lw	a5,0(a5)
 6ac:	fcf42c23          	sw	a5,-40(s0)
 6b0:	fd442603          	lw	a2,-44(s0)
 6b4:	fd842583          	lw	a1,-40(s0)
 6b8:	fdc42503          	lw	a0,-36(s0)
 6bc:	cb9ff0ef          	jal	ra,374 <partition>
 6c0:	fea42023          	sw	a0,-32(s0)
 6c4:	fe042783          	lw	a5,-32(s0)
 6c8:	fff78793          	addi	a5,a5,-1
 6cc:	fd842703          	lw	a4,-40(s0)
 6d0:	04f75863          	bge	a4,a5,720 <quickSortIterative+0x1a8>
 6d4:	fec42783          	lw	a5,-20(s0)
 6d8:	00178793          	addi	a5,a5,1
 6dc:	fef42623          	sw	a5,-20(s0)
 6e0:	fe442703          	lw	a4,-28(s0)
 6e4:	fec42783          	lw	a5,-20(s0)
 6e8:	00279793          	slli	a5,a5,0x2
 6ec:	00f707b3          	add	a5,a4,a5
 6f0:	fd842703          	lw	a4,-40(s0)
 6f4:	00e7a023          	sw	a4,0(a5)
 6f8:	fec42783          	lw	a5,-20(s0)
 6fc:	00178793          	addi	a5,a5,1
 700:	fef42623          	sw	a5,-20(s0)
 704:	fe042783          	lw	a5,-32(s0)
 708:	fff78713          	addi	a4,a5,-1
 70c:	fe442683          	lw	a3,-28(s0)
 710:	fec42783          	lw	a5,-20(s0)
 714:	00279793          	slli	a5,a5,0x2
 718:	00f687b3          	add	a5,a3,a5
 71c:	00e7a023          	sw	a4,0(a5)
 720:	fe042783          	lw	a5,-32(s0)
 724:	00178793          	addi	a5,a5,1
 728:	fd442703          	lw	a4,-44(s0)
 72c:	04e7d863          	bge	a5,a4,77c <quickSortIterative+0x204>
 730:	fec42783          	lw	a5,-20(s0)
 734:	00178793          	addi	a5,a5,1
 738:	fef42623          	sw	a5,-20(s0)
 73c:	fe042783          	lw	a5,-32(s0)
 740:	00178713          	addi	a4,a5,1
 744:	fe442683          	lw	a3,-28(s0)
 748:	fec42783          	lw	a5,-20(s0)
 74c:	00279793          	slli	a5,a5,0x2
 750:	00f687b3          	add	a5,a3,a5
 754:	00e7a023          	sw	a4,0(a5)
 758:	fec42783          	lw	a5,-20(s0)
 75c:	00178793          	addi	a5,a5,1
 760:	fef42623          	sw	a5,-20(s0)
 764:	fe442703          	lw	a4,-28(s0)
 768:	fec42783          	lw	a5,-20(s0)
 76c:	00279793          	slli	a5,a5,0x2
 770:	00f707b3          	add	a5,a4,a5
 774:	fd442703          	lw	a4,-44(s0)
 778:	00e7a023          	sw	a4,0(a5)
 77c:	fec42783          	lw	a5,-20(s0)
 780:	ee07d8e3          	bgez	a5,670 <quickSortIterative+0xf8>
 784:	00048113          	mv	sp,s1
 788:	00000013          	nop
 78c:	fd040113          	addi	sp,s0,-48
 790:	02c12083          	lw	ra,44(sp)
 794:	02812403          	lw	s0,40(sp)
 798:	02412483          	lw	s1,36(sp)
 79c:	03010113          	addi	sp,sp,48
 7a0:	00008067          	ret

000007a4 <min>:
 7a4:	fe010113          	addi	sp,sp,-32
 7a8:	00812e23          	sw	s0,28(sp)
 7ac:	02010413          	addi	s0,sp,32
 7b0:	fea42623          	sw	a0,-20(s0)
 7b4:	feb42423          	sw	a1,-24(s0)
 7b8:	fec42703          	lw	a4,-20(s0)
 7bc:	fe842783          	lw	a5,-24(s0)
 7c0:	00f75463          	bge	a4,a5,7c8 <min+0x24>
 7c4:	00070793          	mv	a5,a4
 7c8:	00078513          	mv	a0,a5
 7cc:	01c12403          	lw	s0,28(sp)
 7d0:	02010113          	addi	sp,sp,32
 7d4:	00008067          	ret

000007d8 <mergeSort>:
 7d8:	fd010113          	addi	sp,sp,-48
 7dc:	02112623          	sw	ra,44(sp)
 7e0:	02812423          	sw	s0,40(sp)
 7e4:	03010413          	addi	s0,sp,48
 7e8:	fca42e23          	sw	a0,-36(s0)
 7ec:	fcb42c23          	sw	a1,-40(s0)
 7f0:	00100793          	li	a5,1
 7f4:	fef42623          	sw	a5,-20(s0)
 7f8:	0a40006f          	j	89c <mergeSort+0xc4>
 7fc:	fe042423          	sw	zero,-24(s0)
 800:	0800006f          	j	880 <mergeSort+0xa8>
 804:	fe842703          	lw	a4,-24(s0)
 808:	fec42783          	lw	a5,-20(s0)
 80c:	00f707b3          	add	a5,a4,a5
 810:	fff78713          	addi	a4,a5,-1
 814:	fd842783          	lw	a5,-40(s0)
 818:	fff78793          	addi	a5,a5,-1
 81c:	00078593          	mv	a1,a5
 820:	00070513          	mv	a0,a4
 824:	f81ff0ef          	jal	ra,7a4 <min>
 828:	fea42223          	sw	a0,-28(s0)
 82c:	fec42783          	lw	a5,-20(s0)
 830:	00179713          	slli	a4,a5,0x1
 834:	fe842783          	lw	a5,-24(s0)
 838:	00f707b3          	add	a5,a4,a5
 83c:	fff78713          	addi	a4,a5,-1
 840:	fd842783          	lw	a5,-40(s0)
 844:	fff78793          	addi	a5,a5,-1
 848:	00078593          	mv	a1,a5
 84c:	00070513          	mv	a0,a4
 850:	f55ff0ef          	jal	ra,7a4 <min>
 854:	fea42023          	sw	a0,-32(s0)
 858:	fe042683          	lw	a3,-32(s0)
 85c:	fe442603          	lw	a2,-28(s0)
 860:	fe842583          	lw	a1,-24(s0)
 864:	fdc42503          	lw	a0,-36(s0)
 868:	058000ef          	jal	ra,8c0 <merge>
 86c:	fec42783          	lw	a5,-20(s0)
 870:	00179793          	slli	a5,a5,0x1
 874:	fe842703          	lw	a4,-24(s0)
 878:	00f707b3          	add	a5,a4,a5
 87c:	fef42423          	sw	a5,-24(s0)
 880:	fd842783          	lw	a5,-40(s0)
 884:	fff78793          	addi	a5,a5,-1
 888:	fe842703          	lw	a4,-24(s0)
 88c:	f6f74ce3          	blt	a4,a5,804 <mergeSort+0x2c>
 890:	fec42783          	lw	a5,-20(s0)
 894:	00179793          	slli	a5,a5,0x1
 898:	fef42623          	sw	a5,-20(s0)
 89c:	fd842703          	lw	a4,-40(s0)
 8a0:	fec42783          	lw	a5,-20(s0)
 8a4:	f4e7cce3          	blt	a5,a4,7fc <mergeSort+0x24>
 8a8:	00000013          	nop
 8ac:	00000013          	nop
 8b0:	02c12083          	lw	ra,44(sp)
 8b4:	02812403          	lw	s0,40(sp)
 8b8:	03010113          	addi	sp,sp,48
 8bc:	00008067          	ret

000008c0 <merge>:
 8c0:	f9010113          	addi	sp,sp,-112
 8c4:	06112623          	sw	ra,108(sp)
 8c8:	06812423          	sw	s0,104(sp)
 8cc:	06912223          	sw	s1,100(sp)
 8d0:	07212023          	sw	s2,96(sp)
 8d4:	05312e23          	sw	s3,92(sp)
 8d8:	05412c23          	sw	s4,88(sp)
 8dc:	05512a23          	sw	s5,84(sp)
 8e0:	05612823          	sw	s6,80(sp)
 8e4:	05712623          	sw	s7,76(sp)
 8e8:	07010413          	addi	s0,sp,112
 8ec:	f8a42e23          	sw	a0,-100(s0)
 8f0:	f8b42c23          	sw	a1,-104(s0)
 8f4:	f8c42a23          	sw	a2,-108(s0)
 8f8:	f8d42823          	sw	a3,-112(s0)
 8fc:	00010693          	mv	a3,sp
 900:	00068493          	mv	s1,a3
 904:	f9442603          	lw	a2,-108(s0)
 908:	f9842683          	lw	a3,-104(s0)
 90c:	40d606b3          	sub	a3,a2,a3
 910:	00168693          	addi	a3,a3,1
 914:	fcd42023          	sw	a3,-64(s0)
 918:	f9042603          	lw	a2,-112(s0)
 91c:	f9442683          	lw	a3,-108(s0)
 920:	40d606b3          	sub	a3,a2,a3
 924:	fad42e23          	sw	a3,-68(s0)
 928:	fc042683          	lw	a3,-64(s0)
 92c:	fff68613          	addi	a2,a3,-1
 930:	fac42c23          	sw	a2,-72(s0)
 934:	00068613          	mv	a2,a3
 938:	00060b13          	mv	s6,a2
 93c:	00000b93          	li	s7,0
 940:	01bb5613          	srli	a2,s6,0x1b
 944:	005b9e93          	slli	t4,s7,0x5
 948:	01d66eb3          	or	t4,a2,t4
 94c:	005b1e13          	slli	t3,s6,0x5
 950:	00068613          	mv	a2,a3
 954:	00060a13          	mv	s4,a2
 958:	00000a93          	li	s5,0
 95c:	01ba5613          	srli	a2,s4,0x1b
 960:	005a9393          	slli	t2,s5,0x5
 964:	007663b3          	or	t2,a2,t2
 968:	005a1313          	slli	t1,s4,0x5
 96c:	00269693          	slli	a3,a3,0x2
 970:	00f68693          	addi	a3,a3,15
 974:	0046d693          	srli	a3,a3,0x4
 978:	00469693          	slli	a3,a3,0x4
 97c:	40d10133          	sub	sp,sp,a3
 980:	00010693          	mv	a3,sp
 984:	00368693          	addi	a3,a3,3
 988:	0026d693          	srli	a3,a3,0x2
 98c:	00269693          	slli	a3,a3,0x2
 990:	fad42a23          	sw	a3,-76(s0)
 994:	fbc42683          	lw	a3,-68(s0)
 998:	fff68613          	addi	a2,a3,-1
 99c:	fac42823          	sw	a2,-80(s0)
 9a0:	00068613          	mv	a2,a3
 9a4:	00060913          	mv	s2,a2
 9a8:	00000993          	li	s3,0
 9ac:	01b95613          	srli	a2,s2,0x1b
 9b0:	00599893          	slli	a7,s3,0x5
 9b4:	011668b3          	or	a7,a2,a7
 9b8:	00591813          	slli	a6,s2,0x5
 9bc:	00068613          	mv	a2,a3
 9c0:	00060f13          	mv	t5,a2
 9c4:	00000f93          	li	t6,0
 9c8:	01bf5613          	srli	a2,t5,0x1b
 9cc:	005f9793          	slli	a5,t6,0x5
 9d0:	00f667b3          	or	a5,a2,a5
 9d4:	005f1713          	slli	a4,t5,0x5
 9d8:	00068793          	mv	a5,a3
 9dc:	00279793          	slli	a5,a5,0x2
 9e0:	00f78793          	addi	a5,a5,15
 9e4:	0047d793          	srli	a5,a5,0x4
 9e8:	00479793          	slli	a5,a5,0x4
 9ec:	40f10133          	sub	sp,sp,a5
 9f0:	00010793          	mv	a5,sp
 9f4:	00378793          	addi	a5,a5,3
 9f8:	0027d793          	srli	a5,a5,0x2
 9fc:	00279793          	slli	a5,a5,0x2
 a00:	faf42623          	sw	a5,-84(s0)
 a04:	fc042223          	sw	zero,-60(s0)
 a08:	0400006f          	j	a48 <merge+0x188>
 a0c:	f9842703          	lw	a4,-104(s0)
 a10:	fc442783          	lw	a5,-60(s0)
 a14:	00f707b3          	add	a5,a4,a5
 a18:	00279793          	slli	a5,a5,0x2
 a1c:	f9c42703          	lw	a4,-100(s0)
 a20:	00f707b3          	add	a5,a4,a5
 a24:	0007a703          	lw	a4,0(a5)
 a28:	fb442683          	lw	a3,-76(s0)
 a2c:	fc442783          	lw	a5,-60(s0)
 a30:	00279793          	slli	a5,a5,0x2
 a34:	00f687b3          	add	a5,a3,a5
 a38:	00e7a023          	sw	a4,0(a5)
 a3c:	fc442783          	lw	a5,-60(s0)
 a40:	00178793          	addi	a5,a5,1
 a44:	fcf42223          	sw	a5,-60(s0)
 a48:	fc442703          	lw	a4,-60(s0)
 a4c:	fc042783          	lw	a5,-64(s0)
 a50:	faf74ee3          	blt	a4,a5,a0c <merge+0x14c>
 a54:	fc042423          	sw	zero,-56(s0)
 a58:	0440006f          	j	a9c <merge+0x1dc>
 a5c:	f9442783          	lw	a5,-108(s0)
 a60:	00178713          	addi	a4,a5,1
 a64:	fc842783          	lw	a5,-56(s0)
 a68:	00f707b3          	add	a5,a4,a5
 a6c:	00279793          	slli	a5,a5,0x2
 a70:	f9c42703          	lw	a4,-100(s0)
 a74:	00f707b3          	add	a5,a4,a5
 a78:	0007a703          	lw	a4,0(a5)
 a7c:	fac42683          	lw	a3,-84(s0)
 a80:	fc842783          	lw	a5,-56(s0)
 a84:	00279793          	slli	a5,a5,0x2
 a88:	00f687b3          	add	a5,a3,a5
 a8c:	00e7a023          	sw	a4,0(a5)
 a90:	fc842783          	lw	a5,-56(s0)
 a94:	00178793          	addi	a5,a5,1
 a98:	fcf42423          	sw	a5,-56(s0)
 a9c:	fc842703          	lw	a4,-56(s0)
 aa0:	fbc42783          	lw	a5,-68(s0)
 aa4:	faf74ce3          	blt	a4,a5,a5c <merge+0x19c>
 aa8:	fc042223          	sw	zero,-60(s0)
 aac:	fc042423          	sw	zero,-56(s0)
 ab0:	f9842783          	lw	a5,-104(s0)
 ab4:	fcf42623          	sw	a5,-52(s0)
 ab8:	1000006f          	j	bb8 <merge+0x2f8>
 abc:	fb442703          	lw	a4,-76(s0)
 ac0:	fc442783          	lw	a5,-60(s0)
 ac4:	00279793          	slli	a5,a5,0x2
 ac8:	00f707b3          	add	a5,a4,a5
 acc:	0007a703          	lw	a4,0(a5)
 ad0:	fac42683          	lw	a3,-84(s0)
 ad4:	fc842783          	lw	a5,-56(s0)
 ad8:	00279793          	slli	a5,a5,0x2
 adc:	00f687b3          	add	a5,a3,a5
 ae0:	0007a783          	lw	a5,0(a5)
 ae4:	06e7c463          	blt	a5,a4,b4c <merge+0x28c>
 ae8:	fcc42783          	lw	a5,-52(s0)
 aec:	00279793          	slli	a5,a5,0x2
 af0:	f9c42703          	lw	a4,-100(s0)
 af4:	00f707b3          	add	a5,a4,a5
 af8:	fb442683          	lw	a3,-76(s0)
 afc:	fc442703          	lw	a4,-60(s0)
 b00:	00271713          	slli	a4,a4,0x2
 b04:	00e68733          	add	a4,a3,a4
 b08:	00072703          	lw	a4,0(a4)
 b0c:	00e7a023          	sw	a4,0(a5)
 b10:	fcc42783          	lw	a5,-52(s0)
 b14:	00279793          	slli	a5,a5,0x2
 b18:	f9c42703          	lw	a4,-100(s0)
 b1c:	00f707b3          	add	a5,a4,a5
 b20:	0007a703          	lw	a4,0(a5)
 b24:	000017b7          	lui	a5,0x1
 b28:	2c078613          	addi	a2,a5,704 # 12c0 <_endtext+0x2c4>
 b2c:	fcc42583          	lw	a1,-52(s0)
 b30:	00070513          	mv	a0,a4
 b34:	db8ff0ef          	jal	ra,ec <draw_stick>
 b38:	d70ff0ef          	jal	ra,a8 <delay>
 b3c:	fc442783          	lw	a5,-60(s0)
 b40:	00178793          	addi	a5,a5,1
 b44:	fcf42223          	sw	a5,-60(s0)
 b48:	0640006f          	j	bac <merge+0x2ec>
 b4c:	fcc42783          	lw	a5,-52(s0)
 b50:	00279793          	slli	a5,a5,0x2
 b54:	f9c42703          	lw	a4,-100(s0)
 b58:	00f707b3          	add	a5,a4,a5
 b5c:	fac42683          	lw	a3,-84(s0)
 b60:	fc842703          	lw	a4,-56(s0)
 b64:	00271713          	slli	a4,a4,0x2
 b68:	00e68733          	add	a4,a3,a4
 b6c:	00072703          	lw	a4,0(a4)
 b70:	00e7a023          	sw	a4,0(a5)
 b74:	fcc42783          	lw	a5,-52(s0)
 b78:	00279793          	slli	a5,a5,0x2
 b7c:	f9c42703          	lw	a4,-100(s0)
 b80:	00f707b3          	add	a5,a4,a5
 b84:	0007a703          	lw	a4,0(a5)
 b88:	000017b7          	lui	a5,0x1
 b8c:	2c078613          	addi	a2,a5,704 # 12c0 <_endtext+0x2c4>
 b90:	fcc42583          	lw	a1,-52(s0)
 b94:	00070513          	mv	a0,a4
 b98:	d54ff0ef          	jal	ra,ec <draw_stick>
 b9c:	d0cff0ef          	jal	ra,a8 <delay>
 ba0:	fc842783          	lw	a5,-56(s0)
 ba4:	00178793          	addi	a5,a5,1
 ba8:	fcf42423          	sw	a5,-56(s0)
 bac:	fcc42783          	lw	a5,-52(s0)
 bb0:	00178793          	addi	a5,a5,1
 bb4:	fcf42623          	sw	a5,-52(s0)
 bb8:	fc442703          	lw	a4,-60(s0)
 bbc:	fc042783          	lw	a5,-64(s0)
 bc0:	08f75063          	bge	a4,a5,c40 <merge+0x380>
 bc4:	fc842703          	lw	a4,-56(s0)
 bc8:	fbc42783          	lw	a5,-68(s0)
 bcc:	eef748e3          	blt	a4,a5,abc <merge+0x1fc>
 bd0:	0700006f          	j	c40 <merge+0x380>
 bd4:	fcc42783          	lw	a5,-52(s0)
 bd8:	00279793          	slli	a5,a5,0x2
 bdc:	f9c42703          	lw	a4,-100(s0)
 be0:	00f707b3          	add	a5,a4,a5
 be4:	fb442683          	lw	a3,-76(s0)
 be8:	fc442703          	lw	a4,-60(s0)
 bec:	00271713          	slli	a4,a4,0x2
 bf0:	00e68733          	add	a4,a3,a4
 bf4:	00072703          	lw	a4,0(a4)
 bf8:	00e7a023          	sw	a4,0(a5)
 bfc:	fcc42783          	lw	a5,-52(s0)
 c00:	00279793          	slli	a5,a5,0x2
 c04:	f9c42703          	lw	a4,-100(s0)
 c08:	00f707b3          	add	a5,a4,a5
 c0c:	0007a703          	lw	a4,0(a5)
 c10:	000017b7          	lui	a5,0x1
 c14:	2c078613          	addi	a2,a5,704 # 12c0 <_endtext+0x2c4>
 c18:	fcc42583          	lw	a1,-52(s0)
 c1c:	00070513          	mv	a0,a4
 c20:	cccff0ef          	jal	ra,ec <draw_stick>
 c24:	c84ff0ef          	jal	ra,a8 <delay>
 c28:	fc442783          	lw	a5,-60(s0)
 c2c:	00178793          	addi	a5,a5,1
 c30:	fcf42223          	sw	a5,-60(s0)
 c34:	fcc42783          	lw	a5,-52(s0)
 c38:	00178793          	addi	a5,a5,1
 c3c:	fcf42623          	sw	a5,-52(s0)
 c40:	fc442703          	lw	a4,-60(s0)
 c44:	fc042783          	lw	a5,-64(s0)
 c48:	f8f746e3          	blt	a4,a5,bd4 <merge+0x314>
 c4c:	0700006f          	j	cbc <merge+0x3fc>
 c50:	fcc42783          	lw	a5,-52(s0)
 c54:	00279793          	slli	a5,a5,0x2
 c58:	f9c42703          	lw	a4,-100(s0)
 c5c:	00f707b3          	add	a5,a4,a5
 c60:	fac42683          	lw	a3,-84(s0)
 c64:	fc842703          	lw	a4,-56(s0)
 c68:	00271713          	slli	a4,a4,0x2
 c6c:	00e68733          	add	a4,a3,a4
 c70:	00072703          	lw	a4,0(a4)
 c74:	00e7a023          	sw	a4,0(a5)
 c78:	fcc42783          	lw	a5,-52(s0)
 c7c:	00279793          	slli	a5,a5,0x2
 c80:	f9c42703          	lw	a4,-100(s0)
 c84:	00f707b3          	add	a5,a4,a5
 c88:	0007a703          	lw	a4,0(a5)
 c8c:	000017b7          	lui	a5,0x1
 c90:	2c078613          	addi	a2,a5,704 # 12c0 <_endtext+0x2c4>
 c94:	fcc42583          	lw	a1,-52(s0)
 c98:	00070513          	mv	a0,a4
 c9c:	c50ff0ef          	jal	ra,ec <draw_stick>
 ca0:	c08ff0ef          	jal	ra,a8 <delay>
 ca4:	fc842783          	lw	a5,-56(s0)
 ca8:	00178793          	addi	a5,a5,1
 cac:	fcf42423          	sw	a5,-56(s0)
 cb0:	fcc42783          	lw	a5,-52(s0)
 cb4:	00178793          	addi	a5,a5,1
 cb8:	fcf42623          	sw	a5,-52(s0)
 cbc:	fc842703          	lw	a4,-56(s0)
 cc0:	fbc42783          	lw	a5,-68(s0)
 cc4:	f8f746e3          	blt	a4,a5,c50 <merge+0x390>
 cc8:	00048113          	mv	sp,s1
 ccc:	00000013          	nop
 cd0:	f9040113          	addi	sp,s0,-112
 cd4:	06c12083          	lw	ra,108(sp)
 cd8:	06812403          	lw	s0,104(sp)
 cdc:	06412483          	lw	s1,100(sp)
 ce0:	06012903          	lw	s2,96(sp)
 ce4:	05c12983          	lw	s3,92(sp)
 ce8:	05812a03          	lw	s4,88(sp)
 cec:	05412a83          	lw	s5,84(sp)
 cf0:	05012b03          	lw	s6,80(sp)
 cf4:	04c12b83          	lw	s7,76(sp)
 cf8:	07010113          	addi	sp,sp,112
 cfc:	00008067          	ret

00000d00 <drawArray>:
 d00:	fd010113          	addi	sp,sp,-48
 d04:	02112623          	sw	ra,44(sp)
 d08:	02812423          	sw	s0,40(sp)
 d0c:	03010413          	addi	s0,sp,48
 d10:	fca42e23          	sw	a0,-36(s0)
 d14:	fcb42c23          	sw	a1,-40(s0)
 d18:	fe042623          	sw	zero,-20(s0)
 d1c:	0380006f          	j	d54 <drawArray+0x54>
 d20:	fec42783          	lw	a5,-20(s0)
 d24:	00279793          	slli	a5,a5,0x2
 d28:	fdc42703          	lw	a4,-36(s0)
 d2c:	00f707b3          	add	a5,a4,a5
 d30:	0007a703          	lw	a4,0(a5)
 d34:	000017b7          	lui	a5,0x1
 d38:	2c078613          	addi	a2,a5,704 # 12c0 <_endtext+0x2c4>
 d3c:	fec42583          	lw	a1,-20(s0)
 d40:	00070513          	mv	a0,a4
 d44:	ba8ff0ef          	jal	ra,ec <draw_stick>
 d48:	fec42783          	lw	a5,-20(s0)
 d4c:	00178793          	addi	a5,a5,1
 d50:	fef42623          	sw	a5,-20(s0)
 d54:	fec42703          	lw	a4,-20(s0)
 d58:	fd842783          	lw	a5,-40(s0)
 d5c:	fcf742e3          	blt	a4,a5,d20 <drawArray+0x20>
 d60:	00000013          	nop
 d64:	00000013          	nop
 d68:	02c12083          	lw	ra,44(sp)
 d6c:	02812403          	lw	s0,40(sp)
 d70:	03010113          	addi	sp,sp,48
 d74:	00008067          	ret

00000d78 <getArray>:
 d78:	fa010113          	addi	sp,sp,-96
 d7c:	04812e23          	sw	s0,92(sp)
 d80:	06010413          	addi	s0,sp,96
 d84:	00b00793          	li	a5,11
 d88:	faf42423          	sw	a5,-88(s0)
 d8c:	00500793          	li	a5,5
 d90:	faf42623          	sw	a5,-84(s0)
 d94:	00900793          	li	a5,9
 d98:	faf42823          	sw	a5,-80(s0)
 d9c:	00d00793          	li	a5,13
 da0:	faf42a23          	sw	a5,-76(s0)
 da4:	01200793          	li	a5,18
 da8:	faf42c23          	sw	a5,-72(s0)
 dac:	00700793          	li	a5,7
 db0:	faf42e23          	sw	a5,-68(s0)
 db4:	00100793          	li	a5,1
 db8:	fcf42023          	sw	a5,-64(s0)
 dbc:	00200793          	li	a5,2
 dc0:	fcf42223          	sw	a5,-60(s0)
 dc4:	00c00793          	li	a5,12
 dc8:	fcf42423          	sw	a5,-56(s0)
 dcc:	00a00793          	li	a5,10
 dd0:	fcf42623          	sw	a5,-52(s0)
 dd4:	00400793          	li	a5,4
 dd8:	fcf42823          	sw	a5,-48(s0)
 ddc:	00300793          	li	a5,3
 de0:	fcf42a23          	sw	a5,-44(s0)
 de4:	00e00793          	li	a5,14
 de8:	fcf42c23          	sw	a5,-40(s0)
 dec:	00000793          	li	a5,0
 df0:	00078513          	mv	a0,a5
 df4:	05c12403          	lw	s0,92(sp)
 df8:	06010113          	addi	sp,sp,96
 dfc:	00008067          	ret

00000e00 <main>:
 e00:	fe010113          	addi	sp,sp,-32
 e04:	00112e23          	sw	ra,28(sp)
 e08:	00812c23          	sw	s0,24(sp)
 e0c:	02010413          	addi	s0,sp,32
 e10:	00c007b7          	lui	a5,0xc00
 e14:	0007a783          	lw	a5,0(a5) # c00000 <_bss_end+0x7ff800>
 e18:	fef42423          	sw	a5,-24(s0)
 e1c:	f5dff0ef          	jal	ra,d78 <getArray>
 e20:	fea42223          	sw	a0,-28(s0)
 e24:	01200793          	li	a5,18
 e28:	fef42023          	sw	a5,-32(s0)
 e2c:	fe842703          	lw	a4,-24(s0)
 e30:	00700793          	li	a5,7
 e34:	1af70463          	beq	a4,a5,fdc <main+0x1dc>
 e38:	fe842703          	lw	a4,-24(s0)
 e3c:	00700793          	li	a5,7
 e40:	1ae7cc63          	blt	a5,a4,ff8 <main+0x1f8>
 e44:	fe842703          	lw	a4,-24(s0)
 e48:	00600793          	li	a5,6
 e4c:	06f70863          	beq	a4,a5,ebc <main+0xbc>
 e50:	fe842703          	lw	a4,-24(s0)
 e54:	00600793          	li	a5,6
 e58:	1ae7c063          	blt	a5,a4,ff8 <main+0x1f8>
 e5c:	fe842703          	lw	a4,-24(s0)
 e60:	00400793          	li	a5,4
 e64:	00f70a63          	beq	a4,a5,e78 <main+0x78>
 e68:	fe842703          	lw	a4,-24(s0)
 e6c:	00500793          	li	a5,5
 e70:	02f70863          	beq	a4,a5,ea0 <main+0xa0>
 e74:	1840006f          	j	ff8 <main+0x1f8>
 e78:	fe042583          	lw	a1,-32(s0)
 e7c:	fe442503          	lw	a0,-28(s0)
 e80:	e81ff0ef          	jal	ra,d00 <drawArray>
 e84:	fe042783          	lw	a5,-32(s0)
 e88:	fff78793          	addi	a5,a5,-1
 e8c:	00078613          	mv	a2,a5
 e90:	00000593          	li	a1,0
 e94:	fe442503          	lw	a0,-28(s0)
 e98:	ee0ff0ef          	jal	ra,578 <quickSortIterative>
 e9c:	fddff06f          	j	e78 <main+0x78>
 ea0:	fe042583          	lw	a1,-32(s0)
 ea4:	fe442503          	lw	a0,-28(s0)
 ea8:	e59ff0ef          	jal	ra,d00 <drawArray>
 eac:	fe042583          	lw	a1,-32(s0)
 eb0:	fe442503          	lw	a0,-28(s0)
 eb4:	b88ff0ef          	jal	ra,23c <bubbleSort>
 eb8:	fe9ff06f          	j	ea0 <main+0xa0>
 ebc:	fe042623          	sw	zero,-20(s0)
 ec0:	06c0006f          	j	f2c <main+0x12c>
 ec4:	fec42783          	lw	a5,-20(s0)
 ec8:	00279713          	slli	a4,a5,0x2
 ecc:	034007b7          	lui	a5,0x3400
 ed0:	00f707b3          	add	a5,a4,a5
 ed4:	fff00713          	li	a4,-1
 ed8:	00e7a023          	sw	a4,0(a5) # 3400000 <_bss_end+0x2fff800>
 edc:	fec42703          	lw	a4,-20(s0)
 ee0:	000017b7          	lui	a5,0x1
 ee4:	2c078793          	addi	a5,a5,704 # 12c0 <_endtext+0x2c4>
 ee8:	00f707b3          	add	a5,a4,a5
 eec:	00279713          	slli	a4,a5,0x2
 ef0:	034007b7          	lui	a5,0x3400
 ef4:	ec078793          	addi	a5,a5,-320 # 33ffec0 <_bss_end+0x2fff6c0>
 ef8:	00f707b3          	add	a5,a4,a5
 efc:	fff00713          	li	a4,-1
 f00:	00e7a023          	sw	a4,0(a5)
 f04:	fec42783          	lw	a5,-20(s0)
 f08:	00279713          	slli	a4,a5,0x2
 f0c:	034097b7          	lui	a5,0x3409
 f10:	4c078793          	addi	a5,a5,1216 # 34094c0 <_bss_end+0x3008cc0>
 f14:	00f707b3          	add	a5,a4,a5
 f18:	fff00713          	li	a4,-1
 f1c:	00e7a023          	sw	a4,0(a5)
 f20:	fec42783          	lw	a5,-20(s0)
 f24:	00178793          	addi	a5,a5,1
 f28:	fef42623          	sw	a5,-20(s0)
 f2c:	fec42703          	lw	a4,-20(s0)
 f30:	04f00793          	li	a5,79
 f34:	f8e7d8e3          	bge	a5,a4,ec4 <main+0xc4>
 f38:	fe042623          	sw	zero,-20(s0)
 f3c:	0900006f          	j	fcc <main+0x1cc>
 f40:	fec42703          	lw	a4,-20(s0)
 f44:	00070793          	mv	a5,a4
 f48:	00279793          	slli	a5,a5,0x2
 f4c:	00e787b3          	add	a5,a5,a4
 f50:	00679793          	slli	a5,a5,0x6
 f54:	00078713          	mv	a4,a5
 f58:	034007b7          	lui	a5,0x3400
 f5c:	00f707b3          	add	a5,a4,a5
 f60:	fff00713          	li	a4,-1
 f64:	00e7a023          	sw	a4,0(a5) # 3400000 <_bss_end+0x2fff800>
 f68:	fec42703          	lw	a4,-20(s0)
 f6c:	00070793          	mv	a5,a4
 f70:	00279793          	slli	a5,a5,0x2
 f74:	00e787b3          	add	a5,a5,a4
 f78:	00679793          	slli	a5,a5,0x6
 f7c:	00078713          	mv	a4,a5
 f80:	034007b7          	lui	a5,0x3400
 f84:	09c78793          	addi	a5,a5,156 # 340009c <_bss_end+0x2fff89c>
 f88:	00f707b3          	add	a5,a4,a5
 f8c:	fff00713          	li	a4,-1
 f90:	00e7a023          	sw	a4,0(a5)
 f94:	fec42703          	lw	a4,-20(s0)
 f98:	00070793          	mv	a5,a4
 f9c:	00279793          	slli	a5,a5,0x2
 fa0:	00e787b3          	add	a5,a5,a4
 fa4:	00679793          	slli	a5,a5,0x6
 fa8:	00078713          	mv	a4,a5
 fac:	034007b7          	lui	a5,0x3400
 fb0:	13c78793          	addi	a5,a5,316 # 340013c <_bss_end+0x2fff93c>
 fb4:	00f707b3          	add	a5,a4,a5
 fb8:	fff00713          	li	a4,-1
 fbc:	00e7a023          	sw	a4,0(a5)
 fc0:	fec42783          	lw	a5,-20(s0)
 fc4:	00178793          	addi	a5,a5,1
 fc8:	fef42623          	sw	a5,-20(s0)
 fcc:	fec42703          	lw	a4,-20(s0)
 fd0:	07700793          	li	a5,119
 fd4:	f6e7d6e3          	bge	a5,a4,f40 <main+0x140>
 fd8:	0000006f          	j	fd8 <main+0x1d8>
 fdc:	fe042583          	lw	a1,-32(s0)
 fe0:	fe442503          	lw	a0,-28(s0)
 fe4:	d1dff0ef          	jal	ra,d00 <drawArray>
 fe8:	fe042583          	lw	a1,-32(s0)
 fec:	fe442503          	lw	a0,-28(s0)
 ff0:	fe8ff0ef          	jal	ra,7d8 <mergeSort>
 ff4:	fe9ff06f          	j	fdc <main+0x1dc>
 ff8:	0000006f          	j	ff8 <main+0x1f8>
