
sorting_VGA_rv32i.elf:     file format elf32-littleriscv


Disassembly of section .vectors:

00000000 <reset_handler-0x18>:
   0:	00000013          	nop
   4:	00000013          	nop
   8:	00000013          	nop
   c:	00000013          	nop
  10:	00000013          	nop
  14:	0040006f          	j	18 <reset_handler>

00000018 <reset_handler>:
  18:	00000093          	li	ra,0
  1c:	00008113          	mv	sp,ra
  20:	00008193          	mv	gp,ra
  24:	00008213          	mv	tp,ra
  28:	00008293          	mv	t0,ra
  2c:	00008313          	mv	t1,ra
  30:	00008393          	mv	t2,ra
  34:	00008413          	mv	s0,ra
  38:	00008493          	mv	s1,ra
  3c:	00008513          	mv	a0,ra
  40:	00008593          	mv	a1,ra
  44:	00008613          	mv	a2,ra
  48:	00008693          	mv	a3,ra
  4c:	00008713          	mv	a4,ra
  50:	00008793          	mv	a5,ra
  54:	00008813          	mv	a6,ra
  58:	00008893          	mv	a7,ra
  5c:	00008913          	mv	s2,ra
  60:	00008993          	mv	s3,ra
  64:	00008a13          	mv	s4,ra
  68:	00008a93          	mv	s5,ra
  6c:	00008b13          	mv	s6,ra
  70:	00008b93          	mv	s7,ra
  74:	00008c13          	mv	s8,ra
  78:	00008c93          	mv	s9,ra
  7c:	00008d13          	mv	s10,ra
  80:	00008d93          	mv	s11,ra
  84:	00008e13          	mv	t3,ra
  88:	00008e93          	mv	t4,ra
  8c:	00008f13          	mv	t5,ra
  90:	00008f93          	mv	t6,ra
  94:	00c002b7          	lui	t0,0xc00
  98:	00c28293          	addi	t0,t0,12 # c0000c <_stack_start+0x7fec0c>
  9c:	0002a103          	lw	sp,0(t0)
  a0:	579000ef          	jal	ra,e18 <main>
  a4:	00100073          	ebreak

Disassembly of section .text:

000000a8 <delay>:
      a8:	fe010113          	addi	sp,sp,-32
      ac:	00812e23          	sw	s0,28(sp)
      b0:	02010413          	addi	s0,sp,32
      b4:	fe042623          	sw	zero,-20(s0)
      b8:	0100006f          	j	c8 <delay+0x20>
      bc:	fec42783          	lw	a5,-20(s0)
      c0:	00178793          	addi	a5,a5,1
      c4:	fef42623          	sw	a5,-20(s0)
      c8:	fec42703          	lw	a4,-20(s0)
      cc:	000147b7          	lui	a5,0x14
      d0:	87f78793          	addi	a5,a5,-1921 # 1387f <_endtext+0x124db>
      d4:	fee7d4e3          	bge	a5,a4,bc <delay+0x14>
      d8:	00000013          	nop
      dc:	00000013          	nop
      e0:	01c12403          	lw	s0,28(sp)
      e4:	02010113          	addi	sp,sp,32
      e8:	00008067          	ret

000000ec <draw_stick>:
      ec:	fc010113          	addi	sp,sp,-64
      f0:	02812e23          	sw	s0,60(sp)
      f4:	04010413          	addi	s0,sp,64
      f8:	fca42623          	sw	a0,-52(s0)
      fc:	fcb42423          	sw	a1,-56(s0)
     100:	fcc42223          	sw	a2,-60(s0)
     104:	fc842783          	lw	a5,-56(s0)
     108:	14178793          	addi	a5,a5,321
     10c:	00179793          	slli	a5,a5,0x1
     110:	fc442703          	lw	a4,-60(s0)
     114:	00f707b3          	add	a5,a4,a5
     118:	fef42223          	sw	a5,-28(s0)
     11c:	000017b7          	lui	a5,0x1
     120:	e1078793          	addi	a5,a5,-496 # e10 <insertionSort+0x15c>
     124:	fef42023          	sw	a5,-32(s0)
     128:	fcc42703          	lw	a4,-52(s0)
     12c:	00070793          	mv	a5,a4
     130:	00279793          	slli	a5,a5,0x2
     134:	00e787b3          	add	a5,a5,a4
     138:	00479793          	slli	a5,a5,0x4
     13c:	00178793          	addi	a5,a5,1
     140:	fcf42e23          	sw	a5,-36(s0)
     144:	fe042623          	sw	zero,-20(s0)
     148:	0340006f          	j	17c <draw_stick+0x90>
     14c:	fe442703          	lw	a4,-28(s0)
     150:	fec42783          	lw	a5,-20(s0)
     154:	40f70733          	sub	a4,a4,a5
     158:	fe042783          	lw	a5,-32(s0)
     15c:	00f707b3          	add	a5,a4,a5
     160:	00279713          	slli	a4,a5,0x2
     164:	034007b7          	lui	a5,0x3400
     168:	00f707b3          	add	a5,a4,a5
     16c:	0007a023          	sw	zero,0(a5) # 3400000 <_stack+0x2ffec00>
     170:	fec42783          	lw	a5,-20(s0)
     174:	05078793          	addi	a5,a5,80
     178:	fef42623          	sw	a5,-20(s0)
     17c:	fec42703          	lw	a4,-20(s0)
     180:	000017b7          	lui	a5,0x1
     184:	96078793          	addi	a5,a5,-1696 # 960 <merge+0xd0>
     188:	fce7d2e3          	bge	a5,a4,14c <draw_stick+0x60>
     18c:	fe042423          	sw	zero,-24(s0)
     190:	0380006f          	j	1c8 <draw_stick+0xdc>
     194:	fe442703          	lw	a4,-28(s0)
     198:	fe842783          	lw	a5,-24(s0)
     19c:	40f70733          	sub	a4,a4,a5
     1a0:	fe042783          	lw	a5,-32(s0)
     1a4:	00f707b3          	add	a5,a4,a5
     1a8:	00279713          	slli	a4,a5,0x2
     1ac:	034007b7          	lui	a5,0x3400
     1b0:	00f707b3          	add	a5,a4,a5
     1b4:	fff00713          	li	a4,-1
     1b8:	00e7a023          	sw	a4,0(a5) # 3400000 <_stack+0x2ffec00>
     1bc:	fe842783          	lw	a5,-24(s0)
     1c0:	05078793          	addi	a5,a5,80
     1c4:	fef42423          	sw	a5,-24(s0)
     1c8:	fe842703          	lw	a4,-24(s0)
     1cc:	fdc42783          	lw	a5,-36(s0)
     1d0:	fcf742e3          	blt	a4,a5,194 <draw_stick+0xa8>
     1d4:	00000013          	nop
     1d8:	00000013          	nop
     1dc:	03c12403          	lw	s0,60(sp)
     1e0:	04010113          	addi	sp,sp,64
     1e4:	00008067          	ret

000001e8 <swap>:
     1e8:	fd010113          	addi	sp,sp,-48
     1ec:	02812623          	sw	s0,44(sp)
     1f0:	03010413          	addi	s0,sp,48
     1f4:	fca42e23          	sw	a0,-36(s0)
     1f8:	fcb42c23          	sw	a1,-40(s0)
     1fc:	fdc42783          	lw	a5,-36(s0)
     200:	0007c783          	lbu	a5,0(a5)
     204:	fef407a3          	sb	a5,-17(s0)
     208:	fd842783          	lw	a5,-40(s0)
     20c:	0007c703          	lbu	a4,0(a5)
     210:	fdc42783          	lw	a5,-36(s0)
     214:	00e78023          	sb	a4,0(a5)
     218:	fd842783          	lw	a5,-40(s0)
     21c:	fef44703          	lbu	a4,-17(s0)
     220:	00e78023          	sb	a4,0(a5)
     224:	00000013          	nop
     228:	02c12403          	lw	s0,44(sp)
     22c:	03010113          	addi	sp,sp,48
     230:	00008067          	ret

00000234 <bubbleSort>:
     234:	fd010113          	addi	sp,sp,-48
     238:	02112623          	sw	ra,44(sp)
     23c:	02812423          	sw	s0,40(sp)
     240:	03010413          	addi	s0,sp,48
     244:	fca42e23          	sw	a0,-36(s0)
     248:	fcb42c23          	sw	a1,-40(s0)
     24c:	fe042623          	sw	zero,-20(s0)
     250:	0e00006f          	j	330 <bubbleSort+0xfc>
     254:	fe042423          	sw	zero,-24(s0)
     258:	0b40006f          	j	30c <bubbleSort+0xd8>
     25c:	fe842783          	lw	a5,-24(s0)
     260:	fdc42703          	lw	a4,-36(s0)
     264:	00f707b3          	add	a5,a4,a5
     268:	0007c703          	lbu	a4,0(a5)
     26c:	fe842783          	lw	a5,-24(s0)
     270:	00178793          	addi	a5,a5,1
     274:	fdc42683          	lw	a3,-36(s0)
     278:	00f687b3          	add	a5,a3,a5
     27c:	0007c783          	lbu	a5,0(a5)
     280:	08e7f063          	bgeu	a5,a4,300 <bubbleSort+0xcc>
     284:	fe842783          	lw	a5,-24(s0)
     288:	fdc42703          	lw	a4,-36(s0)
     28c:	00f706b3          	add	a3,a4,a5
     290:	fe842783          	lw	a5,-24(s0)
     294:	00178793          	addi	a5,a5,1
     298:	fdc42703          	lw	a4,-36(s0)
     29c:	00f707b3          	add	a5,a4,a5
     2a0:	00078593          	mv	a1,a5
     2a4:	00068513          	mv	a0,a3
     2a8:	f41ff0ef          	jal	ra,1e8 <swap>
     2ac:	fe842783          	lw	a5,-24(s0)
     2b0:	fdc42703          	lw	a4,-36(s0)
     2b4:	00f707b3          	add	a5,a4,a5
     2b8:	0007c783          	lbu	a5,0(a5)
     2bc:	02800613          	li	a2,40
     2c0:	fe842583          	lw	a1,-24(s0)
     2c4:	00078513          	mv	a0,a5
     2c8:	e25ff0ef          	jal	ra,ec <draw_stick>
     2cc:	fe842783          	lw	a5,-24(s0)
     2d0:	00178793          	addi	a5,a5,1
     2d4:	fdc42703          	lw	a4,-36(s0)
     2d8:	00f707b3          	add	a5,a4,a5
     2dc:	0007c783          	lbu	a5,0(a5)
     2e0:	00078713          	mv	a4,a5
     2e4:	fe842783          	lw	a5,-24(s0)
     2e8:	00178793          	addi	a5,a5,1
     2ec:	02800613          	li	a2,40
     2f0:	00078593          	mv	a1,a5
     2f4:	00070513          	mv	a0,a4
     2f8:	df5ff0ef          	jal	ra,ec <draw_stick>
     2fc:	dadff0ef          	jal	ra,a8 <delay>
     300:	fe842783          	lw	a5,-24(s0)
     304:	00178793          	addi	a5,a5,1
     308:	fef42423          	sw	a5,-24(s0)
     30c:	fd842703          	lw	a4,-40(s0)
     310:	fec42783          	lw	a5,-20(s0)
     314:	40f707b3          	sub	a5,a4,a5
     318:	fff78793          	addi	a5,a5,-1
     31c:	fe842703          	lw	a4,-24(s0)
     320:	f2f74ee3          	blt	a4,a5,25c <bubbleSort+0x28>
     324:	fec42783          	lw	a5,-20(s0)
     328:	00178793          	addi	a5,a5,1
     32c:	fef42623          	sw	a5,-20(s0)
     330:	fd842783          	lw	a5,-40(s0)
     334:	fff78793          	addi	a5,a5,-1
     338:	fec42703          	lw	a4,-20(s0)
     33c:	f0f74ce3          	blt	a4,a5,254 <bubbleSort+0x20>
     340:	00000013          	nop
     344:	00000013          	nop
     348:	02c12083          	lw	ra,44(sp)
     34c:	02812403          	lw	s0,40(sp)
     350:	03010113          	addi	sp,sp,48
     354:	00008067          	ret

00000358 <partition>:
     358:	fd010113          	addi	sp,sp,-48
     35c:	02112623          	sw	ra,44(sp)
     360:	02812423          	sw	s0,40(sp)
     364:	03010413          	addi	s0,sp,48
     368:	fca42e23          	sw	a0,-36(s0)
     36c:	00058793          	mv	a5,a1
     370:	00060713          	mv	a4,a2
     374:	fcf40da3          	sb	a5,-37(s0)
     378:	00070793          	mv	a5,a4
     37c:	fcf40d23          	sb	a5,-38(s0)
     380:	fda44783          	lbu	a5,-38(s0)
     384:	fdc42703          	lw	a4,-36(s0)
     388:	00f707b3          	add	a5,a4,a5
     38c:	0007c783          	lbu	a5,0(a5)
     390:	fef403a3          	sb	a5,-25(s0)
     394:	fdb44783          	lbu	a5,-37(s0)
     398:	fff78793          	addi	a5,a5,-1
     39c:	fef407a3          	sb	a5,-17(s0)
     3a0:	fdb44783          	lbu	a5,-37(s0)
     3a4:	fef42423          	sw	a5,-24(s0)
     3a8:	0c80006f          	j	470 <_min_stack+0x70>
     3ac:	fe842783          	lw	a5,-24(s0)
     3b0:	fdc42703          	lw	a4,-36(s0)
     3b4:	00f707b3          	add	a5,a4,a5
     3b8:	0007c783          	lbu	a5,0(a5)
     3bc:	fe744703          	lbu	a4,-25(s0)
     3c0:	0af76263          	bltu	a4,a5,464 <_min_stack+0x64>
     3c4:	fef44783          	lbu	a5,-17(s0)
     3c8:	00178793          	addi	a5,a5,1
     3cc:	fef407a3          	sb	a5,-17(s0)
     3d0:	fef44783          	lbu	a5,-17(s0)
     3d4:	fdc42703          	lw	a4,-36(s0)
     3d8:	00f706b3          	add	a3,a4,a5
     3dc:	fe842783          	lw	a5,-24(s0)
     3e0:	fdc42703          	lw	a4,-36(s0)
     3e4:	00f707b3          	add	a5,a4,a5
     3e8:	00078593          	mv	a1,a5
     3ec:	00068513          	mv	a0,a3
     3f0:	df9ff0ef          	jal	ra,1e8 <swap>
     3f4:	fef44783          	lbu	a5,-17(s0)
     3f8:	fdc42703          	lw	a4,-36(s0)
     3fc:	00f707b3          	add	a5,a4,a5
     400:	0007c783          	lbu	a5,0(a5)
     404:	00078713          	mv	a4,a5
     408:	fef44783          	lbu	a5,-17(s0)
     40c:	00000613          	li	a2,0
     410:	00078593          	mv	a1,a5
     414:	00070513          	mv	a0,a4
     418:	cd5ff0ef          	jal	ra,ec <draw_stick>
     41c:	fe842783          	lw	a5,-24(s0)
     420:	fdc42703          	lw	a4,-36(s0)
     424:	00f707b3          	add	a5,a4,a5
     428:	0007c783          	lbu	a5,0(a5)
     42c:	00000613          	li	a2,0
     430:	fe842583          	lw	a1,-24(s0)
     434:	00078513          	mv	a0,a5
     438:	cb5ff0ef          	jal	ra,ec <draw_stick>
     43c:	fef44783          	lbu	a5,-17(s0)
     440:	fdc42703          	lw	a4,-36(s0)
     444:	00f707b3          	add	a5,a4,a5
     448:	0007c703          	lbu	a4,0(a5)
     44c:	fe842783          	lw	a5,-24(s0)
     450:	fdc42683          	lw	a3,-36(s0)
     454:	00f687b3          	add	a5,a3,a5
     458:	0007c783          	lbu	a5,0(a5)
     45c:	00f70463          	beq	a4,a5,464 <_min_stack+0x64>
     460:	c49ff0ef          	jal	ra,a8 <delay>
     464:	fe842783          	lw	a5,-24(s0)
     468:	00178793          	addi	a5,a5,1
     46c:	fef42423          	sw	a5,-24(s0)
     470:	fda44783          	lbu	a5,-38(s0)
     474:	fe842703          	lw	a4,-24(s0)
     478:	f2f74ae3          	blt	a4,a5,3ac <partition+0x54>
     47c:	fef44783          	lbu	a5,-17(s0)
     480:	00178793          	addi	a5,a5,1
     484:	fdc42703          	lw	a4,-36(s0)
     488:	00f706b3          	add	a3,a4,a5
     48c:	fda44783          	lbu	a5,-38(s0)
     490:	fdc42703          	lw	a4,-36(s0)
     494:	00f707b3          	add	a5,a4,a5
     498:	00078593          	mv	a1,a5
     49c:	00068513          	mv	a0,a3
     4a0:	d49ff0ef          	jal	ra,1e8 <swap>
     4a4:	fef44783          	lbu	a5,-17(s0)
     4a8:	00178793          	addi	a5,a5,1
     4ac:	fdc42703          	lw	a4,-36(s0)
     4b0:	00f707b3          	add	a5,a4,a5
     4b4:	0007c783          	lbu	a5,0(a5)
     4b8:	00078713          	mv	a4,a5
     4bc:	fef44783          	lbu	a5,-17(s0)
     4c0:	00178793          	addi	a5,a5,1
     4c4:	00000613          	li	a2,0
     4c8:	00078593          	mv	a1,a5
     4cc:	00070513          	mv	a0,a4
     4d0:	c1dff0ef          	jal	ra,ec <draw_stick>
     4d4:	fda44783          	lbu	a5,-38(s0)
     4d8:	fdc42703          	lw	a4,-36(s0)
     4dc:	00f707b3          	add	a5,a4,a5
     4e0:	0007c783          	lbu	a5,0(a5)
     4e4:	00078713          	mv	a4,a5
     4e8:	fda44783          	lbu	a5,-38(s0)
     4ec:	00000613          	li	a2,0
     4f0:	00078593          	mv	a1,a5
     4f4:	00070513          	mv	a0,a4
     4f8:	bf5ff0ef          	jal	ra,ec <draw_stick>
     4fc:	fef44783          	lbu	a5,-17(s0)
     500:	00178793          	addi	a5,a5,1
     504:	fdc42703          	lw	a4,-36(s0)
     508:	00f707b3          	add	a5,a4,a5
     50c:	0007c703          	lbu	a4,0(a5)
     510:	fda44783          	lbu	a5,-38(s0)
     514:	fdc42683          	lw	a3,-36(s0)
     518:	00f687b3          	add	a5,a3,a5
     51c:	0007c783          	lbu	a5,0(a5)
     520:	00f70463          	beq	a4,a5,528 <_min_stack+0x128>
     524:	b85ff0ef          	jal	ra,a8 <delay>
     528:	fef44783          	lbu	a5,-17(s0)
     52c:	00178793          	addi	a5,a5,1
     530:	00078513          	mv	a0,a5
     534:	02c12083          	lw	ra,44(sp)
     538:	02812403          	lw	s0,40(sp)
     53c:	03010113          	addi	sp,sp,48
     540:	00008067          	ret

00000544 <quickSortIterative>:
     544:	fd010113          	addi	sp,sp,-48
     548:	02112623          	sw	ra,44(sp)
     54c:	02812423          	sw	s0,40(sp)
     550:	02912223          	sw	s1,36(sp)
     554:	03010413          	addi	s0,sp,48
     558:	fca42e23          	sw	a0,-36(s0)
     55c:	00058693          	mv	a3,a1
     560:	fcd40da3          	sb	a3,-37(s0)
     564:	00060693          	mv	a3,a2
     568:	fcd40d23          	sb	a3,-38(s0)
     56c:	00010693          	mv	a3,sp
     570:	00068493          	mv	s1,a3
     574:	fda44603          	lbu	a2,-38(s0)
     578:	fdb44683          	lbu	a3,-37(s0)
     57c:	40d606b3          	sub	a3,a2,a3
     580:	00168693          	addi	a3,a3,1
     584:	fff68613          	addi	a2,a3,-1
     588:	fec42423          	sw	a2,-24(s0)
     58c:	00068613          	mv	a2,a3
     590:	00060e13          	mv	t3,a2
     594:	00000e93          	li	t4,0
     598:	01de5613          	srli	a2,t3,0x1d
     59c:	003e9893          	slli	a7,t4,0x3
     5a0:	011668b3          	or	a7,a2,a7
     5a4:	003e1813          	slli	a6,t3,0x3
     5a8:	00068613          	mv	a2,a3
     5ac:	00060313          	mv	t1,a2
     5b0:	00000393          	li	t2,0
     5b4:	01d35613          	srli	a2,t1,0x1d
     5b8:	00339793          	slli	a5,t2,0x3
     5bc:	00f667b3          	or	a5,a2,a5
     5c0:	00331713          	slli	a4,t1,0x3
     5c4:	00068793          	mv	a5,a3
     5c8:	00f78793          	addi	a5,a5,15
     5cc:	0047d793          	srli	a5,a5,0x4
     5d0:	00479793          	slli	a5,a5,0x4
     5d4:	40f10133          	sub	sp,sp,a5
     5d8:	00010793          	mv	a5,sp
     5dc:	00078793          	mv	a5,a5
     5e0:	fef42223          	sw	a5,-28(s0)
     5e4:	fff00793          	li	a5,-1
     5e8:	fef42623          	sw	a5,-20(s0)
     5ec:	fec42783          	lw	a5,-20(s0)
     5f0:	00178793          	addi	a5,a5,1
     5f4:	fef42623          	sw	a5,-20(s0)
     5f8:	fe442703          	lw	a4,-28(s0)
     5fc:	fec42783          	lw	a5,-20(s0)
     600:	00f707b3          	add	a5,a4,a5
     604:	fdb44703          	lbu	a4,-37(s0)
     608:	00e78023          	sb	a4,0(a5)
     60c:	fec42783          	lw	a5,-20(s0)
     610:	00178793          	addi	a5,a5,1
     614:	fef42623          	sw	a5,-20(s0)
     618:	fe442703          	lw	a4,-28(s0)
     61c:	fec42783          	lw	a5,-20(s0)
     620:	00f707b3          	add	a5,a4,a5
     624:	fda44703          	lbu	a4,-38(s0)
     628:	00e78023          	sb	a4,0(a5)
     62c:	10c0006f          	j	738 <quickSortIterative+0x1f4>
     630:	fec42783          	lw	a5,-20(s0)
     634:	fff78713          	addi	a4,a5,-1
     638:	fee42623          	sw	a4,-20(s0)
     63c:	fe442703          	lw	a4,-28(s0)
     640:	00f707b3          	add	a5,a4,a5
     644:	0007c783          	lbu	a5,0(a5)
     648:	fcf40d23          	sb	a5,-38(s0)
     64c:	fec42783          	lw	a5,-20(s0)
     650:	fff78713          	addi	a4,a5,-1
     654:	fee42623          	sw	a4,-20(s0)
     658:	fe442703          	lw	a4,-28(s0)
     65c:	00f707b3          	add	a5,a4,a5
     660:	0007c783          	lbu	a5,0(a5)
     664:	fcf40da3          	sb	a5,-37(s0)
     668:	fda44703          	lbu	a4,-38(s0)
     66c:	fdb44783          	lbu	a5,-37(s0)
     670:	00070613          	mv	a2,a4
     674:	00078593          	mv	a1,a5
     678:	fdc42503          	lw	a0,-36(s0)
     67c:	cddff0ef          	jal	ra,358 <partition>
     680:	00050793          	mv	a5,a0
     684:	fef401a3          	sb	a5,-29(s0)
     688:	fe344783          	lbu	a5,-29(s0)
     68c:	fff78713          	addi	a4,a5,-1
     690:	fdb44783          	lbu	a5,-37(s0)
     694:	04e7d663          	bge	a5,a4,6e0 <quickSortIterative+0x19c>
     698:	fec42783          	lw	a5,-20(s0)
     69c:	00178793          	addi	a5,a5,1
     6a0:	fef42623          	sw	a5,-20(s0)
     6a4:	fe442703          	lw	a4,-28(s0)
     6a8:	fec42783          	lw	a5,-20(s0)
     6ac:	00f707b3          	add	a5,a4,a5
     6b0:	fdb44703          	lbu	a4,-37(s0)
     6b4:	00e78023          	sb	a4,0(a5)
     6b8:	fec42783          	lw	a5,-20(s0)
     6bc:	00178793          	addi	a5,a5,1
     6c0:	fef42623          	sw	a5,-20(s0)
     6c4:	fe344783          	lbu	a5,-29(s0)
     6c8:	fff78793          	addi	a5,a5,-1
     6cc:	0ff7f713          	zext.b	a4,a5
     6d0:	fe442683          	lw	a3,-28(s0)
     6d4:	fec42783          	lw	a5,-20(s0)
     6d8:	00f687b3          	add	a5,a3,a5
     6dc:	00e78023          	sb	a4,0(a5)
     6e0:	fe344783          	lbu	a5,-29(s0)
     6e4:	00178713          	addi	a4,a5,1
     6e8:	fda44783          	lbu	a5,-38(s0)
     6ec:	04f75663          	bge	a4,a5,738 <quickSortIterative+0x1f4>
     6f0:	fec42783          	lw	a5,-20(s0)
     6f4:	00178793          	addi	a5,a5,1
     6f8:	fef42623          	sw	a5,-20(s0)
     6fc:	fe344783          	lbu	a5,-29(s0)
     700:	00178793          	addi	a5,a5,1
     704:	0ff7f713          	zext.b	a4,a5
     708:	fe442683          	lw	a3,-28(s0)
     70c:	fec42783          	lw	a5,-20(s0)
     710:	00f687b3          	add	a5,a3,a5
     714:	00e78023          	sb	a4,0(a5)
     718:	fec42783          	lw	a5,-20(s0)
     71c:	00178793          	addi	a5,a5,1
     720:	fef42623          	sw	a5,-20(s0)
     724:	fe442703          	lw	a4,-28(s0)
     728:	fec42783          	lw	a5,-20(s0)
     72c:	00f707b3          	add	a5,a4,a5
     730:	fda44703          	lbu	a4,-38(s0)
     734:	00e78023          	sb	a4,0(a5)
     738:	fec42783          	lw	a5,-20(s0)
     73c:	ee07dae3          	bgez	a5,630 <quickSortIterative+0xec>
     740:	00048113          	mv	sp,s1
     744:	00000013          	nop
     748:	fd040113          	addi	sp,s0,-48
     74c:	02c12083          	lw	ra,44(sp)
     750:	02812403          	lw	s0,40(sp)
     754:	02412483          	lw	s1,36(sp)
     758:	03010113          	addi	sp,sp,48
     75c:	00008067          	ret

00000760 <min>:
     760:	fe010113          	addi	sp,sp,-32
     764:	00812e23          	sw	s0,28(sp)
     768:	02010413          	addi	s0,sp,32
     76c:	fea42623          	sw	a0,-20(s0)
     770:	feb42423          	sw	a1,-24(s0)
     774:	fec42703          	lw	a4,-20(s0)
     778:	fe842783          	lw	a5,-24(s0)
     77c:	00f75463          	bge	a4,a5,784 <min+0x24>
     780:	00070793          	mv	a5,a4
     784:	00078513          	mv	a0,a5
     788:	01c12403          	lw	s0,28(sp)
     78c:	02010113          	addi	sp,sp,32
     790:	00008067          	ret

00000794 <mergeSort>:
     794:	fd010113          	addi	sp,sp,-48
     798:	02112623          	sw	ra,44(sp)
     79c:	02812423          	sw	s0,40(sp)
     7a0:	03010413          	addi	s0,sp,48
     7a4:	fca42e23          	sw	a0,-36(s0)
     7a8:	fcb42c23          	sw	a1,-40(s0)
     7ac:	00100793          	li	a5,1
     7b0:	fef42623          	sw	a5,-20(s0)
     7b4:	0b80006f          	j	86c <mergeSort+0xd8>
     7b8:	fe042423          	sw	zero,-24(s0)
     7bc:	0940006f          	j	850 <mergeSort+0xbc>
     7c0:	fe842703          	lw	a4,-24(s0)
     7c4:	fec42783          	lw	a5,-20(s0)
     7c8:	00f707b3          	add	a5,a4,a5
     7cc:	fff78713          	addi	a4,a5,-1
     7d0:	fd842783          	lw	a5,-40(s0)
     7d4:	fff78793          	addi	a5,a5,-1
     7d8:	00078593          	mv	a1,a5
     7dc:	00070513          	mv	a0,a4
     7e0:	f81ff0ef          	jal	ra,760 <min>
     7e4:	fea42223          	sw	a0,-28(s0)
     7e8:	fec42783          	lw	a5,-20(s0)
     7ec:	00179713          	slli	a4,a5,0x1
     7f0:	fe842783          	lw	a5,-24(s0)
     7f4:	00f707b3          	add	a5,a4,a5
     7f8:	fff78713          	addi	a4,a5,-1
     7fc:	fd842783          	lw	a5,-40(s0)
     800:	fff78793          	addi	a5,a5,-1
     804:	00078593          	mv	a1,a5
     808:	00070513          	mv	a0,a4
     80c:	f55ff0ef          	jal	ra,760 <min>
     810:	fea42023          	sw	a0,-32(s0)
     814:	fe842783          	lw	a5,-24(s0)
     818:	0ff7f793          	zext.b	a5,a5
     81c:	fe442703          	lw	a4,-28(s0)
     820:	0ff77713          	zext.b	a4,a4
     824:	fe042683          	lw	a3,-32(s0)
     828:	0ff6f693          	zext.b	a3,a3
     82c:	00070613          	mv	a2,a4
     830:	00078593          	mv	a1,a5
     834:	fdc42503          	lw	a0,-36(s0)
     838:	058000ef          	jal	ra,890 <merge>
     83c:	fec42783          	lw	a5,-20(s0)
     840:	00179793          	slli	a5,a5,0x1
     844:	fe842703          	lw	a4,-24(s0)
     848:	00f707b3          	add	a5,a4,a5
     84c:	fef42423          	sw	a5,-24(s0)
     850:	fd842783          	lw	a5,-40(s0)
     854:	fff78793          	addi	a5,a5,-1
     858:	fe842703          	lw	a4,-24(s0)
     85c:	f6f742e3          	blt	a4,a5,7c0 <mergeSort+0x2c>
     860:	fec42783          	lw	a5,-20(s0)
     864:	00179793          	slli	a5,a5,0x1
     868:	fef42623          	sw	a5,-20(s0)
     86c:	fd842703          	lw	a4,-40(s0)
     870:	fec42783          	lw	a5,-20(s0)
     874:	f4e7c2e3          	blt	a5,a4,7b8 <mergeSort+0x24>
     878:	00000013          	nop
     87c:	00000013          	nop
     880:	02c12083          	lw	ra,44(sp)
     884:	02812403          	lw	s0,40(sp)
     888:	03010113          	addi	sp,sp,48
     88c:	00008067          	ret

00000890 <merge>:
     890:	fa010113          	addi	sp,sp,-96
     894:	04112e23          	sw	ra,92(sp)
     898:	04812c23          	sw	s0,88(sp)
     89c:	04912a23          	sw	s1,84(sp)
     8a0:	05212823          	sw	s2,80(sp)
     8a4:	05312623          	sw	s3,76(sp)
     8a8:	05412423          	sw	s4,72(sp)
     8ac:	05512223          	sw	s5,68(sp)
     8b0:	05612023          	sw	s6,64(sp)
     8b4:	03712e23          	sw	s7,60(sp)
     8b8:	06010413          	addi	s0,sp,96
     8bc:	faa42623          	sw	a0,-84(s0)
     8c0:	00058513          	mv	a0,a1
     8c4:	00060593          	mv	a1,a2
     8c8:	00068613          	mv	a2,a3
     8cc:	00050693          	mv	a3,a0
     8d0:	fad405a3          	sb	a3,-85(s0)
     8d4:	00058693          	mv	a3,a1
     8d8:	fad40523          	sb	a3,-86(s0)
     8dc:	00060693          	mv	a3,a2
     8e0:	fad404a3          	sb	a3,-87(s0)
     8e4:	00010693          	mv	a3,sp
     8e8:	00068493          	mv	s1,a3
     8ec:	faa44683          	lbu	a3,-86(s0)
     8f0:	00068613          	mv	a2,a3
     8f4:	fab44683          	lbu	a3,-85(s0)
     8f8:	40d606b3          	sub	a3,a2,a3
     8fc:	0ff6f693          	zext.b	a3,a3
     900:	00168693          	addi	a3,a3,1
     904:	fcd40623          	sb	a3,-52(s0)
     908:	fa944683          	lbu	a3,-87(s0)
     90c:	00068613          	mv	a2,a3
     910:	faa44683          	lbu	a3,-86(s0)
     914:	40d606b3          	sub	a3,a2,a3
     918:	fcd405a3          	sb	a3,-53(s0)
     91c:	fcc44683          	lbu	a3,-52(s0)
     920:	00068613          	mv	a2,a3
     924:	fff60613          	addi	a2,a2,-1
     928:	fcc42223          	sw	a2,-60(s0)
     92c:	00068b13          	mv	s6,a3
     930:	00000b93          	li	s7,0
     934:	01db5613          	srli	a2,s6,0x1d
     938:	003b9e93          	slli	t4,s7,0x3
     93c:	01d66eb3          	or	t4,a2,t4
     940:	003b1e13          	slli	t3,s6,0x3
     944:	00068a13          	mv	s4,a3
     948:	00000a93          	li	s5,0
     94c:	01da5613          	srli	a2,s4,0x1d
     950:	003a9393          	slli	t2,s5,0x3
     954:	007663b3          	or	t2,a2,t2
     958:	003a1313          	slli	t1,s4,0x3
     95c:	00f68693          	addi	a3,a3,15
     960:	0046d693          	srli	a3,a3,0x4
     964:	00469693          	slli	a3,a3,0x4
     968:	40d10133          	sub	sp,sp,a3
     96c:	00010693          	mv	a3,sp
     970:	00068693          	mv	a3,a3
     974:	fcd42023          	sw	a3,-64(s0)
     978:	fcb44683          	lbu	a3,-53(s0)
     97c:	00068613          	mv	a2,a3
     980:	fff60613          	addi	a2,a2,-1
     984:	fac42e23          	sw	a2,-68(s0)
     988:	00068913          	mv	s2,a3
     98c:	00000993          	li	s3,0
     990:	01d95613          	srli	a2,s2,0x1d
     994:	00399893          	slli	a7,s3,0x3
     998:	011668b3          	or	a7,a2,a7
     99c:	00391813          	slli	a6,s2,0x3
     9a0:	00068f13          	mv	t5,a3
     9a4:	00000f93          	li	t6,0
     9a8:	01df5613          	srli	a2,t5,0x1d
     9ac:	003f9793          	slli	a5,t6,0x3
     9b0:	00f667b3          	or	a5,a2,a5
     9b4:	003f1713          	slli	a4,t5,0x3
     9b8:	00068793          	mv	a5,a3
     9bc:	00f78793          	addi	a5,a5,15
     9c0:	0047d793          	srli	a5,a5,0x4
     9c4:	00479793          	slli	a5,a5,0x4
     9c8:	40f10133          	sub	sp,sp,a5
     9cc:	00010793          	mv	a5,sp
     9d0:	00078793          	mv	a5,a5
     9d4:	faf42c23          	sw	a5,-72(s0)
     9d8:	fc0406a3          	sb	zero,-51(s0)
     9dc:	03c0006f          	j	a18 <merge+0x188>
     9e0:	fab44703          	lbu	a4,-85(s0)
     9e4:	fcd44783          	lbu	a5,-51(s0)
     9e8:	00f707b3          	add	a5,a4,a5
     9ec:	00078713          	mv	a4,a5
     9f0:	fac42783          	lw	a5,-84(s0)
     9f4:	00e78733          	add	a4,a5,a4
     9f8:	fcd44783          	lbu	a5,-51(s0)
     9fc:	00074703          	lbu	a4,0(a4)
     a00:	fc042683          	lw	a3,-64(s0)
     a04:	00f687b3          	add	a5,a3,a5
     a08:	00e78023          	sb	a4,0(a5)
     a0c:	fcd44783          	lbu	a5,-51(s0)
     a10:	00178793          	addi	a5,a5,1
     a14:	fcf406a3          	sb	a5,-51(s0)
     a18:	fcd44703          	lbu	a4,-51(s0)
     a1c:	fcc44783          	lbu	a5,-52(s0)
     a20:	fcf760e3          	bltu	a4,a5,9e0 <merge+0x150>
     a24:	fc040723          	sb	zero,-50(s0)
     a28:	0400006f          	j	a68 <merge+0x1d8>
     a2c:	faa44783          	lbu	a5,-86(s0)
     a30:	00178713          	addi	a4,a5,1
     a34:	fce44783          	lbu	a5,-50(s0)
     a38:	00f707b3          	add	a5,a4,a5
     a3c:	00078713          	mv	a4,a5
     a40:	fac42783          	lw	a5,-84(s0)
     a44:	00e78733          	add	a4,a5,a4
     a48:	fce44783          	lbu	a5,-50(s0)
     a4c:	00074703          	lbu	a4,0(a4)
     a50:	fb842683          	lw	a3,-72(s0)
     a54:	00f687b3          	add	a5,a3,a5
     a58:	00e78023          	sb	a4,0(a5)
     a5c:	fce44783          	lbu	a5,-50(s0)
     a60:	00178793          	addi	a5,a5,1
     a64:	fcf40723          	sb	a5,-50(s0)
     a68:	fce44703          	lbu	a4,-50(s0)
     a6c:	fcb44783          	lbu	a5,-53(s0)
     a70:	faf76ee3          	bltu	a4,a5,a2c <merge+0x19c>
     a74:	fc0406a3          	sb	zero,-51(s0)
     a78:	fc040723          	sb	zero,-50(s0)
     a7c:	fab44783          	lbu	a5,-85(s0)
     a80:	fcf407a3          	sb	a5,-49(s0)
     a84:	0f00006f          	j	b74 <merge+0x2e4>
     a88:	fcd44783          	lbu	a5,-51(s0)
     a8c:	fc042703          	lw	a4,-64(s0)
     a90:	00f707b3          	add	a5,a4,a5
     a94:	0007c703          	lbu	a4,0(a5)
     a98:	fce44783          	lbu	a5,-50(s0)
     a9c:	fb842683          	lw	a3,-72(s0)
     aa0:	00f687b3          	add	a5,a3,a5
     aa4:	0007c783          	lbu	a5,0(a5)
     aa8:	06e7e263          	bltu	a5,a4,b0c <merge+0x27c>
     aac:	fcd44703          	lbu	a4,-51(s0)
     ab0:	fcf44783          	lbu	a5,-49(s0)
     ab4:	fac42683          	lw	a3,-84(s0)
     ab8:	00f687b3          	add	a5,a3,a5
     abc:	fc042683          	lw	a3,-64(s0)
     ac0:	00e68733          	add	a4,a3,a4
     ac4:	00074703          	lbu	a4,0(a4)
     ac8:	00e78023          	sb	a4,0(a5)
     acc:	fcf44783          	lbu	a5,-49(s0)
     ad0:	fac42703          	lw	a4,-84(s0)
     ad4:	00f707b3          	add	a5,a4,a5
     ad8:	0007c783          	lbu	a5,0(a5)
     adc:	00078693          	mv	a3,a5
     ae0:	fcf44703          	lbu	a4,-49(s0)
     ae4:	000017b7          	lui	a5,0x1
     ae8:	2c078613          	addi	a2,a5,704 # 12c0 <main+0x4a8>
     aec:	00070593          	mv	a1,a4
     af0:	00068513          	mv	a0,a3
     af4:	df8ff0ef          	jal	ra,ec <draw_stick>
     af8:	db0ff0ef          	jal	ra,a8 <delay>
     afc:	fcd44783          	lbu	a5,-51(s0)
     b00:	00178793          	addi	a5,a5,1
     b04:	fcf406a3          	sb	a5,-51(s0)
     b08:	0600006f          	j	b68 <merge+0x2d8>
     b0c:	fce44703          	lbu	a4,-50(s0)
     b10:	fcf44783          	lbu	a5,-49(s0)
     b14:	fac42683          	lw	a3,-84(s0)
     b18:	00f687b3          	add	a5,a3,a5
     b1c:	fb842683          	lw	a3,-72(s0)
     b20:	00e68733          	add	a4,a3,a4
     b24:	00074703          	lbu	a4,0(a4)
     b28:	00e78023          	sb	a4,0(a5)
     b2c:	fcf44783          	lbu	a5,-49(s0)
     b30:	fac42703          	lw	a4,-84(s0)
     b34:	00f707b3          	add	a5,a4,a5
     b38:	0007c783          	lbu	a5,0(a5)
     b3c:	00078693          	mv	a3,a5
     b40:	fcf44703          	lbu	a4,-49(s0)
     b44:	000017b7          	lui	a5,0x1
     b48:	2c078613          	addi	a2,a5,704 # 12c0 <main+0x4a8>
     b4c:	00070593          	mv	a1,a4
     b50:	00068513          	mv	a0,a3
     b54:	d98ff0ef          	jal	ra,ec <draw_stick>
     b58:	d50ff0ef          	jal	ra,a8 <delay>
     b5c:	fce44783          	lbu	a5,-50(s0)
     b60:	00178793          	addi	a5,a5,1
     b64:	fcf40723          	sb	a5,-50(s0)
     b68:	fcf44783          	lbu	a5,-49(s0)
     b6c:	00178793          	addi	a5,a5,1
     b70:	fcf407a3          	sb	a5,-49(s0)
     b74:	fcd44703          	lbu	a4,-51(s0)
     b78:	fcc44783          	lbu	a5,-52(s0)
     b7c:	06f77e63          	bgeu	a4,a5,bf8 <merge+0x368>
     b80:	fce44703          	lbu	a4,-50(s0)
     b84:	fcb44783          	lbu	a5,-53(s0)
     b88:	f0f760e3          	bltu	a4,a5,a88 <merge+0x1f8>
     b8c:	06c0006f          	j	bf8 <merge+0x368>
     b90:	fcd44703          	lbu	a4,-51(s0)
     b94:	fcf44783          	lbu	a5,-49(s0)
     b98:	fac42683          	lw	a3,-84(s0)
     b9c:	00f687b3          	add	a5,a3,a5
     ba0:	fc042683          	lw	a3,-64(s0)
     ba4:	00e68733          	add	a4,a3,a4
     ba8:	00074703          	lbu	a4,0(a4)
     bac:	00e78023          	sb	a4,0(a5)
     bb0:	fcf44783          	lbu	a5,-49(s0)
     bb4:	fac42703          	lw	a4,-84(s0)
     bb8:	00f707b3          	add	a5,a4,a5
     bbc:	0007c783          	lbu	a5,0(a5)
     bc0:	00078693          	mv	a3,a5
     bc4:	fcf44703          	lbu	a4,-49(s0)
     bc8:	000017b7          	lui	a5,0x1
     bcc:	2c078613          	addi	a2,a5,704 # 12c0 <main+0x4a8>
     bd0:	00070593          	mv	a1,a4
     bd4:	00068513          	mv	a0,a3
     bd8:	d14ff0ef          	jal	ra,ec <draw_stick>
     bdc:	cccff0ef          	jal	ra,a8 <delay>
     be0:	fcd44783          	lbu	a5,-51(s0)
     be4:	00178793          	addi	a5,a5,1
     be8:	fcf406a3          	sb	a5,-51(s0)
     bec:	fcf44783          	lbu	a5,-49(s0)
     bf0:	00178793          	addi	a5,a5,1
     bf4:	fcf407a3          	sb	a5,-49(s0)
     bf8:	fcd44703          	lbu	a4,-51(s0)
     bfc:	fcc44783          	lbu	a5,-52(s0)
     c00:	f8f768e3          	bltu	a4,a5,b90 <merge+0x300>
     c04:	06c0006f          	j	c70 <merge+0x3e0>
     c08:	fce44703          	lbu	a4,-50(s0)
     c0c:	fcf44783          	lbu	a5,-49(s0)
     c10:	fac42683          	lw	a3,-84(s0)
     c14:	00f687b3          	add	a5,a3,a5
     c18:	fb842683          	lw	a3,-72(s0)
     c1c:	00e68733          	add	a4,a3,a4
     c20:	00074703          	lbu	a4,0(a4)
     c24:	00e78023          	sb	a4,0(a5)
     c28:	fcf44783          	lbu	a5,-49(s0)
     c2c:	fac42703          	lw	a4,-84(s0)
     c30:	00f707b3          	add	a5,a4,a5
     c34:	0007c783          	lbu	a5,0(a5)
     c38:	00078693          	mv	a3,a5
     c3c:	fcf44703          	lbu	a4,-49(s0)
     c40:	000017b7          	lui	a5,0x1
     c44:	2c078613          	addi	a2,a5,704 # 12c0 <main+0x4a8>
     c48:	00070593          	mv	a1,a4
     c4c:	00068513          	mv	a0,a3
     c50:	c9cff0ef          	jal	ra,ec <draw_stick>
     c54:	c54ff0ef          	jal	ra,a8 <delay>
     c58:	fce44783          	lbu	a5,-50(s0)
     c5c:	00178793          	addi	a5,a5,1
     c60:	fcf40723          	sb	a5,-50(s0)
     c64:	fcf44783          	lbu	a5,-49(s0)
     c68:	00178793          	addi	a5,a5,1
     c6c:	fcf407a3          	sb	a5,-49(s0)
     c70:	fce44703          	lbu	a4,-50(s0)
     c74:	fcb44783          	lbu	a5,-53(s0)
     c78:	f8f768e3          	bltu	a4,a5,c08 <merge+0x378>
     c7c:	00048113          	mv	sp,s1
     c80:	00000013          	nop
     c84:	fa040113          	addi	sp,s0,-96
     c88:	05c12083          	lw	ra,92(sp)
     c8c:	05812403          	lw	s0,88(sp)
     c90:	05412483          	lw	s1,84(sp)
     c94:	05012903          	lw	s2,80(sp)
     c98:	04c12983          	lw	s3,76(sp)
     c9c:	04812a03          	lw	s4,72(sp)
     ca0:	04412a83          	lw	s5,68(sp)
     ca4:	04012b03          	lw	s6,64(sp)
     ca8:	03c12b83          	lw	s7,60(sp)
     cac:	06010113          	addi	sp,sp,96
     cb0:	00008067          	ret

00000cb4 <insertionSort>:
     cb4:	fd010113          	addi	sp,sp,-48
     cb8:	02112623          	sw	ra,44(sp)
     cbc:	02812423          	sw	s0,40(sp)
     cc0:	03010413          	addi	s0,sp,48
     cc4:	fca42e23          	sw	a0,-36(s0)
     cc8:	fcb42c23          	sw	a1,-40(s0)
     ccc:	00100793          	li	a5,1
     cd0:	fef42623          	sw	a5,-20(s0)
     cd4:	1200006f          	j	df4 <insertionSort+0x140>
     cd8:	fec42783          	lw	a5,-20(s0)
     cdc:	00279793          	slli	a5,a5,0x2
     ce0:	fdc42703          	lw	a4,-36(s0)
     ce4:	00f707b3          	add	a5,a4,a5
     ce8:	0007a783          	lw	a5,0(a5)
     cec:	fef42223          	sw	a5,-28(s0)
     cf0:	fec42783          	lw	a5,-20(s0)
     cf4:	fff78793          	addi	a5,a5,-1
     cf8:	fef42423          	sw	a5,-24(s0)
     cfc:	0740006f          	j	d70 <insertionSort+0xbc>
     d00:	fe842783          	lw	a5,-24(s0)
     d04:	00279793          	slli	a5,a5,0x2
     d08:	fdc42703          	lw	a4,-36(s0)
     d0c:	00f70733          	add	a4,a4,a5
     d10:	fe842783          	lw	a5,-24(s0)
     d14:	00178793          	addi	a5,a5,1
     d18:	00279793          	slli	a5,a5,0x2
     d1c:	fdc42683          	lw	a3,-36(s0)
     d20:	00f687b3          	add	a5,a3,a5
     d24:	00072703          	lw	a4,0(a4)
     d28:	00e7a023          	sw	a4,0(a5)
     d2c:	fe842783          	lw	a5,-24(s0)
     d30:	00178793          	addi	a5,a5,1
     d34:	00279793          	slli	a5,a5,0x2
     d38:	fdc42703          	lw	a4,-36(s0)
     d3c:	00f707b3          	add	a5,a4,a5
     d40:	0007a703          	lw	a4,0(a5)
     d44:	fe842783          	lw	a5,-24(s0)
     d48:	00178693          	addi	a3,a5,1
     d4c:	000017b7          	lui	a5,0x1
     d50:	2e878613          	addi	a2,a5,744 # 12e8 <main+0x4d0>
     d54:	00068593          	mv	a1,a3
     d58:	00070513          	mv	a0,a4
     d5c:	b90ff0ef          	jal	ra,ec <draw_stick>
     d60:	b48ff0ef          	jal	ra,a8 <delay>
     d64:	fe842783          	lw	a5,-24(s0)
     d68:	fff78793          	addi	a5,a5,-1
     d6c:	fef42423          	sw	a5,-24(s0)
     d70:	fe842783          	lw	a5,-24(s0)
     d74:	0207c063          	bltz	a5,d94 <insertionSort+0xe0>
     d78:	fe842783          	lw	a5,-24(s0)
     d7c:	00279793          	slli	a5,a5,0x2
     d80:	fdc42703          	lw	a4,-36(s0)
     d84:	00f707b3          	add	a5,a4,a5
     d88:	0007a783          	lw	a5,0(a5)
     d8c:	fe442703          	lw	a4,-28(s0)
     d90:	f6f748e3          	blt	a4,a5,d00 <insertionSort+0x4c>
     d94:	fe842783          	lw	a5,-24(s0)
     d98:	00178793          	addi	a5,a5,1
     d9c:	00279793          	slli	a5,a5,0x2
     da0:	fdc42703          	lw	a4,-36(s0)
     da4:	00f707b3          	add	a5,a4,a5
     da8:	fe442703          	lw	a4,-28(s0)
     dac:	00e7a023          	sw	a4,0(a5)
     db0:	fe842783          	lw	a5,-24(s0)
     db4:	00178793          	addi	a5,a5,1
     db8:	00279793          	slli	a5,a5,0x2
     dbc:	fdc42703          	lw	a4,-36(s0)
     dc0:	00f707b3          	add	a5,a4,a5
     dc4:	0007a703          	lw	a4,0(a5)
     dc8:	fe842783          	lw	a5,-24(s0)
     dcc:	00178693          	addi	a3,a5,1
     dd0:	000017b7          	lui	a5,0x1
     dd4:	2e878613          	addi	a2,a5,744 # 12e8 <main+0x4d0>
     dd8:	00068593          	mv	a1,a3
     ddc:	00070513          	mv	a0,a4
     de0:	b0cff0ef          	jal	ra,ec <draw_stick>
     de4:	ac4ff0ef          	jal	ra,a8 <delay>
     de8:	fec42783          	lw	a5,-20(s0)
     dec:	00178793          	addi	a5,a5,1
     df0:	fef42623          	sw	a5,-20(s0)
     df4:	fec42703          	lw	a4,-20(s0)
     df8:	fd842783          	lw	a5,-40(s0)
     dfc:	ecf74ee3          	blt	a4,a5,cd8 <insertionSort+0x24>
     e00:	00000013          	nop
     e04:	00000013          	nop
     e08:	02c12083          	lw	ra,44(sp)
     e0c:	02812403          	lw	s0,40(sp)
     e10:	03010113          	addi	sp,sp,48
     e14:	00008067          	ret

00000e18 <main>:
     e18:	f4010113          	addi	sp,sp,-192
     e1c:	0a112e23          	sw	ra,188(sp)
     e20:	0a812c23          	sw	s0,184(sp)
     e24:	0c010413          	addi	s0,sp,192
     e28:	00c007b7          	lui	a5,0xc00
     e2c:	0007a783          	lw	a5,0(a5) # c00000 <_stack+0x7fec00>
     e30:	fcf42c23          	sw	a5,-40(s0)
     e34:	fd842703          	lw	a4,-40(s0)
     e38:	00700793          	li	a5,7
     e3c:	46f70263          	beq	a4,a5,12a0 <main+0x488>
     e40:	fd842703          	lw	a4,-40(s0)
     e44:	00700793          	li	a5,7
     e48:	54e7cc63          	blt	a5,a4,13a0 <main+0x588>
     e4c:	fd842703          	lw	a4,-40(s0)
     e50:	00600793          	li	a5,6
     e54:	22f70c63          	beq	a4,a5,108c <main+0x274>
     e58:	fd842703          	lw	a4,-40(s0)
     e5c:	00600793          	li	a5,6
     e60:	54e7c063          	blt	a5,a4,13a0 <main+0x588>
     e64:	fd842703          	lw	a4,-40(s0)
     e68:	00400793          	li	a5,4
     e6c:	00f70a63          	beq	a4,a5,e80 <main+0x68>
     e70:	fd842703          	lw	a4,-40(s0)
     e74:	00500793          	li	a5,5
     e78:	10f70a63          	beq	a4,a5,f8c <main+0x174>
     e7c:	5240006f          	j	13a0 <main+0x588>
     e80:	a28ff0ef          	jal	ra,a8 <delay>
     e84:	00b00793          	li	a5,11
     e88:	faf40a23          	sb	a5,-76(s0)
     e8c:	00500793          	li	a5,5
     e90:	faf40aa3          	sb	a5,-75(s0)
     e94:	00900793          	li	a5,9
     e98:	faf40b23          	sb	a5,-74(s0)
     e9c:	00d00793          	li	a5,13
     ea0:	faf40ba3          	sb	a5,-73(s0)
     ea4:	01200793          	li	a5,18
     ea8:	faf40c23          	sb	a5,-72(s0)
     eac:	00700793          	li	a5,7
     eb0:	faf40ca3          	sb	a5,-71(s0)
     eb4:	00100793          	li	a5,1
     eb8:	faf40d23          	sb	a5,-70(s0)
     ebc:	00200793          	li	a5,2
     ec0:	faf40da3          	sb	a5,-69(s0)
     ec4:	00c00793          	li	a5,12
     ec8:	faf40e23          	sb	a5,-68(s0)
     ecc:	00a00793          	li	a5,10
     ed0:	faf40ea3          	sb	a5,-67(s0)
     ed4:	00400793          	li	a5,4
     ed8:	faf40f23          	sb	a5,-66(s0)
     edc:	00300793          	li	a5,3
     ee0:	faf40fa3          	sb	a5,-65(s0)
     ee4:	00e00793          	li	a5,14
     ee8:	fcf40023          	sb	a5,-64(s0)
     eec:	00600793          	li	a5,6
     ef0:	fcf400a3          	sb	a5,-63(s0)
     ef4:	00f00793          	li	a5,15
     ef8:	fcf40123          	sb	a5,-62(s0)
     efc:	01100793          	li	a5,17
     f00:	fcf401a3          	sb	a5,-61(s0)
     f04:	00800793          	li	a5,8
     f08:	fcf40223          	sb	a5,-60(s0)
     f0c:	01000793          	li	a5,16
     f10:	fcf402a3          	sb	a5,-59(s0)
     f14:	01200793          	li	a5,18
     f18:	fcf42423          	sw	a5,-56(s0)
     f1c:	fe042423          	sw	zero,-24(s0)
     f20:	0300006f          	j	f50 <main+0x138>
     f24:	fe842783          	lw	a5,-24(s0)
     f28:	ff078793          	addi	a5,a5,-16
     f2c:	008787b3          	add	a5,a5,s0
     f30:	fc47c783          	lbu	a5,-60(a5)
     f34:	00000613          	li	a2,0
     f38:	fe842583          	lw	a1,-24(s0)
     f3c:	00078513          	mv	a0,a5
     f40:	9acff0ef          	jal	ra,ec <draw_stick>
     f44:	fe842783          	lw	a5,-24(s0)
     f48:	00178793          	addi	a5,a5,1
     f4c:	fef42423          	sw	a5,-24(s0)
     f50:	fe842703          	lw	a4,-24(s0)
     f54:	fc842783          	lw	a5,-56(s0)
     f58:	fcf746e3          	blt	a4,a5,f24 <main+0x10c>
     f5c:	94cff0ef          	jal	ra,a8 <delay>
     f60:	fc842783          	lw	a5,-56(s0)
     f64:	0ff7f793          	zext.b	a5,a5
     f68:	fff78793          	addi	a5,a5,-1
     f6c:	0ff7f713          	zext.b	a4,a5
     f70:	fb440793          	addi	a5,s0,-76
     f74:	00070613          	mv	a2,a4
     f78:	00000593          	li	a1,0
     f7c:	00078513          	mv	a0,a5
     f80:	dc4ff0ef          	jal	ra,544 <quickSortIterative>
     f84:	924ff0ef          	jal	ra,a8 <delay>
     f88:	ef9ff06f          	j	e80 <main+0x68>
     f8c:	91cff0ef          	jal	ra,a8 <delay>
     f90:	00b00793          	li	a5,11
     f94:	f4f42223          	sw	a5,-188(s0)
     f98:	00500793          	li	a5,5
     f9c:	f4f42423          	sw	a5,-184(s0)
     fa0:	00900793          	li	a5,9
     fa4:	f4f42623          	sw	a5,-180(s0)
     fa8:	00d00793          	li	a5,13
     fac:	f4f42823          	sw	a5,-176(s0)
     fb0:	01200793          	li	a5,18
     fb4:	f4f42a23          	sw	a5,-172(s0)
     fb8:	00700793          	li	a5,7
     fbc:	f4f42c23          	sw	a5,-168(s0)
     fc0:	00100793          	li	a5,1
     fc4:	f4f42e23          	sw	a5,-164(s0)
     fc8:	00200793          	li	a5,2
     fcc:	f6f42023          	sw	a5,-160(s0)
     fd0:	00c00793          	li	a5,12
     fd4:	f6f42223          	sw	a5,-156(s0)
     fd8:	00a00793          	li	a5,10
     fdc:	f6f42423          	sw	a5,-152(s0)
     fe0:	00400793          	li	a5,4
     fe4:	f6f42623          	sw	a5,-148(s0)
     fe8:	00300793          	li	a5,3
     fec:	f6f42823          	sw	a5,-144(s0)
     ff0:	00e00793          	li	a5,14
     ff4:	f6f42a23          	sw	a5,-140(s0)
     ff8:	00600793          	li	a5,6
     ffc:	f6f42c23          	sw	a5,-136(s0)
    1000:	00f00793          	li	a5,15
    1004:	f6f42e23          	sw	a5,-132(s0)
    1008:	01100793          	li	a5,17
    100c:	f8f42023          	sw	a5,-128(s0)
    1010:	00800793          	li	a5,8
    1014:	f8f42223          	sw	a5,-124(s0)
    1018:	01000793          	li	a5,16
    101c:	f8f42423          	sw	a5,-120(s0)
    1020:	01200793          	li	a5,18
    1024:	fcf42623          	sw	a5,-52(s0)
    1028:	fe042223          	sw	zero,-28(s0)
    102c:	0380006f          	j	1064 <main+0x24c>
    1030:	fe442783          	lw	a5,-28(s0)
    1034:	00279793          	slli	a5,a5,0x2
    1038:	ff078793          	addi	a5,a5,-16
    103c:	008787b3          	add	a5,a5,s0
    1040:	f547a703          	lw	a4,-172(a5)
    1044:	000017b7          	lui	a5,0x1
    1048:	2e878613          	addi	a2,a5,744 # 12e8 <main+0x4d0>
    104c:	fe442583          	lw	a1,-28(s0)
    1050:	00070513          	mv	a0,a4
    1054:	898ff0ef          	jal	ra,ec <draw_stick>
    1058:	fe442783          	lw	a5,-28(s0)
    105c:	00178793          	addi	a5,a5,1
    1060:	fef42223          	sw	a5,-28(s0)
    1064:	fe442703          	lw	a4,-28(s0)
    1068:	fcc42783          	lw	a5,-52(s0)
    106c:	fcf742e3          	blt	a4,a5,1030 <main+0x218>
    1070:	838ff0ef          	jal	ra,a8 <delay>
    1074:	f4440793          	addi	a5,s0,-188
    1078:	fcc42583          	lw	a1,-52(s0)
    107c:	00078513          	mv	a0,a5
    1080:	c35ff0ef          	jal	ra,cb4 <insertionSort>
    1084:	824ff0ef          	jal	ra,a8 <delay>
    1088:	f05ff06f          	j	f8c <main+0x174>
    108c:	fe042623          	sw	zero,-20(s0)
    1090:	06c0006f          	j	10fc <main+0x2e4>
    1094:	fec42783          	lw	a5,-20(s0)
    1098:	00279713          	slli	a4,a5,0x2
    109c:	034007b7          	lui	a5,0x3400
    10a0:	00f707b3          	add	a5,a4,a5
    10a4:	fff00713          	li	a4,-1
    10a8:	00e7a023          	sw	a4,0(a5) # 3400000 <_stack+0x2ffec00>
    10ac:	fec42703          	lw	a4,-20(s0)
    10b0:	000017b7          	lui	a5,0x1
    10b4:	2c078793          	addi	a5,a5,704 # 12c0 <main+0x4a8>
    10b8:	00f707b3          	add	a5,a4,a5
    10bc:	00279713          	slli	a4,a5,0x2
    10c0:	034007b7          	lui	a5,0x3400
    10c4:	ec078793          	addi	a5,a5,-320 # 33ffec0 <_stack+0x2ffeac0>
    10c8:	00f707b3          	add	a5,a4,a5
    10cc:	fff00713          	li	a4,-1
    10d0:	00e7a023          	sw	a4,0(a5)
    10d4:	fec42783          	lw	a5,-20(s0)
    10d8:	00279713          	slli	a4,a5,0x2
    10dc:	034097b7          	lui	a5,0x3409
    10e0:	4c078793          	addi	a5,a5,1216 # 34094c0 <_stack+0x30080c0>
    10e4:	00f707b3          	add	a5,a4,a5
    10e8:	fff00713          	li	a4,-1
    10ec:	00e7a023          	sw	a4,0(a5)
    10f0:	fec42783          	lw	a5,-20(s0)
    10f4:	00178793          	addi	a5,a5,1
    10f8:	fef42623          	sw	a5,-20(s0)
    10fc:	fec42703          	lw	a4,-20(s0)
    1100:	04f00793          	li	a5,79
    1104:	f8e7d8e3          	bge	a5,a4,1094 <main+0x27c>
    1108:	fe042623          	sw	zero,-20(s0)
    110c:	0900006f          	j	119c <main+0x384>
    1110:	fec42703          	lw	a4,-20(s0)
    1114:	00070793          	mv	a5,a4
    1118:	00279793          	slli	a5,a5,0x2
    111c:	00e787b3          	add	a5,a5,a4
    1120:	00679793          	slli	a5,a5,0x6
    1124:	00078713          	mv	a4,a5
    1128:	034007b7          	lui	a5,0x3400
    112c:	00f707b3          	add	a5,a4,a5
    1130:	fff00713          	li	a4,-1
    1134:	00e7a023          	sw	a4,0(a5) # 3400000 <_stack+0x2ffec00>
    1138:	fec42703          	lw	a4,-20(s0)
    113c:	00070793          	mv	a5,a4
    1140:	00279793          	slli	a5,a5,0x2
    1144:	00e787b3          	add	a5,a5,a4
    1148:	00679793          	slli	a5,a5,0x6
    114c:	00078713          	mv	a4,a5
    1150:	034007b7          	lui	a5,0x3400
    1154:	09c78793          	addi	a5,a5,156 # 340009c <_stack+0x2ffec9c>
    1158:	00f707b3          	add	a5,a4,a5
    115c:	fff00713          	li	a4,-1
    1160:	00e7a023          	sw	a4,0(a5)
    1164:	fec42703          	lw	a4,-20(s0)
    1168:	00070793          	mv	a5,a4
    116c:	00279793          	slli	a5,a5,0x2
    1170:	00e787b3          	add	a5,a5,a4
    1174:	00679793          	slli	a5,a5,0x6
    1178:	00078713          	mv	a4,a5
    117c:	034007b7          	lui	a5,0x3400
    1180:	13c78793          	addi	a5,a5,316 # 340013c <_stack+0x2ffed3c>
    1184:	00f707b3          	add	a5,a4,a5
    1188:	fff00713          	li	a4,-1
    118c:	00e7a023          	sw	a4,0(a5)
    1190:	fec42783          	lw	a5,-20(s0)
    1194:	00178793          	addi	a5,a5,1
    1198:	fef42623          	sw	a5,-20(s0)
    119c:	fec42703          	lw	a4,-20(s0)
    11a0:	07700793          	li	a5,119
    11a4:	f6e7d6e3          	bge	a5,a4,1110 <main+0x2f8>
    11a8:	f01fe0ef          	jal	ra,a8 <delay>
    11ac:	00b00793          	li	a5,11
    11b0:	faf40023          	sb	a5,-96(s0)
    11b4:	00500793          	li	a5,5
    11b8:	faf400a3          	sb	a5,-95(s0)
    11bc:	00900793          	li	a5,9
    11c0:	faf40123          	sb	a5,-94(s0)
    11c4:	00d00793          	li	a5,13
    11c8:	faf401a3          	sb	a5,-93(s0)
    11cc:	01200793          	li	a5,18
    11d0:	faf40223          	sb	a5,-92(s0)
    11d4:	00700793          	li	a5,7
    11d8:	faf402a3          	sb	a5,-91(s0)
    11dc:	00100793          	li	a5,1
    11e0:	faf40323          	sb	a5,-90(s0)
    11e4:	00200793          	li	a5,2
    11e8:	faf403a3          	sb	a5,-89(s0)
    11ec:	00c00793          	li	a5,12
    11f0:	faf40423          	sb	a5,-88(s0)
    11f4:	00a00793          	li	a5,10
    11f8:	faf404a3          	sb	a5,-87(s0)
    11fc:	00400793          	li	a5,4
    1200:	faf40523          	sb	a5,-86(s0)
    1204:	00300793          	li	a5,3
    1208:	faf405a3          	sb	a5,-85(s0)
    120c:	00e00793          	li	a5,14
    1210:	faf40623          	sb	a5,-84(s0)
    1214:	00600793          	li	a5,6
    1218:	faf406a3          	sb	a5,-83(s0)
    121c:	00f00793          	li	a5,15
    1220:	faf40723          	sb	a5,-82(s0)
    1224:	01100793          	li	a5,17
    1228:	faf407a3          	sb	a5,-81(s0)
    122c:	00800793          	li	a5,8
    1230:	faf40823          	sb	a5,-80(s0)
    1234:	01000793          	li	a5,16
    1238:	faf408a3          	sb	a5,-79(s0)
    123c:	01200793          	li	a5,18
    1240:	fcf42823          	sw	a5,-48(s0)
    1244:	fe042023          	sw	zero,-32(s0)
    1248:	0300006f          	j	1278 <main+0x460>
    124c:	fe042783          	lw	a5,-32(s0)
    1250:	ff078793          	addi	a5,a5,-16
    1254:	008787b3          	add	a5,a5,s0
    1258:	fb07c783          	lbu	a5,-80(a5)
    125c:	02800613          	li	a2,40
    1260:	fe042583          	lw	a1,-32(s0)
    1264:	00078513          	mv	a0,a5
    1268:	e85fe0ef          	jal	ra,ec <draw_stick>
    126c:	fe042783          	lw	a5,-32(s0)
    1270:	00178793          	addi	a5,a5,1
    1274:	fef42023          	sw	a5,-32(s0)
    1278:	fe042703          	lw	a4,-32(s0)
    127c:	fd042783          	lw	a5,-48(s0)
    1280:	fcf746e3          	blt	a4,a5,124c <main+0x434>
    1284:	e25fe0ef          	jal	ra,a8 <delay>
    1288:	fa040793          	addi	a5,s0,-96
    128c:	fd042583          	lw	a1,-48(s0)
    1290:	00078513          	mv	a0,a5
    1294:	fa1fe0ef          	jal	ra,234 <bubbleSort>
    1298:	e11fe0ef          	jal	ra,a8 <delay>
    129c:	f0dff06f          	j	11a8 <main+0x390>
    12a0:	e09fe0ef          	jal	ra,a8 <delay>
    12a4:	00b00793          	li	a5,11
    12a8:	f8f40623          	sb	a5,-116(s0)
    12ac:	00500793          	li	a5,5
    12b0:	f8f406a3          	sb	a5,-115(s0)
    12b4:	00900793          	li	a5,9
    12b8:	f8f40723          	sb	a5,-114(s0)
    12bc:	00d00793          	li	a5,13
    12c0:	f8f407a3          	sb	a5,-113(s0)
    12c4:	01200793          	li	a5,18
    12c8:	f8f40823          	sb	a5,-112(s0)
    12cc:	00700793          	li	a5,7
    12d0:	f8f408a3          	sb	a5,-111(s0)
    12d4:	00100793          	li	a5,1
    12d8:	f8f40923          	sb	a5,-110(s0)
    12dc:	00200793          	li	a5,2
    12e0:	f8f409a3          	sb	a5,-109(s0)
    12e4:	00c00793          	li	a5,12
    12e8:	f8f40a23          	sb	a5,-108(s0)
    12ec:	00a00793          	li	a5,10
    12f0:	f8f40aa3          	sb	a5,-107(s0)
    12f4:	00400793          	li	a5,4
    12f8:	f8f40b23          	sb	a5,-106(s0)
    12fc:	00300793          	li	a5,3
    1300:	f8f40ba3          	sb	a5,-105(s0)
    1304:	00e00793          	li	a5,14
    1308:	f8f40c23          	sb	a5,-104(s0)
    130c:	00600793          	li	a5,6
    1310:	f8f40ca3          	sb	a5,-103(s0)
    1314:	00f00793          	li	a5,15
    1318:	f8f40d23          	sb	a5,-102(s0)
    131c:	01100793          	li	a5,17
    1320:	f8f40da3          	sb	a5,-101(s0)
    1324:	00800793          	li	a5,8
    1328:	f8f40e23          	sb	a5,-100(s0)
    132c:	01000793          	li	a5,16
    1330:	f8f40ea3          	sb	a5,-99(s0)
    1334:	01200793          	li	a5,18
    1338:	fcf42a23          	sw	a5,-44(s0)
    133c:	fc042e23          	sw	zero,-36(s0)
    1340:	0380006f          	j	1378 <main+0x560>
    1344:	fdc42783          	lw	a5,-36(s0)
    1348:	ff078793          	addi	a5,a5,-16
    134c:	008787b3          	add	a5,a5,s0
    1350:	f9c7c783          	lbu	a5,-100(a5)
    1354:	00078713          	mv	a4,a5
    1358:	000017b7          	lui	a5,0x1
    135c:	2c078613          	addi	a2,a5,704 # 12c0 <main+0x4a8>
    1360:	fdc42583          	lw	a1,-36(s0)
    1364:	00070513          	mv	a0,a4
    1368:	d85fe0ef          	jal	ra,ec <draw_stick>
    136c:	fdc42783          	lw	a5,-36(s0)
    1370:	00178793          	addi	a5,a5,1
    1374:	fcf42e23          	sw	a5,-36(s0)
    1378:	fdc42703          	lw	a4,-36(s0)
    137c:	fd442783          	lw	a5,-44(s0)
    1380:	fcf742e3          	blt	a4,a5,1344 <main+0x52c>
    1384:	d25fe0ef          	jal	ra,a8 <delay>
    1388:	f8c40793          	addi	a5,s0,-116
    138c:	fd442583          	lw	a1,-44(s0)
    1390:	00078513          	mv	a0,a5
    1394:	c00ff0ef          	jal	ra,794 <mergeSort>
    1398:	d11fe0ef          	jal	ra,a8 <delay>
    139c:	f05ff06f          	j	12a0 <main+0x488>
    13a0:	0000006f          	j	13a0 <main+0x588>
