
sorting_VGA_rv32i.elf:     file format elf32-littleriscv


Disassembly of section .vectors:

00000000 <reset_handler-0x18>:
   0:	00000013          	nop
   4:	00000013          	nop
   8:	00000013          	nop
   c:	00000013          	nop
  10:	00000013          	nop
  14:	0040006f          	j	18 <reset_handler>

00000018 <reset_handler>:
  18:	00000093          	li	ra,0
  1c:	00008113          	mv	sp,ra
  20:	00008193          	mv	gp,ra
  24:	00008213          	mv	tp,ra
  28:	00008293          	mv	t0,ra
  2c:	00008313          	mv	t1,ra
  30:	00008393          	mv	t2,ra
  34:	00008413          	mv	s0,ra
  38:	00008493          	mv	s1,ra
  3c:	00008513          	mv	a0,ra
  40:	00008593          	mv	a1,ra
  44:	00008613          	mv	a2,ra
  48:	00008693          	mv	a3,ra
  4c:	00008713          	mv	a4,ra
  50:	00008793          	mv	a5,ra
  54:	00008813          	mv	a6,ra
  58:	00008893          	mv	a7,ra
  5c:	00008913          	mv	s2,ra
  60:	00008993          	mv	s3,ra
  64:	00008a13          	mv	s4,ra
  68:	00008a93          	mv	s5,ra
  6c:	00008b13          	mv	s6,ra
  70:	00008b93          	mv	s7,ra
  74:	00008c13          	mv	s8,ra
  78:	00008c93          	mv	s9,ra
  7c:	00008d13          	mv	s10,ra
  80:	00008d93          	mv	s11,ra
  84:	00008e13          	mv	t3,ra
  88:	00008e93          	mv	t4,ra
  8c:	00008f13          	mv	t5,ra
  90:	00008f93          	mv	t6,ra
  94:	00c002b7          	lui	t0,0xc00
  98:	00c28293          	addi	t0,t0,12 # c0000c <_stack_start+0x7fec0c>
  9c:	0002a103          	lw	sp,0(t0)
  a0:	571000ef          	jal	ra,e10 <main>
  a4:	00100073          	ebreak

Disassembly of section .text:

000000a8 <delay>:
      a8:	fe010113          	addi	sp,sp,-32
      ac:	00812e23          	sw	s0,28(sp)
      b0:	02010413          	addi	s0,sp,32
      b4:	fe042623          	sw	zero,-20(s0)
      b8:	0100006f          	j	c8 <delay+0x20>
      bc:	fec42783          	lw	a5,-20(s0)
      c0:	00178793          	addi	a5,a5,1
      c4:	fef42623          	sw	a5,-20(s0)
      c8:	fec42703          	lw	a4,-20(s0)
      cc:	000147b7          	lui	a5,0x14
      d0:	87f78793          	addi	a5,a5,-1921 # 1387f <_endtext+0x12547>
      d4:	fee7d4e3          	bge	a5,a4,bc <delay+0x14>
      d8:	00000013          	nop
      dc:	00000013          	nop
      e0:	01c12403          	lw	s0,28(sp)
      e4:	02010113          	addi	sp,sp,32
      e8:	00008067          	ret

000000ec <draw_stick>:
      ec:	fc010113          	addi	sp,sp,-64
      f0:	02812e23          	sw	s0,60(sp)
      f4:	04010413          	addi	s0,sp,64
      f8:	fca42623          	sw	a0,-52(s0)
      fc:	fcb42423          	sw	a1,-56(s0)
     100:	fcc42223          	sw	a2,-60(s0)
     104:	fc842783          	lw	a5,-56(s0)
     108:	14178793          	addi	a5,a5,321
     10c:	00179793          	slli	a5,a5,0x1
     110:	fc442703          	lw	a4,-60(s0)
     114:	00f707b3          	add	a5,a4,a5
     118:	fef42223          	sw	a5,-28(s0)
     11c:	000017b7          	lui	a5,0x1
     120:	e1078793          	addi	a5,a5,-496 # e10 <main>
     124:	fef42023          	sw	a5,-32(s0)
     128:	fcc42703          	lw	a4,-52(s0)
     12c:	00070793          	mv	a5,a4
     130:	00279793          	slli	a5,a5,0x2
     134:	00e787b3          	add	a5,a5,a4
     138:	00479793          	slli	a5,a5,0x4
     13c:	00178793          	addi	a5,a5,1
     140:	fcf42e23          	sw	a5,-36(s0)
     144:	fe042623          	sw	zero,-20(s0)
     148:	0340006f          	j	17c <draw_stick+0x90>
     14c:	fe442703          	lw	a4,-28(s0)
     150:	fec42783          	lw	a5,-20(s0)
     154:	40f70733          	sub	a4,a4,a5
     158:	fe042783          	lw	a5,-32(s0)
     15c:	00f707b3          	add	a5,a4,a5
     160:	00279713          	slli	a4,a5,0x2
     164:	034007b7          	lui	a5,0x3400
     168:	00f707b3          	add	a5,a4,a5
     16c:	0007a023          	sw	zero,0(a5) # 3400000 <_stack+0x2ffec00>
     170:	fec42783          	lw	a5,-20(s0)
     174:	05078793          	addi	a5,a5,80
     178:	fef42623          	sw	a5,-20(s0)
     17c:	fec42703          	lw	a4,-20(s0)
     180:	000017b7          	lui	a5,0x1
     184:	96078793          	addi	a5,a5,-1696 # 960 <merge+0xd0>
     188:	fce7d2e3          	bge	a5,a4,14c <draw_stick+0x60>
     18c:	fe042423          	sw	zero,-24(s0)
     190:	0380006f          	j	1c8 <draw_stick+0xdc>
     194:	fe442703          	lw	a4,-28(s0)
     198:	fe842783          	lw	a5,-24(s0)
     19c:	40f70733          	sub	a4,a4,a5
     1a0:	fe042783          	lw	a5,-32(s0)
     1a4:	00f707b3          	add	a5,a4,a5
     1a8:	00279713          	slli	a4,a5,0x2
     1ac:	034007b7          	lui	a5,0x3400
     1b0:	00f707b3          	add	a5,a4,a5
     1b4:	fff00713          	li	a4,-1
     1b8:	00e7a023          	sw	a4,0(a5) # 3400000 <_stack+0x2ffec00>
     1bc:	fe842783          	lw	a5,-24(s0)
     1c0:	05078793          	addi	a5,a5,80
     1c4:	fef42423          	sw	a5,-24(s0)
     1c8:	fe842703          	lw	a4,-24(s0)
     1cc:	fdc42783          	lw	a5,-36(s0)
     1d0:	fcf742e3          	blt	a4,a5,194 <draw_stick+0xa8>
     1d4:	00000013          	nop
     1d8:	00000013          	nop
     1dc:	03c12403          	lw	s0,60(sp)
     1e0:	04010113          	addi	sp,sp,64
     1e4:	00008067          	ret

000001e8 <swap>:
     1e8:	fd010113          	addi	sp,sp,-48
     1ec:	02812623          	sw	s0,44(sp)
     1f0:	03010413          	addi	s0,sp,48
     1f4:	fca42e23          	sw	a0,-36(s0)
     1f8:	fcb42c23          	sw	a1,-40(s0)
     1fc:	fdc42783          	lw	a5,-36(s0)
     200:	0007c783          	lbu	a5,0(a5)
     204:	fef407a3          	sb	a5,-17(s0)
     208:	fd842783          	lw	a5,-40(s0)
     20c:	0007c703          	lbu	a4,0(a5)
     210:	fdc42783          	lw	a5,-36(s0)
     214:	00e78023          	sb	a4,0(a5)
     218:	fd842783          	lw	a5,-40(s0)
     21c:	fef44703          	lbu	a4,-17(s0)
     220:	00e78023          	sb	a4,0(a5)
     224:	00000013          	nop
     228:	02c12403          	lw	s0,44(sp)
     22c:	03010113          	addi	sp,sp,48
     230:	00008067          	ret

00000234 <bubbleSort>:
     234:	fd010113          	addi	sp,sp,-48
     238:	02112623          	sw	ra,44(sp)
     23c:	02812423          	sw	s0,40(sp)
     240:	03010413          	addi	s0,sp,48
     244:	fca42e23          	sw	a0,-36(s0)
     248:	fcb42c23          	sw	a1,-40(s0)
     24c:	fe042623          	sw	zero,-20(s0)
     250:	0e00006f          	j	330 <bubbleSort+0xfc>
     254:	fe042423          	sw	zero,-24(s0)
     258:	0b40006f          	j	30c <bubbleSort+0xd8>
     25c:	fe842783          	lw	a5,-24(s0)
     260:	fdc42703          	lw	a4,-36(s0)
     264:	00f707b3          	add	a5,a4,a5
     268:	0007c703          	lbu	a4,0(a5)
     26c:	fe842783          	lw	a5,-24(s0)
     270:	00178793          	addi	a5,a5,1
     274:	fdc42683          	lw	a3,-36(s0)
     278:	00f687b3          	add	a5,a3,a5
     27c:	0007c783          	lbu	a5,0(a5)
     280:	08e7f063          	bgeu	a5,a4,300 <bubbleSort+0xcc>
     284:	fe842783          	lw	a5,-24(s0)
     288:	fdc42703          	lw	a4,-36(s0)
     28c:	00f706b3          	add	a3,a4,a5
     290:	fe842783          	lw	a5,-24(s0)
     294:	00178793          	addi	a5,a5,1
     298:	fdc42703          	lw	a4,-36(s0)
     29c:	00f707b3          	add	a5,a4,a5
     2a0:	00078593          	mv	a1,a5
     2a4:	00068513          	mv	a0,a3
     2a8:	f41ff0ef          	jal	ra,1e8 <swap>
     2ac:	fe842783          	lw	a5,-24(s0)
     2b0:	fdc42703          	lw	a4,-36(s0)
     2b4:	00f707b3          	add	a5,a4,a5
     2b8:	0007c783          	lbu	a5,0(a5)
     2bc:	02800613          	li	a2,40
     2c0:	fe842583          	lw	a1,-24(s0)
     2c4:	00078513          	mv	a0,a5
     2c8:	e25ff0ef          	jal	ra,ec <draw_stick>
     2cc:	fe842783          	lw	a5,-24(s0)
     2d0:	00178793          	addi	a5,a5,1
     2d4:	fdc42703          	lw	a4,-36(s0)
     2d8:	00f707b3          	add	a5,a4,a5
     2dc:	0007c783          	lbu	a5,0(a5)
     2e0:	00078713          	mv	a4,a5
     2e4:	fe842783          	lw	a5,-24(s0)
     2e8:	00178793          	addi	a5,a5,1
     2ec:	02800613          	li	a2,40
     2f0:	00078593          	mv	a1,a5
     2f4:	00070513          	mv	a0,a4
     2f8:	df5ff0ef          	jal	ra,ec <draw_stick>
     2fc:	dadff0ef          	jal	ra,a8 <delay>
     300:	fe842783          	lw	a5,-24(s0)
     304:	00178793          	addi	a5,a5,1
     308:	fef42423          	sw	a5,-24(s0)
     30c:	fd842703          	lw	a4,-40(s0)
     310:	fec42783          	lw	a5,-20(s0)
     314:	40f707b3          	sub	a5,a4,a5
     318:	fff78793          	addi	a5,a5,-1
     31c:	fe842703          	lw	a4,-24(s0)
     320:	f2f74ee3          	blt	a4,a5,25c <bubbleSort+0x28>
     324:	fec42783          	lw	a5,-20(s0)
     328:	00178793          	addi	a5,a5,1
     32c:	fef42623          	sw	a5,-20(s0)
     330:	fd842783          	lw	a5,-40(s0)
     334:	fff78793          	addi	a5,a5,-1
     338:	fec42703          	lw	a4,-20(s0)
     33c:	f0f74ce3          	blt	a4,a5,254 <bubbleSort+0x20>
     340:	00000013          	nop
     344:	00000013          	nop
     348:	02c12083          	lw	ra,44(sp)
     34c:	02812403          	lw	s0,40(sp)
     350:	03010113          	addi	sp,sp,48
     354:	00008067          	ret

00000358 <partition>:
     358:	fd010113          	addi	sp,sp,-48
     35c:	02112623          	sw	ra,44(sp)
     360:	02812423          	sw	s0,40(sp)
     364:	03010413          	addi	s0,sp,48
     368:	fca42e23          	sw	a0,-36(s0)
     36c:	00058793          	mv	a5,a1
     370:	00060713          	mv	a4,a2
     374:	fcf40da3          	sb	a5,-37(s0)
     378:	00070793          	mv	a5,a4
     37c:	fcf40d23          	sb	a5,-38(s0)
     380:	fda44783          	lbu	a5,-38(s0)
     384:	fdc42703          	lw	a4,-36(s0)
     388:	00f707b3          	add	a5,a4,a5
     38c:	0007c783          	lbu	a5,0(a5)
     390:	fef403a3          	sb	a5,-25(s0)
     394:	fdb44783          	lbu	a5,-37(s0)
     398:	fff78793          	addi	a5,a5,-1
     39c:	fef407a3          	sb	a5,-17(s0)
     3a0:	fdb44783          	lbu	a5,-37(s0)
     3a4:	fef42423          	sw	a5,-24(s0)
     3a8:	0c80006f          	j	470 <_min_stack+0x70>
     3ac:	fe842783          	lw	a5,-24(s0)
     3b0:	fdc42703          	lw	a4,-36(s0)
     3b4:	00f707b3          	add	a5,a4,a5
     3b8:	0007c783          	lbu	a5,0(a5)
     3bc:	fe744703          	lbu	a4,-25(s0)
     3c0:	0af76263          	bltu	a4,a5,464 <_min_stack+0x64>
     3c4:	fef44783          	lbu	a5,-17(s0)
     3c8:	00178793          	addi	a5,a5,1
     3cc:	fef407a3          	sb	a5,-17(s0)
     3d0:	fef44783          	lbu	a5,-17(s0)
     3d4:	fdc42703          	lw	a4,-36(s0)
     3d8:	00f706b3          	add	a3,a4,a5
     3dc:	fe842783          	lw	a5,-24(s0)
     3e0:	fdc42703          	lw	a4,-36(s0)
     3e4:	00f707b3          	add	a5,a4,a5
     3e8:	00078593          	mv	a1,a5
     3ec:	00068513          	mv	a0,a3
     3f0:	df9ff0ef          	jal	ra,1e8 <swap>
     3f4:	fef44783          	lbu	a5,-17(s0)
     3f8:	fdc42703          	lw	a4,-36(s0)
     3fc:	00f707b3          	add	a5,a4,a5
     400:	0007c783          	lbu	a5,0(a5)
     404:	00078713          	mv	a4,a5
     408:	fef44783          	lbu	a5,-17(s0)
     40c:	00000613          	li	a2,0
     410:	00078593          	mv	a1,a5
     414:	00070513          	mv	a0,a4
     418:	cd5ff0ef          	jal	ra,ec <draw_stick>
     41c:	fe842783          	lw	a5,-24(s0)
     420:	fdc42703          	lw	a4,-36(s0)
     424:	00f707b3          	add	a5,a4,a5
     428:	0007c783          	lbu	a5,0(a5)
     42c:	00000613          	li	a2,0
     430:	fe842583          	lw	a1,-24(s0)
     434:	00078513          	mv	a0,a5
     438:	cb5ff0ef          	jal	ra,ec <draw_stick>
     43c:	fef44783          	lbu	a5,-17(s0)
     440:	fdc42703          	lw	a4,-36(s0)
     444:	00f707b3          	add	a5,a4,a5
     448:	0007c703          	lbu	a4,0(a5)
     44c:	fe842783          	lw	a5,-24(s0)
     450:	fdc42683          	lw	a3,-36(s0)
     454:	00f687b3          	add	a5,a3,a5
     458:	0007c783          	lbu	a5,0(a5)
     45c:	00f70463          	beq	a4,a5,464 <_min_stack+0x64>
     460:	c49ff0ef          	jal	ra,a8 <delay>
     464:	fe842783          	lw	a5,-24(s0)
     468:	00178793          	addi	a5,a5,1
     46c:	fef42423          	sw	a5,-24(s0)
     470:	fda44783          	lbu	a5,-38(s0)
     474:	fe842703          	lw	a4,-24(s0)
     478:	f2f74ae3          	blt	a4,a5,3ac <partition+0x54>
     47c:	fef44783          	lbu	a5,-17(s0)
     480:	00178793          	addi	a5,a5,1
     484:	fdc42703          	lw	a4,-36(s0)
     488:	00f706b3          	add	a3,a4,a5
     48c:	fda44783          	lbu	a5,-38(s0)
     490:	fdc42703          	lw	a4,-36(s0)
     494:	00f707b3          	add	a5,a4,a5
     498:	00078593          	mv	a1,a5
     49c:	00068513          	mv	a0,a3
     4a0:	d49ff0ef          	jal	ra,1e8 <swap>
     4a4:	fef44783          	lbu	a5,-17(s0)
     4a8:	00178793          	addi	a5,a5,1
     4ac:	fdc42703          	lw	a4,-36(s0)
     4b0:	00f707b3          	add	a5,a4,a5
     4b4:	0007c783          	lbu	a5,0(a5)
     4b8:	00078713          	mv	a4,a5
     4bc:	fef44783          	lbu	a5,-17(s0)
     4c0:	00178793          	addi	a5,a5,1
     4c4:	00000613          	li	a2,0
     4c8:	00078593          	mv	a1,a5
     4cc:	00070513          	mv	a0,a4
     4d0:	c1dff0ef          	jal	ra,ec <draw_stick>
     4d4:	fda44783          	lbu	a5,-38(s0)
     4d8:	fdc42703          	lw	a4,-36(s0)
     4dc:	00f707b3          	add	a5,a4,a5
     4e0:	0007c783          	lbu	a5,0(a5)
     4e4:	00078713          	mv	a4,a5
     4e8:	fda44783          	lbu	a5,-38(s0)
     4ec:	00000613          	li	a2,0
     4f0:	00078593          	mv	a1,a5
     4f4:	00070513          	mv	a0,a4
     4f8:	bf5ff0ef          	jal	ra,ec <draw_stick>
     4fc:	fef44783          	lbu	a5,-17(s0)
     500:	00178793          	addi	a5,a5,1
     504:	fdc42703          	lw	a4,-36(s0)
     508:	00f707b3          	add	a5,a4,a5
     50c:	0007c703          	lbu	a4,0(a5)
     510:	fda44783          	lbu	a5,-38(s0)
     514:	fdc42683          	lw	a3,-36(s0)
     518:	00f687b3          	add	a5,a3,a5
     51c:	0007c783          	lbu	a5,0(a5)
     520:	00f70463          	beq	a4,a5,528 <_min_stack+0x128>
     524:	b85ff0ef          	jal	ra,a8 <delay>
     528:	fef44783          	lbu	a5,-17(s0)
     52c:	00178793          	addi	a5,a5,1
     530:	00078513          	mv	a0,a5
     534:	02c12083          	lw	ra,44(sp)
     538:	02812403          	lw	s0,40(sp)
     53c:	03010113          	addi	sp,sp,48
     540:	00008067          	ret

00000544 <quickSortIterative>:
     544:	fd010113          	addi	sp,sp,-48
     548:	02112623          	sw	ra,44(sp)
     54c:	02812423          	sw	s0,40(sp)
     550:	02912223          	sw	s1,36(sp)
     554:	03010413          	addi	s0,sp,48
     558:	fca42e23          	sw	a0,-36(s0)
     55c:	00058693          	mv	a3,a1
     560:	fcd40da3          	sb	a3,-37(s0)
     564:	00060693          	mv	a3,a2
     568:	fcd40d23          	sb	a3,-38(s0)
     56c:	00010693          	mv	a3,sp
     570:	00068493          	mv	s1,a3
     574:	fda44603          	lbu	a2,-38(s0)
     578:	fdb44683          	lbu	a3,-37(s0)
     57c:	40d606b3          	sub	a3,a2,a3
     580:	00168693          	addi	a3,a3,1
     584:	fff68613          	addi	a2,a3,-1
     588:	fec42423          	sw	a2,-24(s0)
     58c:	00068613          	mv	a2,a3
     590:	00060e13          	mv	t3,a2
     594:	00000e93          	li	t4,0
     598:	01de5613          	srli	a2,t3,0x1d
     59c:	003e9893          	slli	a7,t4,0x3
     5a0:	011668b3          	or	a7,a2,a7
     5a4:	003e1813          	slli	a6,t3,0x3
     5a8:	00068613          	mv	a2,a3
     5ac:	00060313          	mv	t1,a2
     5b0:	00000393          	li	t2,0
     5b4:	01d35613          	srli	a2,t1,0x1d
     5b8:	00339793          	slli	a5,t2,0x3
     5bc:	00f667b3          	or	a5,a2,a5
     5c0:	00331713          	slli	a4,t1,0x3
     5c4:	00068793          	mv	a5,a3
     5c8:	00f78793          	addi	a5,a5,15
     5cc:	0047d793          	srli	a5,a5,0x4
     5d0:	00479793          	slli	a5,a5,0x4
     5d4:	40f10133          	sub	sp,sp,a5
     5d8:	00010793          	mv	a5,sp
     5dc:	00078793          	mv	a5,a5
     5e0:	fef42223          	sw	a5,-28(s0)
     5e4:	fff00793          	li	a5,-1
     5e8:	fef42623          	sw	a5,-20(s0)
     5ec:	fec42783          	lw	a5,-20(s0)
     5f0:	00178793          	addi	a5,a5,1
     5f4:	fef42623          	sw	a5,-20(s0)
     5f8:	fe442703          	lw	a4,-28(s0)
     5fc:	fec42783          	lw	a5,-20(s0)
     600:	00f707b3          	add	a5,a4,a5
     604:	fdb44703          	lbu	a4,-37(s0)
     608:	00e78023          	sb	a4,0(a5)
     60c:	fec42783          	lw	a5,-20(s0)
     610:	00178793          	addi	a5,a5,1
     614:	fef42623          	sw	a5,-20(s0)
     618:	fe442703          	lw	a4,-28(s0)
     61c:	fec42783          	lw	a5,-20(s0)
     620:	00f707b3          	add	a5,a4,a5
     624:	fda44703          	lbu	a4,-38(s0)
     628:	00e78023          	sb	a4,0(a5)
     62c:	10c0006f          	j	738 <quickSortIterative+0x1f4>
     630:	fec42783          	lw	a5,-20(s0)
     634:	fff78713          	addi	a4,a5,-1
     638:	fee42623          	sw	a4,-20(s0)
     63c:	fe442703          	lw	a4,-28(s0)
     640:	00f707b3          	add	a5,a4,a5
     644:	0007c783          	lbu	a5,0(a5)
     648:	fcf40d23          	sb	a5,-38(s0)
     64c:	fec42783          	lw	a5,-20(s0)
     650:	fff78713          	addi	a4,a5,-1
     654:	fee42623          	sw	a4,-20(s0)
     658:	fe442703          	lw	a4,-28(s0)
     65c:	00f707b3          	add	a5,a4,a5
     660:	0007c783          	lbu	a5,0(a5)
     664:	fcf40da3          	sb	a5,-37(s0)
     668:	fda44703          	lbu	a4,-38(s0)
     66c:	fdb44783          	lbu	a5,-37(s0)
     670:	00070613          	mv	a2,a4
     674:	00078593          	mv	a1,a5
     678:	fdc42503          	lw	a0,-36(s0)
     67c:	cddff0ef          	jal	ra,358 <partition>
     680:	00050793          	mv	a5,a0
     684:	fef401a3          	sb	a5,-29(s0)
     688:	fe344783          	lbu	a5,-29(s0)
     68c:	fff78713          	addi	a4,a5,-1
     690:	fdb44783          	lbu	a5,-37(s0)
     694:	04e7d663          	bge	a5,a4,6e0 <quickSortIterative+0x19c>
     698:	fec42783          	lw	a5,-20(s0)
     69c:	00178793          	addi	a5,a5,1
     6a0:	fef42623          	sw	a5,-20(s0)
     6a4:	fe442703          	lw	a4,-28(s0)
     6a8:	fec42783          	lw	a5,-20(s0)
     6ac:	00f707b3          	add	a5,a4,a5
     6b0:	fdb44703          	lbu	a4,-37(s0)
     6b4:	00e78023          	sb	a4,0(a5)
     6b8:	fec42783          	lw	a5,-20(s0)
     6bc:	00178793          	addi	a5,a5,1
     6c0:	fef42623          	sw	a5,-20(s0)
     6c4:	fe344783          	lbu	a5,-29(s0)
     6c8:	fff78793          	addi	a5,a5,-1
     6cc:	0ff7f713          	andi	a4,a5,255
     6d0:	fe442683          	lw	a3,-28(s0)
     6d4:	fec42783          	lw	a5,-20(s0)
     6d8:	00f687b3          	add	a5,a3,a5
     6dc:	00e78023          	sb	a4,0(a5)
     6e0:	fe344783          	lbu	a5,-29(s0)
     6e4:	00178713          	addi	a4,a5,1
     6e8:	fda44783          	lbu	a5,-38(s0)
     6ec:	04f75663          	bge	a4,a5,738 <quickSortIterative+0x1f4>
     6f0:	fec42783          	lw	a5,-20(s0)
     6f4:	00178793          	addi	a5,a5,1
     6f8:	fef42623          	sw	a5,-20(s0)
     6fc:	fe344783          	lbu	a5,-29(s0)
     700:	00178793          	addi	a5,a5,1
     704:	0ff7f713          	andi	a4,a5,255
     708:	fe442683          	lw	a3,-28(s0)
     70c:	fec42783          	lw	a5,-20(s0)
     710:	00f687b3          	add	a5,a3,a5
     714:	00e78023          	sb	a4,0(a5)
     718:	fec42783          	lw	a5,-20(s0)
     71c:	00178793          	addi	a5,a5,1
     720:	fef42623          	sw	a5,-20(s0)
     724:	fe442703          	lw	a4,-28(s0)
     728:	fec42783          	lw	a5,-20(s0)
     72c:	00f707b3          	add	a5,a4,a5
     730:	fda44703          	lbu	a4,-38(s0)
     734:	00e78023          	sb	a4,0(a5)
     738:	fec42783          	lw	a5,-20(s0)
     73c:	ee07dae3          	bgez	a5,630 <quickSortIterative+0xec>
     740:	00048113          	mv	sp,s1
     744:	00000013          	nop
     748:	fd040113          	addi	sp,s0,-48
     74c:	02c12083          	lw	ra,44(sp)
     750:	02812403          	lw	s0,40(sp)
     754:	02412483          	lw	s1,36(sp)
     758:	03010113          	addi	sp,sp,48
     75c:	00008067          	ret

00000760 <min>:
     760:	fe010113          	addi	sp,sp,-32
     764:	00812e23          	sw	s0,28(sp)
     768:	02010413          	addi	s0,sp,32
     76c:	fea42623          	sw	a0,-20(s0)
     770:	feb42423          	sw	a1,-24(s0)
     774:	fec42703          	lw	a4,-20(s0)
     778:	fe842783          	lw	a5,-24(s0)
     77c:	00f75463          	bge	a4,a5,784 <min+0x24>
     780:	00070793          	mv	a5,a4
     784:	00078513          	mv	a0,a5
     788:	01c12403          	lw	s0,28(sp)
     78c:	02010113          	addi	sp,sp,32
     790:	00008067          	ret

00000794 <mergeSort>:
     794:	fd010113          	addi	sp,sp,-48
     798:	02112623          	sw	ra,44(sp)
     79c:	02812423          	sw	s0,40(sp)
     7a0:	03010413          	addi	s0,sp,48
     7a4:	fca42e23          	sw	a0,-36(s0)
     7a8:	fcb42c23          	sw	a1,-40(s0)
     7ac:	00100793          	li	a5,1
     7b0:	fef42623          	sw	a5,-20(s0)
     7b4:	0b80006f          	j	86c <mergeSort+0xd8>
     7b8:	fe042423          	sw	zero,-24(s0)
     7bc:	0940006f          	j	850 <mergeSort+0xbc>
     7c0:	fe842703          	lw	a4,-24(s0)
     7c4:	fec42783          	lw	a5,-20(s0)
     7c8:	00f707b3          	add	a5,a4,a5
     7cc:	fff78713          	addi	a4,a5,-1
     7d0:	fd842783          	lw	a5,-40(s0)
     7d4:	fff78793          	addi	a5,a5,-1
     7d8:	00078593          	mv	a1,a5
     7dc:	00070513          	mv	a0,a4
     7e0:	f81ff0ef          	jal	ra,760 <min>
     7e4:	fea42223          	sw	a0,-28(s0)
     7e8:	fec42783          	lw	a5,-20(s0)
     7ec:	00179713          	slli	a4,a5,0x1
     7f0:	fe842783          	lw	a5,-24(s0)
     7f4:	00f707b3          	add	a5,a4,a5
     7f8:	fff78713          	addi	a4,a5,-1
     7fc:	fd842783          	lw	a5,-40(s0)
     800:	fff78793          	addi	a5,a5,-1
     804:	00078593          	mv	a1,a5
     808:	00070513          	mv	a0,a4
     80c:	f55ff0ef          	jal	ra,760 <min>
     810:	fea42023          	sw	a0,-32(s0)
     814:	fe842783          	lw	a5,-24(s0)
     818:	0ff7f793          	andi	a5,a5,255
     81c:	fe442703          	lw	a4,-28(s0)
     820:	0ff77713          	andi	a4,a4,255
     824:	fe042683          	lw	a3,-32(s0)
     828:	0ff6f693          	andi	a3,a3,255
     82c:	00070613          	mv	a2,a4
     830:	00078593          	mv	a1,a5
     834:	fdc42503          	lw	a0,-36(s0)
     838:	058000ef          	jal	ra,890 <merge>
     83c:	fec42783          	lw	a5,-20(s0)
     840:	00179793          	slli	a5,a5,0x1
     844:	fe842703          	lw	a4,-24(s0)
     848:	00f707b3          	add	a5,a4,a5
     84c:	fef42423          	sw	a5,-24(s0)
     850:	fd842783          	lw	a5,-40(s0)
     854:	fff78793          	addi	a5,a5,-1
     858:	fe842703          	lw	a4,-24(s0)
     85c:	f6f742e3          	blt	a4,a5,7c0 <mergeSort+0x2c>
     860:	fec42783          	lw	a5,-20(s0)
     864:	00179793          	slli	a5,a5,0x1
     868:	fef42623          	sw	a5,-20(s0)
     86c:	fd842703          	lw	a4,-40(s0)
     870:	fec42783          	lw	a5,-20(s0)
     874:	f4e7c2e3          	blt	a5,a4,7b8 <mergeSort+0x24>
     878:	00000013          	nop
     87c:	00000013          	nop
     880:	02c12083          	lw	ra,44(sp)
     884:	02812403          	lw	s0,40(sp)
     888:	03010113          	addi	sp,sp,48
     88c:	00008067          	ret

00000890 <merge>:
     890:	fa010113          	addi	sp,sp,-96
     894:	04112e23          	sw	ra,92(sp)
     898:	04812c23          	sw	s0,88(sp)
     89c:	04912a23          	sw	s1,84(sp)
     8a0:	05212823          	sw	s2,80(sp)
     8a4:	05312623          	sw	s3,76(sp)
     8a8:	05412423          	sw	s4,72(sp)
     8ac:	05512223          	sw	s5,68(sp)
     8b0:	05612023          	sw	s6,64(sp)
     8b4:	03712e23          	sw	s7,60(sp)
     8b8:	06010413          	addi	s0,sp,96
     8bc:	faa42623          	sw	a0,-84(s0)
     8c0:	00058513          	mv	a0,a1
     8c4:	00060593          	mv	a1,a2
     8c8:	00068613          	mv	a2,a3
     8cc:	00050693          	mv	a3,a0
     8d0:	fad405a3          	sb	a3,-85(s0)
     8d4:	00058693          	mv	a3,a1
     8d8:	fad40523          	sb	a3,-86(s0)
     8dc:	00060693          	mv	a3,a2
     8e0:	fad404a3          	sb	a3,-87(s0)
     8e4:	00010693          	mv	a3,sp
     8e8:	00068493          	mv	s1,a3
     8ec:	faa44603          	lbu	a2,-86(s0)
     8f0:	fab44683          	lbu	a3,-85(s0)
     8f4:	40d606b3          	sub	a3,a2,a3
     8f8:	0ff6f693          	andi	a3,a3,255
     8fc:	00168693          	addi	a3,a3,1
     900:	fcd40623          	sb	a3,-52(s0)
     904:	fa944603          	lbu	a2,-87(s0)
     908:	faa44683          	lbu	a3,-86(s0)
     90c:	40d606b3          	sub	a3,a2,a3
     910:	fcd405a3          	sb	a3,-53(s0)
     914:	fcc44683          	lbu	a3,-52(s0)
     918:	00068613          	mv	a2,a3
     91c:	fff60613          	addi	a2,a2,-1
     920:	fcc42223          	sw	a2,-60(s0)
     924:	00068b13          	mv	s6,a3
     928:	00000b93          	li	s7,0
     92c:	01db5613          	srli	a2,s6,0x1d
     930:	003b9e93          	slli	t4,s7,0x3
     934:	01d66eb3          	or	t4,a2,t4
     938:	003b1e13          	slli	t3,s6,0x3
     93c:	00068a13          	mv	s4,a3
     940:	00000a93          	li	s5,0
     944:	01da5613          	srli	a2,s4,0x1d
     948:	003a9393          	slli	t2,s5,0x3
     94c:	007663b3          	or	t2,a2,t2
     950:	003a1313          	slli	t1,s4,0x3
     954:	00f68693          	addi	a3,a3,15
     958:	0046d693          	srli	a3,a3,0x4
     95c:	00469693          	slli	a3,a3,0x4
     960:	40d10133          	sub	sp,sp,a3
     964:	00010693          	mv	a3,sp
     968:	00068693          	mv	a3,a3
     96c:	fcd42023          	sw	a3,-64(s0)
     970:	fcb44683          	lbu	a3,-53(s0)
     974:	00068613          	mv	a2,a3
     978:	fff60613          	addi	a2,a2,-1
     97c:	fac42e23          	sw	a2,-68(s0)
     980:	00068913          	mv	s2,a3
     984:	00000993          	li	s3,0
     988:	01d95613          	srli	a2,s2,0x1d
     98c:	00399893          	slli	a7,s3,0x3
     990:	011668b3          	or	a7,a2,a7
     994:	00391813          	slli	a6,s2,0x3
     998:	00068f13          	mv	t5,a3
     99c:	00000f93          	li	t6,0
     9a0:	01df5613          	srli	a2,t5,0x1d
     9a4:	003f9793          	slli	a5,t6,0x3
     9a8:	00f667b3          	or	a5,a2,a5
     9ac:	003f1713          	slli	a4,t5,0x3
     9b0:	00068793          	mv	a5,a3
     9b4:	00f78793          	addi	a5,a5,15
     9b8:	0047d793          	srli	a5,a5,0x4
     9bc:	00479793          	slli	a5,a5,0x4
     9c0:	40f10133          	sub	sp,sp,a5
     9c4:	00010793          	mv	a5,sp
     9c8:	00078793          	mv	a5,a5
     9cc:	faf42c23          	sw	a5,-72(s0)
     9d0:	fc0406a3          	sb	zero,-51(s0)
     9d4:	03c0006f          	j	a10 <merge+0x180>
     9d8:	fab44703          	lbu	a4,-85(s0)
     9dc:	fcd44783          	lbu	a5,-51(s0)
     9e0:	00f707b3          	add	a5,a4,a5
     9e4:	00078713          	mv	a4,a5
     9e8:	fac42783          	lw	a5,-84(s0)
     9ec:	00e78733          	add	a4,a5,a4
     9f0:	fcd44783          	lbu	a5,-51(s0)
     9f4:	00074703          	lbu	a4,0(a4)
     9f8:	fc042683          	lw	a3,-64(s0)
     9fc:	00f687b3          	add	a5,a3,a5
     a00:	00e78023          	sb	a4,0(a5)
     a04:	fcd44783          	lbu	a5,-51(s0)
     a08:	00178793          	addi	a5,a5,1
     a0c:	fcf406a3          	sb	a5,-51(s0)
     a10:	fcd44703          	lbu	a4,-51(s0)
     a14:	fcc44783          	lbu	a5,-52(s0)
     a18:	fcf760e3          	bltu	a4,a5,9d8 <merge+0x148>
     a1c:	fc040723          	sb	zero,-50(s0)
     a20:	0400006f          	j	a60 <merge+0x1d0>
     a24:	faa44783          	lbu	a5,-86(s0)
     a28:	00178713          	addi	a4,a5,1
     a2c:	fce44783          	lbu	a5,-50(s0)
     a30:	00f707b3          	add	a5,a4,a5
     a34:	00078713          	mv	a4,a5
     a38:	fac42783          	lw	a5,-84(s0)
     a3c:	00e78733          	add	a4,a5,a4
     a40:	fce44783          	lbu	a5,-50(s0)
     a44:	00074703          	lbu	a4,0(a4)
     a48:	fb842683          	lw	a3,-72(s0)
     a4c:	00f687b3          	add	a5,a3,a5
     a50:	00e78023          	sb	a4,0(a5)
     a54:	fce44783          	lbu	a5,-50(s0)
     a58:	00178793          	addi	a5,a5,1
     a5c:	fcf40723          	sb	a5,-50(s0)
     a60:	fce44703          	lbu	a4,-50(s0)
     a64:	fcb44783          	lbu	a5,-53(s0)
     a68:	faf76ee3          	bltu	a4,a5,a24 <merge+0x194>
     a6c:	fc0406a3          	sb	zero,-51(s0)
     a70:	fc040723          	sb	zero,-50(s0)
     a74:	fab44783          	lbu	a5,-85(s0)
     a78:	fcf407a3          	sb	a5,-49(s0)
     a7c:	0f00006f          	j	b6c <merge+0x2dc>
     a80:	fcd44783          	lbu	a5,-51(s0)
     a84:	fc042703          	lw	a4,-64(s0)
     a88:	00f707b3          	add	a5,a4,a5
     a8c:	0007c703          	lbu	a4,0(a5)
     a90:	fce44783          	lbu	a5,-50(s0)
     a94:	fb842683          	lw	a3,-72(s0)
     a98:	00f687b3          	add	a5,a3,a5
     a9c:	0007c783          	lbu	a5,0(a5)
     aa0:	06e7e263          	bltu	a5,a4,b04 <merge+0x274>
     aa4:	fcd44703          	lbu	a4,-51(s0)
     aa8:	fcf44783          	lbu	a5,-49(s0)
     aac:	fac42683          	lw	a3,-84(s0)
     ab0:	00f687b3          	add	a5,a3,a5
     ab4:	fc042683          	lw	a3,-64(s0)
     ab8:	00e68733          	add	a4,a3,a4
     abc:	00074703          	lbu	a4,0(a4)
     ac0:	00e78023          	sb	a4,0(a5)
     ac4:	fcf44783          	lbu	a5,-49(s0)
     ac8:	fac42703          	lw	a4,-84(s0)
     acc:	00f707b3          	add	a5,a4,a5
     ad0:	0007c783          	lbu	a5,0(a5)
     ad4:	00078693          	mv	a3,a5
     ad8:	fcf44703          	lbu	a4,-49(s0)
     adc:	000017b7          	lui	a5,0x1
     ae0:	2c078613          	addi	a2,a5,704 # 12c0 <memcpy+0xb0>
     ae4:	00070593          	mv	a1,a4
     ae8:	00068513          	mv	a0,a3
     aec:	e00ff0ef          	jal	ra,ec <draw_stick>
     af0:	db8ff0ef          	jal	ra,a8 <delay>
     af4:	fcd44783          	lbu	a5,-51(s0)
     af8:	00178793          	addi	a5,a5,1
     afc:	fcf406a3          	sb	a5,-51(s0)
     b00:	0600006f          	j	b60 <merge+0x2d0>
     b04:	fce44703          	lbu	a4,-50(s0)
     b08:	fcf44783          	lbu	a5,-49(s0)
     b0c:	fac42683          	lw	a3,-84(s0)
     b10:	00f687b3          	add	a5,a3,a5
     b14:	fb842683          	lw	a3,-72(s0)
     b18:	00e68733          	add	a4,a3,a4
     b1c:	00074703          	lbu	a4,0(a4)
     b20:	00e78023          	sb	a4,0(a5)
     b24:	fcf44783          	lbu	a5,-49(s0)
     b28:	fac42703          	lw	a4,-84(s0)
     b2c:	00f707b3          	add	a5,a4,a5
     b30:	0007c783          	lbu	a5,0(a5)
     b34:	00078693          	mv	a3,a5
     b38:	fcf44703          	lbu	a4,-49(s0)
     b3c:	000017b7          	lui	a5,0x1
     b40:	2c078613          	addi	a2,a5,704 # 12c0 <memcpy+0xb0>
     b44:	00070593          	mv	a1,a4
     b48:	00068513          	mv	a0,a3
     b4c:	da0ff0ef          	jal	ra,ec <draw_stick>
     b50:	d58ff0ef          	jal	ra,a8 <delay>
     b54:	fce44783          	lbu	a5,-50(s0)
     b58:	00178793          	addi	a5,a5,1
     b5c:	fcf40723          	sb	a5,-50(s0)
     b60:	fcf44783          	lbu	a5,-49(s0)
     b64:	00178793          	addi	a5,a5,1
     b68:	fcf407a3          	sb	a5,-49(s0)
     b6c:	fcd44703          	lbu	a4,-51(s0)
     b70:	fcc44783          	lbu	a5,-52(s0)
     b74:	06f77e63          	bgeu	a4,a5,bf0 <merge+0x360>
     b78:	fce44703          	lbu	a4,-50(s0)
     b7c:	fcb44783          	lbu	a5,-53(s0)
     b80:	f0f760e3          	bltu	a4,a5,a80 <merge+0x1f0>
     b84:	06c0006f          	j	bf0 <merge+0x360>
     b88:	fcd44703          	lbu	a4,-51(s0)
     b8c:	fcf44783          	lbu	a5,-49(s0)
     b90:	fac42683          	lw	a3,-84(s0)
     b94:	00f687b3          	add	a5,a3,a5
     b98:	fc042683          	lw	a3,-64(s0)
     b9c:	00e68733          	add	a4,a3,a4
     ba0:	00074703          	lbu	a4,0(a4)
     ba4:	00e78023          	sb	a4,0(a5)
     ba8:	fcf44783          	lbu	a5,-49(s0)
     bac:	fac42703          	lw	a4,-84(s0)
     bb0:	00f707b3          	add	a5,a4,a5
     bb4:	0007c783          	lbu	a5,0(a5)
     bb8:	00078693          	mv	a3,a5
     bbc:	fcf44703          	lbu	a4,-49(s0)
     bc0:	000017b7          	lui	a5,0x1
     bc4:	2c078613          	addi	a2,a5,704 # 12c0 <memcpy+0xb0>
     bc8:	00070593          	mv	a1,a4
     bcc:	00068513          	mv	a0,a3
     bd0:	d1cff0ef          	jal	ra,ec <draw_stick>
     bd4:	cd4ff0ef          	jal	ra,a8 <delay>
     bd8:	fcd44783          	lbu	a5,-51(s0)
     bdc:	00178793          	addi	a5,a5,1
     be0:	fcf406a3          	sb	a5,-51(s0)
     be4:	fcf44783          	lbu	a5,-49(s0)
     be8:	00178793          	addi	a5,a5,1
     bec:	fcf407a3          	sb	a5,-49(s0)
     bf0:	fcd44703          	lbu	a4,-51(s0)
     bf4:	fcc44783          	lbu	a5,-52(s0)
     bf8:	f8f768e3          	bltu	a4,a5,b88 <merge+0x2f8>
     bfc:	06c0006f          	j	c68 <merge+0x3d8>
     c00:	fce44703          	lbu	a4,-50(s0)
     c04:	fcf44783          	lbu	a5,-49(s0)
     c08:	fac42683          	lw	a3,-84(s0)
     c0c:	00f687b3          	add	a5,a3,a5
     c10:	fb842683          	lw	a3,-72(s0)
     c14:	00e68733          	add	a4,a3,a4
     c18:	00074703          	lbu	a4,0(a4)
     c1c:	00e78023          	sb	a4,0(a5)
     c20:	fcf44783          	lbu	a5,-49(s0)
     c24:	fac42703          	lw	a4,-84(s0)
     c28:	00f707b3          	add	a5,a4,a5
     c2c:	0007c783          	lbu	a5,0(a5)
     c30:	00078693          	mv	a3,a5
     c34:	fcf44703          	lbu	a4,-49(s0)
     c38:	000017b7          	lui	a5,0x1
     c3c:	2c078613          	addi	a2,a5,704 # 12c0 <memcpy+0xb0>
     c40:	00070593          	mv	a1,a4
     c44:	00068513          	mv	a0,a3
     c48:	ca4ff0ef          	jal	ra,ec <draw_stick>
     c4c:	c5cff0ef          	jal	ra,a8 <delay>
     c50:	fce44783          	lbu	a5,-50(s0)
     c54:	00178793          	addi	a5,a5,1
     c58:	fcf40723          	sb	a5,-50(s0)
     c5c:	fcf44783          	lbu	a5,-49(s0)
     c60:	00178793          	addi	a5,a5,1
     c64:	fcf407a3          	sb	a5,-49(s0)
     c68:	fce44703          	lbu	a4,-50(s0)
     c6c:	fcb44783          	lbu	a5,-53(s0)
     c70:	f8f768e3          	bltu	a4,a5,c00 <merge+0x370>
     c74:	00048113          	mv	sp,s1
     c78:	00000013          	nop
     c7c:	fa040113          	addi	sp,s0,-96
     c80:	05c12083          	lw	ra,92(sp)
     c84:	05812403          	lw	s0,88(sp)
     c88:	05412483          	lw	s1,84(sp)
     c8c:	05012903          	lw	s2,80(sp)
     c90:	04c12983          	lw	s3,76(sp)
     c94:	04812a03          	lw	s4,72(sp)
     c98:	04412a83          	lw	s5,68(sp)
     c9c:	04012b03          	lw	s6,64(sp)
     ca0:	03c12b83          	lw	s7,60(sp)
     ca4:	06010113          	addi	sp,sp,96
     ca8:	00008067          	ret

00000cac <insertionSort>:
     cac:	fd010113          	addi	sp,sp,-48
     cb0:	02112623          	sw	ra,44(sp)
     cb4:	02812423          	sw	s0,40(sp)
     cb8:	03010413          	addi	s0,sp,48
     cbc:	fca42e23          	sw	a0,-36(s0)
     cc0:	fcb42c23          	sw	a1,-40(s0)
     cc4:	00100793          	li	a5,1
     cc8:	fef42623          	sw	a5,-20(s0)
     ccc:	1200006f          	j	dec <insertionSort+0x140>
     cd0:	fec42783          	lw	a5,-20(s0)
     cd4:	00279793          	slli	a5,a5,0x2
     cd8:	fdc42703          	lw	a4,-36(s0)
     cdc:	00f707b3          	add	a5,a4,a5
     ce0:	0007a783          	lw	a5,0(a5)
     ce4:	fef42223          	sw	a5,-28(s0)
     ce8:	fec42783          	lw	a5,-20(s0)
     cec:	fff78793          	addi	a5,a5,-1
     cf0:	fef42423          	sw	a5,-24(s0)
     cf4:	0740006f          	j	d68 <insertionSort+0xbc>
     cf8:	fe842783          	lw	a5,-24(s0)
     cfc:	00279793          	slli	a5,a5,0x2
     d00:	fdc42703          	lw	a4,-36(s0)
     d04:	00f70733          	add	a4,a4,a5
     d08:	fe842783          	lw	a5,-24(s0)
     d0c:	00178793          	addi	a5,a5,1
     d10:	00279793          	slli	a5,a5,0x2
     d14:	fdc42683          	lw	a3,-36(s0)
     d18:	00f687b3          	add	a5,a3,a5
     d1c:	00072703          	lw	a4,0(a4)
     d20:	00e7a023          	sw	a4,0(a5)
     d24:	fe842783          	lw	a5,-24(s0)
     d28:	00178793          	addi	a5,a5,1
     d2c:	00279793          	slli	a5,a5,0x2
     d30:	fdc42703          	lw	a4,-36(s0)
     d34:	00f707b3          	add	a5,a4,a5
     d38:	0007a703          	lw	a4,0(a5)
     d3c:	fe842783          	lw	a5,-24(s0)
     d40:	00178693          	addi	a3,a5,1
     d44:	000017b7          	lui	a5,0x1
     d48:	2e878613          	addi	a2,a5,744 # 12e8 <memcpy+0xd8>
     d4c:	00068593          	mv	a1,a3
     d50:	00070513          	mv	a0,a4
     d54:	b98ff0ef          	jal	ra,ec <draw_stick>
     d58:	b50ff0ef          	jal	ra,a8 <delay>
     d5c:	fe842783          	lw	a5,-24(s0)
     d60:	fff78793          	addi	a5,a5,-1
     d64:	fef42423          	sw	a5,-24(s0)
     d68:	fe842783          	lw	a5,-24(s0)
     d6c:	0207c063          	bltz	a5,d8c <insertionSort+0xe0>
     d70:	fe842783          	lw	a5,-24(s0)
     d74:	00279793          	slli	a5,a5,0x2
     d78:	fdc42703          	lw	a4,-36(s0)
     d7c:	00f707b3          	add	a5,a4,a5
     d80:	0007a783          	lw	a5,0(a5)
     d84:	fe442703          	lw	a4,-28(s0)
     d88:	f6f748e3          	blt	a4,a5,cf8 <insertionSort+0x4c>
     d8c:	fe842783          	lw	a5,-24(s0)
     d90:	00178793          	addi	a5,a5,1
     d94:	00279793          	slli	a5,a5,0x2
     d98:	fdc42703          	lw	a4,-36(s0)
     d9c:	00f707b3          	add	a5,a4,a5
     da0:	fe442703          	lw	a4,-28(s0)
     da4:	00e7a023          	sw	a4,0(a5)
     da8:	fe842783          	lw	a5,-24(s0)
     dac:	00178793          	addi	a5,a5,1
     db0:	00279793          	slli	a5,a5,0x2
     db4:	fdc42703          	lw	a4,-36(s0)
     db8:	00f707b3          	add	a5,a4,a5
     dbc:	0007a703          	lw	a4,0(a5)
     dc0:	fe842783          	lw	a5,-24(s0)
     dc4:	00178693          	addi	a3,a5,1
     dc8:	000017b7          	lui	a5,0x1
     dcc:	2e878613          	addi	a2,a5,744 # 12e8 <memcpy+0xd8>
     dd0:	00068593          	mv	a1,a3
     dd4:	00070513          	mv	a0,a4
     dd8:	b14ff0ef          	jal	ra,ec <draw_stick>
     ddc:	accff0ef          	jal	ra,a8 <delay>
     de0:	fec42783          	lw	a5,-20(s0)
     de4:	00178793          	addi	a5,a5,1
     de8:	fef42623          	sw	a5,-20(s0)
     dec:	fec42703          	lw	a4,-20(s0)
     df0:	fd842783          	lw	a5,-40(s0)
     df4:	ecf74ee3          	blt	a4,a5,cd0 <insertionSort+0x24>
     df8:	00000013          	nop
     dfc:	00000013          	nop
     e00:	02c12083          	lw	ra,44(sp)
     e04:	02812403          	lw	s0,40(sp)
     e08:	03010113          	addi	sp,sp,48
     e0c:	00008067          	ret

00000e10 <main>:
     e10:	f4010113          	addi	sp,sp,-192
     e14:	0a112e23          	sw	ra,188(sp)
     e18:	0a812c23          	sw	s0,184(sp)
     e1c:	0c010413          	addi	s0,sp,192
     e20:	00c007b7          	lui	a5,0xc00
     e24:	0007a783          	lw	a5,0(a5) # c00000 <_stack+0x7fec00>
     e28:	fcf42c23          	sw	a5,-40(s0)
     e2c:	fd842703          	lw	a4,-40(s0)
     e30:	00700793          	li	a5,7
     e34:	32f70c63          	beq	a4,a5,116c <main+0x35c>
     e38:	fd842703          	lw	a4,-40(s0)
     e3c:	00700793          	li	a5,7
     e40:	3ce7c663          	blt	a5,a4,120c <main+0x3fc>
     e44:	fd842703          	lw	a4,-40(s0)
     e48:	00600793          	li	a5,6
     e4c:	16f70663          	beq	a4,a5,fb8 <main+0x1a8>
     e50:	fd842703          	lw	a4,-40(s0)
     e54:	00600793          	li	a5,6
     e58:	3ae7ca63          	blt	a5,a4,120c <main+0x3fc>
     e5c:	fd842703          	lw	a4,-40(s0)
     e60:	00400793          	li	a5,4
     e64:	00f70a63          	beq	a4,a5,e78 <main+0x68>
     e68:	fd842703          	lw	a4,-40(s0)
     e6c:	00500793          	li	a5,5
     e70:	0af70a63          	beq	a4,a5,f24 <main+0x114>
     e74:	3980006f          	j	120c <main+0x3fc>
     e78:	a30ff0ef          	jal	ra,a8 <delay>
     e7c:	004007b7          	lui	a5,0x400
     e80:	00078793          	mv	a5,a5
     e84:	0007a583          	lw	a1,0(a5) # 400000 <_endtext+0x3fecc8>
     e88:	0047a603          	lw	a2,4(a5)
     e8c:	0087a683          	lw	a3,8(a5)
     e90:	00c7a703          	lw	a4,12(a5)
     e94:	fab42a23          	sw	a1,-76(s0)
     e98:	fac42c23          	sw	a2,-72(s0)
     e9c:	fad42e23          	sw	a3,-68(s0)
     ea0:	fce42023          	sw	a4,-64(s0)
     ea4:	0107d783          	lhu	a5,16(a5)
     ea8:	fcf41223          	sh	a5,-60(s0)
     eac:	01200793          	li	a5,18
     eb0:	fcf42423          	sw	a5,-56(s0)
     eb4:	fe042423          	sw	zero,-24(s0)
     eb8:	0300006f          	j	ee8 <main+0xd8>
     ebc:	fe842783          	lw	a5,-24(s0)
     ec0:	ff040713          	addi	a4,s0,-16
     ec4:	00f707b3          	add	a5,a4,a5
     ec8:	fc47c783          	lbu	a5,-60(a5)
     ecc:	00000613          	li	a2,0
     ed0:	fe842583          	lw	a1,-24(s0)
     ed4:	00078513          	mv	a0,a5
     ed8:	a14ff0ef          	jal	ra,ec <draw_stick>
     edc:	fe842783          	lw	a5,-24(s0)
     ee0:	00178793          	addi	a5,a5,1
     ee4:	fef42423          	sw	a5,-24(s0)
     ee8:	fe842703          	lw	a4,-24(s0)
     eec:	fc842783          	lw	a5,-56(s0)
     ef0:	fcf746e3          	blt	a4,a5,ebc <main+0xac>
     ef4:	9b4ff0ef          	jal	ra,a8 <delay>
     ef8:	fc842783          	lw	a5,-56(s0)
     efc:	0ff7f793          	andi	a5,a5,255
     f00:	fff78793          	addi	a5,a5,-1
     f04:	0ff7f713          	andi	a4,a5,255
     f08:	fb440793          	addi	a5,s0,-76
     f0c:	00070613          	mv	a2,a4
     f10:	00000593          	li	a1,0
     f14:	00078513          	mv	a0,a5
     f18:	e2cff0ef          	jal	ra,544 <quickSortIterative>
     f1c:	98cff0ef          	jal	ra,a8 <delay>
     f20:	f59ff06f          	j	e78 <main+0x68>
     f24:	984ff0ef          	jal	ra,a8 <delay>
     f28:	004007b7          	lui	a5,0x400
     f2c:	01478713          	addi	a4,a5,20 # 400014 <_endtext+0x3fecdc>
     f30:	f4440793          	addi	a5,s0,-188
     f34:	00070693          	mv	a3,a4
     f38:	04800713          	li	a4,72
     f3c:	00070613          	mv	a2,a4
     f40:	00068593          	mv	a1,a3
     f44:	00078513          	mv	a0,a5
     f48:	2c8000ef          	jal	ra,1210 <memcpy>
     f4c:	01200793          	li	a5,18
     f50:	fcf42623          	sw	a5,-52(s0)
     f54:	fe042223          	sw	zero,-28(s0)
     f58:	0380006f          	j	f90 <main+0x180>
     f5c:	fe442783          	lw	a5,-28(s0)
     f60:	00279793          	slli	a5,a5,0x2
     f64:	ff040713          	addi	a4,s0,-16
     f68:	00f707b3          	add	a5,a4,a5
     f6c:	f547a703          	lw	a4,-172(a5)
     f70:	000017b7          	lui	a5,0x1
     f74:	2e878613          	addi	a2,a5,744 # 12e8 <memcpy+0xd8>
     f78:	fe442583          	lw	a1,-28(s0)
     f7c:	00070513          	mv	a0,a4
     f80:	96cff0ef          	jal	ra,ec <draw_stick>
     f84:	fe442783          	lw	a5,-28(s0)
     f88:	00178793          	addi	a5,a5,1
     f8c:	fef42223          	sw	a5,-28(s0)
     f90:	fe442703          	lw	a4,-28(s0)
     f94:	fcc42783          	lw	a5,-52(s0)
     f98:	fcf742e3          	blt	a4,a5,f5c <main+0x14c>
     f9c:	90cff0ef          	jal	ra,a8 <delay>
     fa0:	f4440793          	addi	a5,s0,-188
     fa4:	fcc42583          	lw	a1,-52(s0)
     fa8:	00078513          	mv	a0,a5
     fac:	d01ff0ef          	jal	ra,cac <insertionSort>
     fb0:	8f8ff0ef          	jal	ra,a8 <delay>
     fb4:	f71ff06f          	j	f24 <main+0x114>
     fb8:	fe042623          	sw	zero,-20(s0)
     fbc:	06c0006f          	j	1028 <main+0x218>
     fc0:	fec42783          	lw	a5,-20(s0)
     fc4:	00279713          	slli	a4,a5,0x2
     fc8:	034007b7          	lui	a5,0x3400
     fcc:	00f707b3          	add	a5,a4,a5
     fd0:	fff00713          	li	a4,-1
     fd4:	00e7a023          	sw	a4,0(a5) # 3400000 <_stack+0x2ffec00>
     fd8:	fec42703          	lw	a4,-20(s0)
     fdc:	000017b7          	lui	a5,0x1
     fe0:	2c078793          	addi	a5,a5,704 # 12c0 <memcpy+0xb0>
     fe4:	00f707b3          	add	a5,a4,a5
     fe8:	00279713          	slli	a4,a5,0x2
     fec:	034007b7          	lui	a5,0x3400
     ff0:	ec078793          	addi	a5,a5,-320 # 33ffec0 <_stack+0x2ffeac0>
     ff4:	00f707b3          	add	a5,a4,a5
     ff8:	fff00713          	li	a4,-1
     ffc:	00e7a023          	sw	a4,0(a5)
    1000:	fec42783          	lw	a5,-20(s0)
    1004:	00279713          	slli	a4,a5,0x2
    1008:	034097b7          	lui	a5,0x3409
    100c:	4c078793          	addi	a5,a5,1216 # 34094c0 <_stack+0x30080c0>
    1010:	00f707b3          	add	a5,a4,a5
    1014:	fff00713          	li	a4,-1
    1018:	00e7a023          	sw	a4,0(a5)
    101c:	fec42783          	lw	a5,-20(s0)
    1020:	00178793          	addi	a5,a5,1
    1024:	fef42623          	sw	a5,-20(s0)
    1028:	fec42703          	lw	a4,-20(s0)
    102c:	04f00793          	li	a5,79
    1030:	f8e7d8e3          	bge	a5,a4,fc0 <main+0x1b0>
    1034:	fe042623          	sw	zero,-20(s0)
    1038:	0900006f          	j	10c8 <main+0x2b8>
    103c:	fec42703          	lw	a4,-20(s0)
    1040:	00070793          	mv	a5,a4
    1044:	00279793          	slli	a5,a5,0x2
    1048:	00e787b3          	add	a5,a5,a4
    104c:	00679793          	slli	a5,a5,0x6
    1050:	00078713          	mv	a4,a5
    1054:	034007b7          	lui	a5,0x3400
    1058:	00f707b3          	add	a5,a4,a5
    105c:	fff00713          	li	a4,-1
    1060:	00e7a023          	sw	a4,0(a5) # 3400000 <_stack+0x2ffec00>
    1064:	fec42703          	lw	a4,-20(s0)
    1068:	00070793          	mv	a5,a4
    106c:	00279793          	slli	a5,a5,0x2
    1070:	00e787b3          	add	a5,a5,a4
    1074:	00679793          	slli	a5,a5,0x6
    1078:	00078713          	mv	a4,a5
    107c:	034007b7          	lui	a5,0x3400
    1080:	09c78793          	addi	a5,a5,156 # 340009c <_stack+0x2ffec9c>
    1084:	00f707b3          	add	a5,a4,a5
    1088:	fff00713          	li	a4,-1
    108c:	00e7a023          	sw	a4,0(a5)
    1090:	fec42703          	lw	a4,-20(s0)
    1094:	00070793          	mv	a5,a4
    1098:	00279793          	slli	a5,a5,0x2
    109c:	00e787b3          	add	a5,a5,a4
    10a0:	00679793          	slli	a5,a5,0x6
    10a4:	00078713          	mv	a4,a5
    10a8:	034007b7          	lui	a5,0x3400
    10ac:	13c78793          	addi	a5,a5,316 # 340013c <_stack+0x2ffed3c>
    10b0:	00f707b3          	add	a5,a4,a5
    10b4:	fff00713          	li	a4,-1
    10b8:	00e7a023          	sw	a4,0(a5)
    10bc:	fec42783          	lw	a5,-20(s0)
    10c0:	00178793          	addi	a5,a5,1
    10c4:	fef42623          	sw	a5,-20(s0)
    10c8:	fec42703          	lw	a4,-20(s0)
    10cc:	07700793          	li	a5,119
    10d0:	f6e7d6e3          	bge	a5,a4,103c <main+0x22c>
    10d4:	fd5fe0ef          	jal	ra,a8 <delay>
    10d8:	004007b7          	lui	a5,0x400
    10dc:	00078793          	mv	a5,a5
    10e0:	0007a583          	lw	a1,0(a5) # 400000 <_endtext+0x3fecc8>
    10e4:	0047a603          	lw	a2,4(a5)
    10e8:	0087a683          	lw	a3,8(a5)
    10ec:	00c7a703          	lw	a4,12(a5)
    10f0:	fab42023          	sw	a1,-96(s0)
    10f4:	fac42223          	sw	a2,-92(s0)
    10f8:	fad42423          	sw	a3,-88(s0)
    10fc:	fae42623          	sw	a4,-84(s0)
    1100:	0107d783          	lhu	a5,16(a5)
    1104:	faf41823          	sh	a5,-80(s0)
    1108:	01200793          	li	a5,18
    110c:	fcf42823          	sw	a5,-48(s0)
    1110:	fe042023          	sw	zero,-32(s0)
    1114:	0300006f          	j	1144 <main+0x334>
    1118:	fe042783          	lw	a5,-32(s0)
    111c:	ff040713          	addi	a4,s0,-16
    1120:	00f707b3          	add	a5,a4,a5
    1124:	fb07c783          	lbu	a5,-80(a5)
    1128:	02800613          	li	a2,40
    112c:	fe042583          	lw	a1,-32(s0)
    1130:	00078513          	mv	a0,a5
    1134:	fb9fe0ef          	jal	ra,ec <draw_stick>
    1138:	fe042783          	lw	a5,-32(s0)
    113c:	00178793          	addi	a5,a5,1
    1140:	fef42023          	sw	a5,-32(s0)
    1144:	fe042703          	lw	a4,-32(s0)
    1148:	fd042783          	lw	a5,-48(s0)
    114c:	fcf746e3          	blt	a4,a5,1118 <main+0x308>
    1150:	f59fe0ef          	jal	ra,a8 <delay>
    1154:	fa040793          	addi	a5,s0,-96
    1158:	fd042583          	lw	a1,-48(s0)
    115c:	00078513          	mv	a0,a5
    1160:	8d4ff0ef          	jal	ra,234 <bubbleSort>
    1164:	f45fe0ef          	jal	ra,a8 <delay>
    1168:	f6dff06f          	j	10d4 <main+0x2c4>
    116c:	f3dfe0ef          	jal	ra,a8 <delay>
    1170:	004007b7          	lui	a5,0x400
    1174:	00078793          	mv	a5,a5
    1178:	0007a583          	lw	a1,0(a5) # 400000 <_endtext+0x3fecc8>
    117c:	0047a603          	lw	a2,4(a5)
    1180:	0087a683          	lw	a3,8(a5)
    1184:	00c7a703          	lw	a4,12(a5)
    1188:	f8b42623          	sw	a1,-116(s0)
    118c:	f8c42823          	sw	a2,-112(s0)
    1190:	f8d42a23          	sw	a3,-108(s0)
    1194:	f8e42c23          	sw	a4,-104(s0)
    1198:	0107d783          	lhu	a5,16(a5)
    119c:	f8f41e23          	sh	a5,-100(s0)
    11a0:	01200793          	li	a5,18
    11a4:	fcf42a23          	sw	a5,-44(s0)
    11a8:	fc042e23          	sw	zero,-36(s0)
    11ac:	0380006f          	j	11e4 <main+0x3d4>
    11b0:	fdc42783          	lw	a5,-36(s0)
    11b4:	ff040713          	addi	a4,s0,-16
    11b8:	00f707b3          	add	a5,a4,a5
    11bc:	f9c7c783          	lbu	a5,-100(a5)
    11c0:	00078713          	mv	a4,a5
    11c4:	000017b7          	lui	a5,0x1
    11c8:	2c078613          	addi	a2,a5,704 # 12c0 <memcpy+0xb0>
    11cc:	fdc42583          	lw	a1,-36(s0)
    11d0:	00070513          	mv	a0,a4
    11d4:	f19fe0ef          	jal	ra,ec <draw_stick>
    11d8:	fdc42783          	lw	a5,-36(s0)
    11dc:	00178793          	addi	a5,a5,1
    11e0:	fcf42e23          	sw	a5,-36(s0)
    11e4:	fdc42703          	lw	a4,-36(s0)
    11e8:	fd442783          	lw	a5,-44(s0)
    11ec:	fcf742e3          	blt	a4,a5,11b0 <main+0x3a0>
    11f0:	eb9fe0ef          	jal	ra,a8 <delay>
    11f4:	f8c40793          	addi	a5,s0,-116
    11f8:	fd442583          	lw	a1,-44(s0)
    11fc:	00078513          	mv	a0,a5
    1200:	d94ff0ef          	jal	ra,794 <mergeSort>
    1204:	ea5fe0ef          	jal	ra,a8 <delay>
    1208:	f65ff06f          	j	116c <main+0x35c>
    120c:	0000006f          	j	120c <main+0x3fc>

00001210 <memcpy>:
    1210:	00a5c7b3          	xor	a5,a1,a0
    1214:	0037f793          	andi	a5,a5,3
    1218:	00c508b3          	add	a7,a0,a2
    121c:	06079663          	bnez	a5,1288 <memcpy+0x78>
    1220:	00300793          	li	a5,3
    1224:	06c7f263          	bgeu	a5,a2,1288 <memcpy+0x78>
    1228:	00357793          	andi	a5,a0,3
    122c:	00050713          	mv	a4,a0
    1230:	0c079a63          	bnez	a5,1304 <memcpy+0xf4>
    1234:	ffc8f613          	andi	a2,a7,-4
    1238:	40e606b3          	sub	a3,a2,a4
    123c:	02000793          	li	a5,32
    1240:	02000293          	li	t0,32
    1244:	06d7c263          	blt	a5,a3,12a8 <memcpy+0x98>
    1248:	00058693          	mv	a3,a1
    124c:	00070793          	mv	a5,a4
    1250:	02c77863          	bgeu	a4,a2,1280 <memcpy+0x70>
    1254:	0006a803          	lw	a6,0(a3)
    1258:	00478793          	addi	a5,a5,4
    125c:	00468693          	addi	a3,a3,4
    1260:	ff07ae23          	sw	a6,-4(a5)
    1264:	fec7e8e3          	bltu	a5,a2,1254 <memcpy+0x44>
    1268:	fff60793          	addi	a5,a2,-1
    126c:	40e787b3          	sub	a5,a5,a4
    1270:	ffc7f793          	andi	a5,a5,-4
    1274:	00478793          	addi	a5,a5,4
    1278:	00f70733          	add	a4,a4,a5
    127c:	00f585b3          	add	a1,a1,a5
    1280:	01176863          	bltu	a4,a7,1290 <memcpy+0x80>
    1284:	00008067          	ret
    1288:	00050713          	mv	a4,a0
    128c:	ff157ce3          	bgeu	a0,a7,1284 <memcpy+0x74>
    1290:	0005c783          	lbu	a5,0(a1)
    1294:	00170713          	addi	a4,a4,1
    1298:	00158593          	addi	a1,a1,1
    129c:	fef70fa3          	sb	a5,-1(a4)
    12a0:	ff1768e3          	bltu	a4,a7,1290 <memcpy+0x80>
    12a4:	00008067          	ret
    12a8:	0045a683          	lw	a3,4(a1)
    12ac:	01c5a783          	lw	a5,28(a1)
    12b0:	0005af83          	lw	t6,0(a1)
    12b4:	0085af03          	lw	t5,8(a1)
    12b8:	00c5ae83          	lw	t4,12(a1)
    12bc:	0105ae03          	lw	t3,16(a1)
    12c0:	0145a303          	lw	t1,20(a1)
    12c4:	0185a803          	lw	a6,24(a1)
    12c8:	00d72223          	sw	a3,4(a4)
    12cc:	0205a683          	lw	a3,32(a1)
    12d0:	01f72023          	sw	t6,0(a4)
    12d4:	01e72423          	sw	t5,8(a4)
    12d8:	01d72623          	sw	t4,12(a4)
    12dc:	01c72823          	sw	t3,16(a4)
    12e0:	00672a23          	sw	t1,20(a4)
    12e4:	01072c23          	sw	a6,24(a4)
    12e8:	00f72e23          	sw	a5,28(a4)
    12ec:	02470713          	addi	a4,a4,36
    12f0:	40e607b3          	sub	a5,a2,a4
    12f4:	fed72e23          	sw	a3,-4(a4)
    12f8:	02458593          	addi	a1,a1,36
    12fc:	faf2c6e3          	blt	t0,a5,12a8 <memcpy+0x98>
    1300:	f49ff06f          	j	1248 <memcpy+0x38>
    1304:	0005c683          	lbu	a3,0(a1)
    1308:	00170713          	addi	a4,a4,1
    130c:	00377793          	andi	a5,a4,3
    1310:	fed70fa3          	sb	a3,-1(a4)
    1314:	00158593          	addi	a1,a1,1
    1318:	f0078ee3          	beqz	a5,1234 <memcpy+0x24>
    131c:	0005c683          	lbu	a3,0(a1)
    1320:	00170713          	addi	a4,a4,1
    1324:	00377793          	andi	a5,a4,3
    1328:	fed70fa3          	sb	a3,-1(a4)
    132c:	00158593          	addi	a1,a1,1
    1330:	fc079ae3          	bnez	a5,1304 <memcpy+0xf4>
    1334:	f01ff06f          	j	1234 <memcpy+0x24>
