
FP_test_rv32i.elf:     file format elf32-littleriscv


Disassembly of section .vectors:

00000000 <reset_handler-0x18>:
   0:	00000013          	nop
   4:	00000013          	nop
   8:	00000013          	nop
   c:	00000013          	nop
  10:	00000013          	nop
  14:	0040006f          	j	18 <reset_handler>

00000018 <reset_handler>:
  18:	00000093          	li	ra,0
  1c:	00008113          	mv	sp,ra
  20:	00008193          	mv	gp,ra
  24:	00008213          	mv	tp,ra
  28:	00008293          	mv	t0,ra
  2c:	00008313          	mv	t1,ra
  30:	00008393          	mv	t2,ra
  34:	00008413          	mv	s0,ra
  38:	00008493          	mv	s1,ra
  3c:	00008513          	mv	a0,ra
  40:	00008593          	mv	a1,ra
  44:	00008613          	mv	a2,ra
  48:	00008693          	mv	a3,ra
  4c:	00008713          	mv	a4,ra
  50:	00008793          	mv	a5,ra
  54:	00008813          	mv	a6,ra
  58:	00008893          	mv	a7,ra
  5c:	00008913          	mv	s2,ra
  60:	00008993          	mv	s3,ra
  64:	00008a13          	mv	s4,ra
  68:	00008a93          	mv	s5,ra
  6c:	00008b13          	mv	s6,ra
  70:	00008b93          	mv	s7,ra
  74:	00008c13          	mv	s8,ra
  78:	00008c93          	mv	s9,ra
  7c:	00008d13          	mv	s10,ra
  80:	00008d93          	mv	s11,ra
  84:	00008e13          	mv	t3,ra
  88:	00008e93          	mv	t4,ra
  8c:	00008f13          	mv	t5,ra
  90:	00008f93          	mv	t6,ra
  94:	00c002b7          	lui	t0,0xc00
  98:	00c28293          	addi	t0,t0,12 # c0000c <_bss_end+0x7ff68c>
  9c:	0002a103          	lw	sp,0(t0)
  a0:	008000ef          	jal	ra,a8 <main>
  a4:	00100073          	ebreak

Disassembly of section .text:

000000a8 <main>:
  a8:	fe010113          	addi	sp,sp,-32
  ac:	00112e23          	sw	ra,28(sp)
  b0:	00812c23          	sw	s0,24(sp)
  b4:	00912a23          	sw	s1,20(sp)
  b8:	02010413          	addi	s0,sp,32
  bc:	00c007b7          	lui	a5,0xc00
  c0:	0007a783          	lw	a5,0(a5) # c00000 <_bss_end+0x7ff680>
  c4:	fef42623          	sw	a5,-20(s0)
  c8:	fec42703          	lw	a4,-20(s0)
  cc:	00400793          	li	a5,4
  d0:	06f71a63          	bne	a4,a5,144 <_min_stack+0x44>
  d4:	004017b7          	lui	a5,0x401
  d8:	8007a783          	lw	a5,-2048(a5) # 400800 <_stack_start+0x600>
  dc:	fef42423          	sw	a5,-24(s0)
  e0:	004017b7          	lui	a5,0x401
  e4:	8047a783          	lw	a5,-2044(a5) # 400804 <_stack_start+0x604>
  e8:	fef42223          	sw	a5,-28(s0)
  ec:	004017b7          	lui	a5,0x401
  f0:	f0078493          	addi	s1,a5,-256 # 400f00 <_bss_end+0x580>
  f4:	fe442583          	lw	a1,-28(s0)
  f8:	fe842503          	lw	a0,-24(s0)
  fc:	068000ef          	jal	ra,164 <__addsf3>
 100:	00050793          	mv	a5,a0
 104:	00f4a023          	sw	a5,0(s1)
 108:	004017b7          	lui	a5,0x401
 10c:	f0478493          	addi	s1,a5,-252 # 400f04 <_bss_end+0x584>
 110:	fe442583          	lw	a1,-28(s0)
 114:	fe842503          	lw	a0,-24(s0)
 118:	03d000ef          	jal	ra,954 <__mulsf3>
 11c:	00050793          	mv	a5,a0
 120:	00f4a023          	sw	a5,0(s1)
 124:	004017b7          	lui	a5,0x401
 128:	f0878493          	addi	s1,a5,-248 # 400f08 <_bss_end+0x588>
 12c:	fe842583          	lw	a1,-24(s0)
 130:	fe442503          	lw	a0,-28(s0)
 134:	48c000ef          	jal	ra,5c0 <__divsf3>
 138:	00050793          	mv	a5,a0
 13c:	00f4a023          	sw	a5,0(s1)
 140:	0080006f          	j	148 <_min_stack+0x48>
 144:	0000006f          	j	144 <_min_stack+0x44>
 148:	00000793          	li	a5,0
 14c:	00078513          	mv	a0,a5
 150:	01c12083          	lw	ra,28(sp)
 154:	01812403          	lw	s0,24(sp)
 158:	01412483          	lw	s1,20(sp)
 15c:	02010113          	addi	sp,sp,32
 160:	00008067          	ret

00000164 <__addsf3>:
 164:	00800737          	lui	a4,0x800
 168:	ff010113          	addi	sp,sp,-16
 16c:	fff70713          	addi	a4,a4,-1 # 7fffff <_bss_end+0x3ff67f>
 170:	00a777b3          	and	a5,a4,a0
 174:	00812423          	sw	s0,8(sp)
 178:	00912223          	sw	s1,4(sp)
 17c:	01755413          	srli	s0,a0,0x17
 180:	01f55493          	srli	s1,a0,0x1f
 184:	0175d513          	srli	a0,a1,0x17
 188:	00b77733          	and	a4,a4,a1
 18c:	0ff47413          	andi	s0,s0,255
 190:	0ff57513          	andi	a0,a0,255
 194:	00112623          	sw	ra,12(sp)
 198:	01212023          	sw	s2,0(sp)
 19c:	01f5d593          	srli	a1,a1,0x1f
 1a0:	00379793          	slli	a5,a5,0x3
 1a4:	00371713          	slli	a4,a4,0x3
 1a8:	40a406b3          	sub	a3,s0,a0
 1ac:	18b49a63          	bne	s1,a1,340 <_stack_len+0x140>
 1b0:	0ad05063          	blez	a3,250 <_stack_len+0x50>
 1b4:	02051663          	bnez	a0,1e0 <__addsf3+0x7c>
 1b8:	18070063          	beqz	a4,338 <_stack_len+0x138>
 1bc:	fff68613          	addi	a2,a3,-1
 1c0:	00061863          	bnez	a2,1d0 <__addsf3+0x6c>
 1c4:	00e787b3          	add	a5,a5,a4
 1c8:	00100413          	li	s0,1
 1cc:	0500006f          	j	21c <_stack_len+0x1c>
 1d0:	0ff00593          	li	a1,255
 1d4:	02b69063          	bne	a3,a1,1f4 <__addsf3+0x90>
 1d8:	0ff00413          	li	s0,255
 1dc:	1180006f          	j	2f4 <_stack_len+0xf4>
 1e0:	0ff00613          	li	a2,255
 1e4:	10c40863          	beq	s0,a2,2f4 <_stack_len+0xf4>
 1e8:	04000637          	lui	a2,0x4000
 1ec:	00c76733          	or	a4,a4,a2
 1f0:	00068613          	mv	a2,a3
 1f4:	01b00593          	li	a1,27
 1f8:	00100693          	li	a3,1
 1fc:	00c5ce63          	blt	a1,a2,218 <_stack_len+0x18>
 200:	02000693          	li	a3,32
 204:	40c686b3          	sub	a3,a3,a2
 208:	00c755b3          	srl	a1,a4,a2
 20c:	00d71733          	sll	a4,a4,a3
 210:	00e03733          	snez	a4,a4
 214:	00e5e6b3          	or	a3,a1,a4
 218:	00d787b3          	add	a5,a5,a3
 21c:	04000737          	lui	a4,0x4000
 220:	00e7f733          	and	a4,a5,a4
 224:	0c070863          	beqz	a4,2f4 <_stack_len+0xf4>
 228:	00140413          	addi	s0,s0,1
 22c:	0ff00713          	li	a4,255
 230:	30e40263          	beq	s0,a4,534 <_stack_len+0x334>
 234:	7e000737          	lui	a4,0x7e000
 238:	0017f693          	andi	a3,a5,1
 23c:	fff70713          	addi	a4,a4,-1 # 7dffffff <_bss_end+0x7dbff67f>
 240:	0017d793          	srli	a5,a5,0x1
 244:	00e7f7b3          	and	a5,a5,a4
 248:	00d7e7b3          	or	a5,a5,a3
 24c:	0a80006f          	j	2f4 <_stack_len+0xf4>
 250:	06068663          	beqz	a3,2bc <_stack_len+0xbc>
 254:	408506b3          	sub	a3,a0,s0
 258:	02041063          	bnez	s0,278 <_stack_len+0x78>
 25c:	2c078263          	beqz	a5,520 <_stack_len+0x320>
 260:	fff68613          	addi	a2,a3,-1
 264:	f60600e3          	beqz	a2,1c4 <__addsf3+0x60>
 268:	0ff00593          	li	a1,255
 26c:	02b69063          	bne	a3,a1,28c <_stack_len+0x8c>
 270:	00070793          	mv	a5,a4
 274:	f65ff06f          	j	1d8 <__addsf3+0x74>
 278:	0ff00613          	li	a2,255
 27c:	fec50ae3          	beq	a0,a2,270 <_stack_len+0x70>
 280:	04000637          	lui	a2,0x4000
 284:	00c7e7b3          	or	a5,a5,a2
 288:	00068613          	mv	a2,a3
 28c:	01b00593          	li	a1,27
 290:	00100693          	li	a3,1
 294:	00c5ce63          	blt	a1,a2,2b0 <_stack_len+0xb0>
 298:	02000693          	li	a3,32
 29c:	40c686b3          	sub	a3,a3,a2
 2a0:	00c7d5b3          	srl	a1,a5,a2
 2a4:	00d797b3          	sll	a5,a5,a3
 2a8:	00f037b3          	snez	a5,a5
 2ac:	00f5e6b3          	or	a3,a1,a5
 2b0:	00e687b3          	add	a5,a3,a4
 2b4:	00050413          	mv	s0,a0
 2b8:	f65ff06f          	j	21c <_stack_len+0x1c>
 2bc:	00140693          	addi	a3,s0,1
 2c0:	0fe6f613          	andi	a2,a3,254
 2c4:	06061263          	bnez	a2,328 <_stack_len+0x128>
 2c8:	04041463          	bnez	s0,310 <_stack_len+0x110>
 2cc:	24078e63          	beqz	a5,528 <_stack_len+0x328>
 2d0:	02070263          	beqz	a4,2f4 <_stack_len+0xf4>
 2d4:	00e787b3          	add	a5,a5,a4
 2d8:	04000737          	lui	a4,0x4000
 2dc:	00e7f733          	and	a4,a5,a4
 2e0:	00070a63          	beqz	a4,2f4 <_stack_len+0xf4>
 2e4:	fc000737          	lui	a4,0xfc000
 2e8:	fff70713          	addi	a4,a4,-1 # fbffffff <_bss_end+0xfbbff67f>
 2ec:	00e7f7b3          	and	a5,a5,a4
 2f0:	00100413          	li	s0,1
 2f4:	0077f713          	andi	a4,a5,7
 2f8:	24070063          	beqz	a4,538 <_stack_len+0x338>
 2fc:	00f7f713          	andi	a4,a5,15
 300:	00400693          	li	a3,4
 304:	22d70a63          	beq	a4,a3,538 <_stack_len+0x338>
 308:	00478793          	addi	a5,a5,4
 30c:	22c0006f          	j	538 <_stack_len+0x338>
 310:	f60780e3          	beqz	a5,270 <_stack_len+0x70>
 314:	ec0702e3          	beqz	a4,1d8 <__addsf3+0x74>
 318:	00000493          	li	s1,0
 31c:	020007b7          	lui	a5,0x2000
 320:	0ff00413          	li	s0,255
 324:	2140006f          	j	538 <_stack_len+0x338>
 328:	0ff00613          	li	a2,255
 32c:	20c68263          	beq	a3,a2,530 <_stack_len+0x330>
 330:	00e787b3          	add	a5,a5,a4
 334:	0017d793          	srli	a5,a5,0x1
 338:	00068413          	mv	s0,a3
 33c:	fb9ff06f          	j	2f4 <_stack_len+0xf4>
 340:	08d05063          	blez	a3,3c0 <_stack_len+0x1c0>
 344:	06051263          	bnez	a0,3a8 <_stack_len+0x1a8>
 348:	fe0708e3          	beqz	a4,338 <_stack_len+0x138>
 34c:	fff68613          	addi	a2,a3,-1
 350:	00061863          	bnez	a2,360 <_stack_len+0x160>
 354:	40e787b3          	sub	a5,a5,a4
 358:	00100413          	li	s0,1
 35c:	0340006f          	j	390 <_stack_len+0x190>
 360:	0ff00593          	li	a1,255
 364:	e6b68ae3          	beq	a3,a1,1d8 <__addsf3+0x74>
 368:	01b00593          	li	a1,27
 36c:	00100693          	li	a3,1
 370:	00c5ce63          	blt	a1,a2,38c <_stack_len+0x18c>
 374:	02000693          	li	a3,32
 378:	40c686b3          	sub	a3,a3,a2
 37c:	00c755b3          	srl	a1,a4,a2
 380:	00d71733          	sll	a4,a4,a3
 384:	00e03733          	snez	a4,a4
 388:	00e5e6b3          	or	a3,a1,a4
 38c:	40d787b3          	sub	a5,a5,a3
 390:	04000937          	lui	s2,0x4000
 394:	0127f733          	and	a4,a5,s2
 398:	f4070ee3          	beqz	a4,2f4 <_stack_len+0xf4>
 39c:	fff90913          	addi	s2,s2,-1 # 3ffffff <_bss_end+0x3bff67f>
 3a0:	0127f933          	and	s2,a5,s2
 3a4:	1180006f          	j	4bc <_stack_len+0x2bc>
 3a8:	0ff00613          	li	a2,255
 3ac:	f4c404e3          	beq	s0,a2,2f4 <_stack_len+0xf4>
 3b0:	04000637          	lui	a2,0x4000
 3b4:	00c76733          	or	a4,a4,a2
 3b8:	00068613          	mv	a2,a3
 3bc:	fadff06f          	j	368 <_stack_len+0x168>
 3c0:	08068063          	beqz	a3,440 <_stack_len+0x240>
 3c4:	408506b3          	sub	a3,a0,s0
 3c8:	02041863          	bnez	s0,3f8 <_stack_len+0x1f8>
 3cc:	1e078063          	beqz	a5,5ac <_stack_len+0x3ac>
 3d0:	fff68613          	addi	a2,a3,-1
 3d4:	00061863          	bnez	a2,3e4 <_stack_len+0x1e4>
 3d8:	40f707b3          	sub	a5,a4,a5
 3dc:	00058493          	mv	s1,a1
 3e0:	f79ff06f          	j	358 <_stack_len+0x158>
 3e4:	0ff00813          	li	a6,255
 3e8:	03069263          	bne	a3,a6,40c <_stack_len+0x20c>
 3ec:	00070793          	mv	a5,a4
 3f0:	0ff00413          	li	s0,255
 3f4:	06c0006f          	j	460 <_stack_len+0x260>
 3f8:	0ff00613          	li	a2,255
 3fc:	fec508e3          	beq	a0,a2,3ec <_stack_len+0x1ec>
 400:	04000637          	lui	a2,0x4000
 404:	00c7e7b3          	or	a5,a5,a2
 408:	00068613          	mv	a2,a3
 40c:	01b00813          	li	a6,27
 410:	00100693          	li	a3,1
 414:	00c84e63          	blt	a6,a2,430 <_stack_len+0x230>
 418:	02000693          	li	a3,32
 41c:	40c686b3          	sub	a3,a3,a2
 420:	00c7d833          	srl	a6,a5,a2
 424:	00d797b3          	sll	a5,a5,a3
 428:	00f037b3          	snez	a5,a5
 42c:	00f866b3          	or	a3,a6,a5
 430:	40d707b3          	sub	a5,a4,a3
 434:	00050413          	mv	s0,a0
 438:	00058493          	mv	s1,a1
 43c:	f55ff06f          	j	390 <_stack_len+0x190>
 440:	00140693          	addi	a3,s0,1
 444:	0fe6f693          	andi	a3,a3,254
 448:	04069e63          	bnez	a3,4a4 <_stack_len+0x2a4>
 44c:	04041263          	bnez	s0,490 <_stack_len+0x290>
 450:	00079c63          	bnez	a5,468 <_stack_len+0x268>
 454:	00000493          	li	s1,0
 458:	0e070063          	beqz	a4,538 <_stack_len+0x338>
 45c:	00070793          	mv	a5,a4
 460:	00058493          	mv	s1,a1
 464:	e91ff06f          	j	2f4 <_stack_len+0xf4>
 468:	e80706e3          	beqz	a4,2f4 <_stack_len+0xf4>
 46c:	40e786b3          	sub	a3,a5,a4
 470:	04000637          	lui	a2,0x4000
 474:	00c6f633          	and	a2,a3,a2
 478:	40f707b3          	sub	a5,a4,a5
 47c:	fe0612e3          	bnez	a2,460 <_stack_len+0x260>
 480:	00000793          	li	a5,0
 484:	08068063          	beqz	a3,504 <_stack_len+0x304>
 488:	00068793          	mv	a5,a3
 48c:	e69ff06f          	j	2f4 <_stack_len+0xf4>
 490:	e80792e3          	bnez	a5,314 <_stack_len+0x114>
 494:	e80702e3          	beqz	a4,318 <_stack_len+0x118>
 498:	00070793          	mv	a5,a4
 49c:	00058493          	mv	s1,a1
 4a0:	d39ff06f          	j	1d8 <__addsf3+0x74>
 4a4:	40e78933          	sub	s2,a5,a4
 4a8:	040006b7          	lui	a3,0x4000
 4ac:	00d976b3          	and	a3,s2,a3
 4b0:	04068463          	beqz	a3,4f8 <_stack_len+0x2f8>
 4b4:	40f70933          	sub	s2,a4,a5
 4b8:	00058493          	mv	s1,a1
 4bc:	00090513          	mv	a0,s2
 4c0:	09d000ef          	jal	ra,d5c <__clzsi2>
 4c4:	ffb50513          	addi	a0,a0,-5
 4c8:	00a91933          	sll	s2,s2,a0
 4cc:	04854063          	blt	a0,s0,50c <_stack_len+0x30c>
 4d0:	40850533          	sub	a0,a0,s0
 4d4:	00150513          	addi	a0,a0,1
 4d8:	02000413          	li	s0,32
 4dc:	00a957b3          	srl	a5,s2,a0
 4e0:	40a40533          	sub	a0,s0,a0
 4e4:	00a91933          	sll	s2,s2,a0
 4e8:	01203933          	snez	s2,s2
 4ec:	0127e7b3          	or	a5,a5,s2
 4f0:	00000413          	li	s0,0
 4f4:	e01ff06f          	j	2f4 <_stack_len+0xf4>
 4f8:	fc0912e3          	bnez	s2,4bc <_stack_len+0x2bc>
 4fc:	00000793          	li	a5,0
 500:	00000413          	li	s0,0
 504:	00000493          	li	s1,0
 508:	0300006f          	j	538 <_stack_len+0x338>
 50c:	fc0007b7          	lui	a5,0xfc000
 510:	fff78793          	addi	a5,a5,-1 # fbffffff <_bss_end+0xfbbff67f>
 514:	40a40433          	sub	s0,s0,a0
 518:	00f977b3          	and	a5,s2,a5
 51c:	dd9ff06f          	j	2f4 <_stack_len+0xf4>
 520:	00070793          	mv	a5,a4
 524:	e15ff06f          	j	338 <_stack_len+0x138>
 528:	00070793          	mv	a5,a4
 52c:	dc9ff06f          	j	2f4 <_stack_len+0xf4>
 530:	0ff00413          	li	s0,255
 534:	00000793          	li	a5,0
 538:	04000737          	lui	a4,0x4000
 53c:	00e7f733          	and	a4,a5,a4
 540:	00070e63          	beqz	a4,55c <_stack_len+0x35c>
 544:	00140413          	addi	s0,s0,1
 548:	0ff00713          	li	a4,255
 54c:	06e40663          	beq	s0,a4,5b8 <_stack_len+0x3b8>
 550:	fc000737          	lui	a4,0xfc000
 554:	fff70713          	addi	a4,a4,-1 # fbffffff <_bss_end+0xfbbff67f>
 558:	00e7f7b3          	and	a5,a5,a4
 55c:	0ff00713          	li	a4,255
 560:	0037d793          	srli	a5,a5,0x3
 564:	00e41863          	bne	s0,a4,574 <_stack_len+0x374>
 568:	00078663          	beqz	a5,574 <_stack_len+0x374>
 56c:	004007b7          	lui	a5,0x400
 570:	00000493          	li	s1,0
 574:	7f800537          	lui	a0,0x7f800
 578:	01741413          	slli	s0,s0,0x17
 57c:	00979793          	slli	a5,a5,0x9
 580:	00a47433          	and	s0,s0,a0
 584:	0097d793          	srli	a5,a5,0x9
 588:	00c12083          	lw	ra,12(sp)
 58c:	00f467b3          	or	a5,s0,a5
 590:	00812403          	lw	s0,8(sp)
 594:	01f49513          	slli	a0,s1,0x1f
 598:	00012903          	lw	s2,0(sp)
 59c:	00412483          	lw	s1,4(sp)
 5a0:	00a7e533          	or	a0,a5,a0
 5a4:	01010113          	addi	sp,sp,16
 5a8:	00008067          	ret
 5ac:	00070793          	mv	a5,a4
 5b0:	00068413          	mv	s0,a3
 5b4:	eadff06f          	j	460 <_stack_len+0x260>
 5b8:	00000793          	li	a5,0
 5bc:	fa1ff06f          	j	55c <_stack_len+0x35c>

000005c0 <__divsf3>:
 5c0:	fd010113          	addi	sp,sp,-48
 5c4:	02912223          	sw	s1,36(sp)
 5c8:	01755493          	srli	s1,a0,0x17
 5cc:	01312e23          	sw	s3,28(sp)
 5d0:	01512a23          	sw	s5,20(sp)
 5d4:	01612823          	sw	s6,16(sp)
 5d8:	00951a93          	slli	s5,a0,0x9
 5dc:	02112623          	sw	ra,44(sp)
 5e0:	02812423          	sw	s0,40(sp)
 5e4:	03212023          	sw	s2,32(sp)
 5e8:	01412c23          	sw	s4,24(sp)
 5ec:	01712623          	sw	s7,12(sp)
 5f0:	01812423          	sw	s8,8(sp)
 5f4:	01912223          	sw	s9,4(sp)
 5f8:	0ff4f493          	andi	s1,s1,255
 5fc:	00058b13          	mv	s6,a1
 600:	009ada93          	srli	s5,s5,0x9
 604:	01f55993          	srli	s3,a0,0x1f
 608:	08048463          	beqz	s1,690 <__divsf3+0xd0>
 60c:	0ff00793          	li	a5,255
 610:	0af48063          	beq	s1,a5,6b0 <__divsf3+0xf0>
 614:	003a9a93          	slli	s5,s5,0x3
 618:	040007b7          	lui	a5,0x4000
 61c:	00faeab3          	or	s5,s5,a5
 620:	f8148493          	addi	s1,s1,-127
 624:	00000b93          	li	s7,0
 628:	017b5793          	srli	a5,s6,0x17
 62c:	009b1413          	slli	s0,s6,0x9
 630:	0ff7f793          	andi	a5,a5,255
 634:	00945413          	srli	s0,s0,0x9
 638:	01fb5b13          	srli	s6,s6,0x1f
 63c:	08078a63          	beqz	a5,6d0 <__divsf3+0x110>
 640:	0ff00713          	li	a4,255
 644:	0ae78663          	beq	a5,a4,6f0 <__divsf3+0x130>
 648:	00341413          	slli	s0,s0,0x3
 64c:	04000737          	lui	a4,0x4000
 650:	00e46433          	or	s0,s0,a4
 654:	f8178793          	addi	a5,a5,-127 # 3ffff81 <_bss_end+0x3bff601>
 658:	00000713          	li	a4,0
 65c:	002b9693          	slli	a3,s7,0x2
 660:	00e6e6b3          	or	a3,a3,a4
 664:	40f48a33          	sub	s4,s1,a5
 668:	fff68693          	addi	a3,a3,-1 # 3ffffff <_bss_end+0x3bff67f>
 66c:	00e00793          	li	a5,14
 670:	0169c933          	xor	s2,s3,s6
 674:	08d7ee63          	bltu	a5,a3,710 <__divsf3+0x150>
 678:	004017b7          	lui	a5,0x401
 67c:	80878793          	addi	a5,a5,-2040 # 400808 <_stack_start+0x608>
 680:	00269693          	slli	a3,a3,0x2
 684:	00f686b3          	add	a3,a3,a5
 688:	0006a783          	lw	a5,0(a3)
 68c:	00078067          	jr	a5
 690:	020a8a63          	beqz	s5,6c4 <__divsf3+0x104>
 694:	000a8513          	mv	a0,s5
 698:	6c4000ef          	jal	ra,d5c <__clzsi2>
 69c:	ffb50793          	addi	a5,a0,-5 # 7f7ffffb <_bss_end+0x7f3ff67b>
 6a0:	f8a00493          	li	s1,-118
 6a4:	00fa9ab3          	sll	s5,s5,a5
 6a8:	40a484b3          	sub	s1,s1,a0
 6ac:	f79ff06f          	j	624 <__divsf3+0x64>
 6b0:	0ff00493          	li	s1,255
 6b4:	00200b93          	li	s7,2
 6b8:	f60a88e3          	beqz	s5,628 <__divsf3+0x68>
 6bc:	00300b93          	li	s7,3
 6c0:	f69ff06f          	j	628 <__divsf3+0x68>
 6c4:	00000493          	li	s1,0
 6c8:	00100b93          	li	s7,1
 6cc:	f5dff06f          	j	628 <__divsf3+0x68>
 6d0:	02040a63          	beqz	s0,704 <__divsf3+0x144>
 6d4:	00040513          	mv	a0,s0
 6d8:	684000ef          	jal	ra,d5c <__clzsi2>
 6dc:	ffb50793          	addi	a5,a0,-5
 6e0:	00f41433          	sll	s0,s0,a5
 6e4:	f8a00793          	li	a5,-118
 6e8:	40a787b3          	sub	a5,a5,a0
 6ec:	f6dff06f          	j	658 <__divsf3+0x98>
 6f0:	0ff00793          	li	a5,255
 6f4:	00200713          	li	a4,2
 6f8:	f60402e3          	beqz	s0,65c <__divsf3+0x9c>
 6fc:	00300713          	li	a4,3
 700:	f5dff06f          	j	65c <__divsf3+0x9c>
 704:	00000793          	li	a5,0
 708:	00100713          	li	a4,1
 70c:	f51ff06f          	j	65c <__divsf3+0x9c>
 710:	00541c93          	slli	s9,s0,0x5
 714:	168afc63          	bgeu	s5,s0,88c <__divsf3+0x2cc>
 718:	fffa0a13          	addi	s4,s4,-1
 71c:	00000493          	li	s1,0
 720:	010cdb13          	srli	s6,s9,0x10
 724:	00010437          	lui	s0,0x10
 728:	000b0593          	mv	a1,s6
 72c:	fff40413          	addi	s0,s0,-1 # ffff <_endtext+0xf257>
 730:	000a8513          	mv	a0,s5
 734:	57c000ef          	jal	ra,cb0 <__udivsi3>
 738:	008cf433          	and	s0,s9,s0
 73c:	00050593          	mv	a1,a0
 740:	00050c13          	mv	s8,a0
 744:	00040513          	mv	a0,s0
 748:	53c000ef          	jal	ra,c84 <__mulsi3>
 74c:	00050b93          	mv	s7,a0
 750:	000b0593          	mv	a1,s6
 754:	000a8513          	mv	a0,s5
 758:	5a0000ef          	jal	ra,cf8 <__umodsi3>
 75c:	01051513          	slli	a0,a0,0x10
 760:	0104d793          	srli	a5,s1,0x10
 764:	00a7e7b3          	or	a5,a5,a0
 768:	000c0993          	mv	s3,s8
 76c:	0177fe63          	bgeu	a5,s7,788 <__divsf3+0x1c8>
 770:	019787b3          	add	a5,a5,s9
 774:	fffc0993          	addi	s3,s8,-1
 778:	0197e863          	bltu	a5,s9,788 <__divsf3+0x1c8>
 77c:	0177f663          	bgeu	a5,s7,788 <__divsf3+0x1c8>
 780:	ffec0993          	addi	s3,s8,-2
 784:	019787b3          	add	a5,a5,s9
 788:	41778bb3          	sub	s7,a5,s7
 78c:	000b0593          	mv	a1,s6
 790:	000b8513          	mv	a0,s7
 794:	51c000ef          	jal	ra,cb0 <__udivsi3>
 798:	00050593          	mv	a1,a0
 79c:	00050a93          	mv	s5,a0
 7a0:	00040513          	mv	a0,s0
 7a4:	4e0000ef          	jal	ra,c84 <__mulsi3>
 7a8:	00050413          	mv	s0,a0
 7ac:	000b0593          	mv	a1,s6
 7b0:	000b8513          	mv	a0,s7
 7b4:	544000ef          	jal	ra,cf8 <__umodsi3>
 7b8:	01051793          	slli	a5,a0,0x10
 7bc:	000a8713          	mv	a4,s5
 7c0:	0087fe63          	bgeu	a5,s0,7dc <__divsf3+0x21c>
 7c4:	019787b3          	add	a5,a5,s9
 7c8:	fffa8713          	addi	a4,s5,-1
 7cc:	0197e863          	bltu	a5,s9,7dc <__divsf3+0x21c>
 7d0:	0087f663          	bgeu	a5,s0,7dc <__divsf3+0x21c>
 7d4:	ffea8713          	addi	a4,s5,-2
 7d8:	019787b3          	add	a5,a5,s9
 7dc:	408787b3          	sub	a5,a5,s0
 7e0:	01099993          	slli	s3,s3,0x10
 7e4:	00e9e9b3          	or	s3,s3,a4
 7e8:	00f037b3          	snez	a5,a5
 7ec:	00f9e433          	or	s0,s3,a5
 7f0:	07fa0713          	addi	a4,s4,127
 7f4:	0ee05663          	blez	a4,8e0 <__divsf3+0x320>
 7f8:	00747793          	andi	a5,s0,7
 7fc:	00078a63          	beqz	a5,810 <__divsf3+0x250>
 800:	00f47793          	andi	a5,s0,15
 804:	00400693          	li	a3,4
 808:	00d78463          	beq	a5,a3,810 <__divsf3+0x250>
 80c:	00440413          	addi	s0,s0,4
 810:	080007b7          	lui	a5,0x8000
 814:	00f477b3          	and	a5,s0,a5
 818:	00078a63          	beqz	a5,82c <__divsf3+0x26c>
 81c:	f80007b7          	lui	a5,0xf8000
 820:	fff78793          	addi	a5,a5,-1 # f7ffffff <_bss_end+0xf7bff67f>
 824:	00f47433          	and	s0,s0,a5
 828:	080a0713          	addi	a4,s4,128
 82c:	0fe00793          	li	a5,254
 830:	00345413          	srli	s0,s0,0x3
 834:	08e7c463          	blt	a5,a4,8bc <__divsf3+0x2fc>
 838:	01771793          	slli	a5,a4,0x17
 83c:	00941413          	slli	s0,s0,0x9
 840:	7f800737          	lui	a4,0x7f800
 844:	00e7f7b3          	and	a5,a5,a4
 848:	00945413          	srli	s0,s0,0x9
 84c:	0087e433          	or	s0,a5,s0
 850:	01f91513          	slli	a0,s2,0x1f
 854:	02c12083          	lw	ra,44(sp)
 858:	00a46533          	or	a0,s0,a0
 85c:	02812403          	lw	s0,40(sp)
 860:	02412483          	lw	s1,36(sp)
 864:	02012903          	lw	s2,32(sp)
 868:	01c12983          	lw	s3,28(sp)
 86c:	01812a03          	lw	s4,24(sp)
 870:	01412a83          	lw	s5,20(sp)
 874:	01012b03          	lw	s6,16(sp)
 878:	00c12b83          	lw	s7,12(sp)
 87c:	00812c03          	lw	s8,8(sp)
 880:	00412c83          	lw	s9,4(sp)
 884:	03010113          	addi	sp,sp,48
 888:	00008067          	ret
 88c:	01fa9493          	slli	s1,s5,0x1f
 890:	001ada93          	srli	s5,s5,0x1
 894:	e8dff06f          	j	720 <__divsf3+0x160>
 898:	00098913          	mv	s2,s3
 89c:	000a8413          	mv	s0,s5
 8a0:	000b8713          	mv	a4,s7
 8a4:	00300793          	li	a5,3
 8a8:	08f70863          	beq	a4,a5,938 <__divsf3+0x378>
 8ac:	00100793          	li	a5,1
 8b0:	08f70c63          	beq	a4,a5,948 <__divsf3+0x388>
 8b4:	00200793          	li	a5,2
 8b8:	f2f71ce3          	bne	a4,a5,7f0 <__divsf3+0x230>
 8bc:	00000413          	li	s0,0
 8c0:	0ff00713          	li	a4,255
 8c4:	f75ff06f          	j	838 <__divsf3+0x278>
 8c8:	000b0913          	mv	s2,s6
 8cc:	fd9ff06f          	j	8a4 <__divsf3+0x2e4>
 8d0:	00400437          	lui	s0,0x400
 8d4:	00000913          	li	s2,0
 8d8:	00300713          	li	a4,3
 8dc:	fc9ff06f          	j	8a4 <__divsf3+0x2e4>
 8e0:	00100793          	li	a5,1
 8e4:	40e787b3          	sub	a5,a5,a4
 8e8:	01b00713          	li	a4,27
 8ec:	04f74e63          	blt	a4,a5,948 <__divsf3+0x388>
 8f0:	09ea0493          	addi	s1,s4,158
 8f4:	00f457b3          	srl	a5,s0,a5
 8f8:	00941433          	sll	s0,s0,s1
 8fc:	00803433          	snez	s0,s0
 900:	0087e433          	or	s0,a5,s0
 904:	00747793          	andi	a5,s0,7
 908:	00078a63          	beqz	a5,91c <__divsf3+0x35c>
 90c:	00f47793          	andi	a5,s0,15
 910:	00400713          	li	a4,4
 914:	00e78463          	beq	a5,a4,91c <__divsf3+0x35c>
 918:	00440413          	addi	s0,s0,4 # 400004 <_endtext+0x3ff25c>
 91c:	040007b7          	lui	a5,0x4000
 920:	00f477b3          	and	a5,s0,a5
 924:	00345413          	srli	s0,s0,0x3
 928:	02078263          	beqz	a5,94c <__divsf3+0x38c>
 92c:	00000413          	li	s0,0
 930:	00100713          	li	a4,1
 934:	f05ff06f          	j	838 <__divsf3+0x278>
 938:	00400437          	lui	s0,0x400
 93c:	0ff00713          	li	a4,255
 940:	00000913          	li	s2,0
 944:	ef5ff06f          	j	838 <__divsf3+0x278>
 948:	00000413          	li	s0,0
 94c:	00000713          	li	a4,0
 950:	ee9ff06f          	j	838 <__divsf3+0x278>

00000954 <__mulsf3>:
 954:	fe010113          	addi	sp,sp,-32
 958:	01212823          	sw	s2,16(sp)
 95c:	01755913          	srli	s2,a0,0x17
 960:	00912a23          	sw	s1,20(sp)
 964:	01312623          	sw	s3,12(sp)
 968:	01412423          	sw	s4,8(sp)
 96c:	00951493          	slli	s1,a0,0x9
 970:	00112e23          	sw	ra,28(sp)
 974:	00812c23          	sw	s0,24(sp)
 978:	01512223          	sw	s5,4(sp)
 97c:	0ff97913          	andi	s2,s2,255
 980:	00058a13          	mv	s4,a1
 984:	0094d493          	srli	s1,s1,0x9
 988:	01f55993          	srli	s3,a0,0x1f
 98c:	08090663          	beqz	s2,a18 <__mulsf3+0xc4>
 990:	0ff00793          	li	a5,255
 994:	0af90263          	beq	s2,a5,a38 <__mulsf3+0xe4>
 998:	00349493          	slli	s1,s1,0x3
 99c:	040007b7          	lui	a5,0x4000
 9a0:	00f4e4b3          	or	s1,s1,a5
 9a4:	f8190913          	addi	s2,s2,-127
 9a8:	00000a93          	li	s5,0
 9ac:	017a5513          	srli	a0,s4,0x17
 9b0:	009a1413          	slli	s0,s4,0x9
 9b4:	0ff57513          	andi	a0,a0,255
 9b8:	00945413          	srli	s0,s0,0x9
 9bc:	01fa5a13          	srli	s4,s4,0x1f
 9c0:	08050c63          	beqz	a0,a58 <__mulsf3+0x104>
 9c4:	0ff00793          	li	a5,255
 9c8:	0af50863          	beq	a0,a5,a78 <__mulsf3+0x124>
 9cc:	00341413          	slli	s0,s0,0x3
 9d0:	040007b7          	lui	a5,0x4000
 9d4:	00f46433          	or	s0,s0,a5
 9d8:	f8150513          	addi	a0,a0,-127
 9dc:	00000793          	li	a5,0
 9e0:	002a9713          	slli	a4,s5,0x2
 9e4:	00f76733          	or	a4,a4,a5
 9e8:	00a90933          	add	s2,s2,a0
 9ec:	fff70713          	addi	a4,a4,-1 # 7f7fffff <_bss_end+0x7f3ff67f>
 9f0:	00e00693          	li	a3,14
 9f4:	0149c833          	xor	a6,s3,s4
 9f8:	00190893          	addi	a7,s2,1
 9fc:	08e6ee63          	bltu	a3,a4,a98 <__mulsf3+0x144>
 a00:	004016b7          	lui	a3,0x401
 a04:	00271713          	slli	a4,a4,0x2
 a08:	84468693          	addi	a3,a3,-1980 # 400844 <_stack_start+0x644>
 a0c:	00d70733          	add	a4,a4,a3
 a10:	00072703          	lw	a4,0(a4)
 a14:	00070067          	jr	a4
 a18:	02048a63          	beqz	s1,a4c <__mulsf3+0xf8>
 a1c:	00048513          	mv	a0,s1
 a20:	33c000ef          	jal	ra,d5c <__clzsi2>
 a24:	ffb50793          	addi	a5,a0,-5
 a28:	f8a00913          	li	s2,-118
 a2c:	00f494b3          	sll	s1,s1,a5
 a30:	40a90933          	sub	s2,s2,a0
 a34:	f75ff06f          	j	9a8 <__mulsf3+0x54>
 a38:	0ff00913          	li	s2,255
 a3c:	00200a93          	li	s5,2
 a40:	f60486e3          	beqz	s1,9ac <__mulsf3+0x58>
 a44:	00300a93          	li	s5,3
 a48:	f65ff06f          	j	9ac <__mulsf3+0x58>
 a4c:	00000913          	li	s2,0
 a50:	00100a93          	li	s5,1
 a54:	f59ff06f          	j	9ac <__mulsf3+0x58>
 a58:	02040a63          	beqz	s0,a8c <__mulsf3+0x138>
 a5c:	00040513          	mv	a0,s0
 a60:	2fc000ef          	jal	ra,d5c <__clzsi2>
 a64:	ffb50793          	addi	a5,a0,-5
 a68:	00f41433          	sll	s0,s0,a5
 a6c:	f8a00793          	li	a5,-118
 a70:	40a78533          	sub	a0,a5,a0
 a74:	f69ff06f          	j	9dc <__mulsf3+0x88>
 a78:	0ff00513          	li	a0,255
 a7c:	00200793          	li	a5,2
 a80:	f60400e3          	beqz	s0,9e0 <__mulsf3+0x8c>
 a84:	00300793          	li	a5,3
 a88:	f59ff06f          	j	9e0 <__mulsf3+0x8c>
 a8c:	00000513          	li	a0,0
 a90:	00100793          	li	a5,1
 a94:	f4dff06f          	j	9e0 <__mulsf3+0x8c>
 a98:	00010f37          	lui	t5,0x10
 a9c:	ffff0e93          	addi	t4,t5,-1 # ffff <_endtext+0xf257>
 aa0:	0104df93          	srli	t6,s1,0x10
 aa4:	01045793          	srli	a5,s0,0x10
 aa8:	01d4f4b3          	and	s1,s1,t4
 aac:	01d47433          	and	s0,s0,t4
 ab0:	00048513          	mv	a0,s1
 ab4:	00040593          	mv	a1,s0
 ab8:	1cc000ef          	jal	ra,c84 <__mulsi3>
 abc:	00050313          	mv	t1,a0
 ac0:	00078593          	mv	a1,a5
 ac4:	00048513          	mv	a0,s1
 ac8:	1bc000ef          	jal	ra,c84 <__mulsi3>
 acc:	00050e13          	mv	t3,a0
 ad0:	00040593          	mv	a1,s0
 ad4:	000f8513          	mv	a0,t6
 ad8:	1ac000ef          	jal	ra,c84 <__mulsi3>
 adc:	00050713          	mv	a4,a0
 ae0:	00078593          	mv	a1,a5
 ae4:	000f8513          	mv	a0,t6
 ae8:	19c000ef          	jal	ra,c84 <__mulsi3>
 aec:	01035793          	srli	a5,t1,0x10
 af0:	00ee0e33          	add	t3,t3,a4
 af4:	01c787b3          	add	a5,a5,t3
 af8:	00e7f463          	bgeu	a5,a4,b00 <__mulsf3+0x1ac>
 afc:	01e50533          	add	a0,a0,t5
 b00:	01d7f733          	and	a4,a5,t4
 b04:	01071713          	slli	a4,a4,0x10
 b08:	01d37333          	and	t1,t1,t4
 b0c:	00670733          	add	a4,a4,t1
 b10:	00671413          	slli	s0,a4,0x6
 b14:	00803433          	snez	s0,s0
 b18:	0107d793          	srli	a5,a5,0x10
 b1c:	01a75713          	srli	a4,a4,0x1a
 b20:	00e46733          	or	a4,s0,a4
 b24:	00a78433          	add	s0,a5,a0
 b28:	00641413          	slli	s0,s0,0x6
 b2c:	00e46433          	or	s0,s0,a4
 b30:	080007b7          	lui	a5,0x8000
 b34:	00f477b3          	and	a5,s0,a5
 b38:	08078e63          	beqz	a5,bd4 <__mulsf3+0x280>
 b3c:	00145793          	srli	a5,s0,0x1
 b40:	00147413          	andi	s0,s0,1
 b44:	0087e433          	or	s0,a5,s0
 b48:	07f88713          	addi	a4,a7,127
 b4c:	08e05863          	blez	a4,bdc <__mulsf3+0x288>
 b50:	00747793          	andi	a5,s0,7
 b54:	00078a63          	beqz	a5,b68 <__mulsf3+0x214>
 b58:	00f47793          	andi	a5,s0,15
 b5c:	00400693          	li	a3,4
 b60:	00d78463          	beq	a5,a3,b68 <__mulsf3+0x214>
 b64:	00440413          	addi	s0,s0,4 # 400004 <_endtext+0x3ff25c>
 b68:	080007b7          	lui	a5,0x8000
 b6c:	00f477b3          	and	a5,s0,a5
 b70:	00078a63          	beqz	a5,b84 <__mulsf3+0x230>
 b74:	f80007b7          	lui	a5,0xf8000
 b78:	fff78793          	addi	a5,a5,-1 # f7ffffff <_bss_end+0xf7bff67f>
 b7c:	00f47433          	and	s0,s0,a5
 b80:	08088713          	addi	a4,a7,128
 b84:	0fe00793          	li	a5,254
 b88:	00345413          	srli	s0,s0,0x3
 b8c:	0ae7da63          	bge	a5,a4,c40 <__mulsf3+0x2ec>
 b90:	00000413          	li	s0,0
 b94:	0ff00713          	li	a4,255
 b98:	0a80006f          	j	c40 <__mulsf3+0x2ec>
 b9c:	00098813          	mv	a6,s3
 ba0:	00048413          	mv	s0,s1
 ba4:	000a8793          	mv	a5,s5
 ba8:	00200713          	li	a4,2
 bac:	fee782e3          	beq	a5,a4,b90 <__mulsf3+0x23c>
 bb0:	00300713          	li	a4,3
 bb4:	08e78063          	beq	a5,a4,c34 <__mulsf3+0x2e0>
 bb8:	00100713          	li	a4,1
 bbc:	f8e796e3          	bne	a5,a4,b48 <__mulsf3+0x1f4>
 bc0:	00000413          	li	s0,0
 bc4:	00000713          	li	a4,0
 bc8:	0780006f          	j	c40 <__mulsf3+0x2ec>
 bcc:	000a0813          	mv	a6,s4
 bd0:	fd9ff06f          	j	ba8 <__mulsf3+0x254>
 bd4:	00090893          	mv	a7,s2
 bd8:	f71ff06f          	j	b48 <__mulsf3+0x1f4>
 bdc:	00100793          	li	a5,1
 be0:	40e787b3          	sub	a5,a5,a4
 be4:	01b00713          	li	a4,27
 be8:	fcf74ce3          	blt	a4,a5,bc0 <__mulsf3+0x26c>
 bec:	09e88893          	addi	a7,a7,158
 bf0:	00f457b3          	srl	a5,s0,a5
 bf4:	01141433          	sll	s0,s0,a7
 bf8:	00803433          	snez	s0,s0
 bfc:	0087e433          	or	s0,a5,s0
 c00:	00747793          	andi	a5,s0,7
 c04:	00078a63          	beqz	a5,c18 <__mulsf3+0x2c4>
 c08:	00f47793          	andi	a5,s0,15
 c0c:	00400713          	li	a4,4
 c10:	00e78463          	beq	a5,a4,c18 <__mulsf3+0x2c4>
 c14:	00440413          	addi	s0,s0,4
 c18:	040007b7          	lui	a5,0x4000
 c1c:	00f477b3          	and	a5,s0,a5
 c20:	00345413          	srli	s0,s0,0x3
 c24:	fa0780e3          	beqz	a5,bc4 <__mulsf3+0x270>
 c28:	00000413          	li	s0,0
 c2c:	00100713          	li	a4,1
 c30:	0100006f          	j	c40 <__mulsf3+0x2ec>
 c34:	00400437          	lui	s0,0x400
 c38:	0ff00713          	li	a4,255
 c3c:	00000813          	li	a6,0
 c40:	01771793          	slli	a5,a4,0x17
 c44:	00941413          	slli	s0,s0,0x9
 c48:	7f800737          	lui	a4,0x7f800
 c4c:	00e7f7b3          	and	a5,a5,a4
 c50:	00945413          	srli	s0,s0,0x9
 c54:	0087e433          	or	s0,a5,s0
 c58:	01f81513          	slli	a0,a6,0x1f
 c5c:	01c12083          	lw	ra,28(sp)
 c60:	00a46533          	or	a0,s0,a0
 c64:	01812403          	lw	s0,24(sp)
 c68:	01412483          	lw	s1,20(sp)
 c6c:	01012903          	lw	s2,16(sp)
 c70:	00c12983          	lw	s3,12(sp)
 c74:	00812a03          	lw	s4,8(sp)
 c78:	00412a83          	lw	s5,4(sp)
 c7c:	02010113          	addi	sp,sp,32
 c80:	00008067          	ret

00000c84 <__mulsi3>:
 c84:	00050613          	mv	a2,a0
 c88:	00000513          	li	a0,0
 c8c:	0015f693          	andi	a3,a1,1
 c90:	00068463          	beqz	a3,c98 <__mulsi3+0x14>
 c94:	00c50533          	add	a0,a0,a2
 c98:	0015d593          	srli	a1,a1,0x1
 c9c:	00161613          	slli	a2,a2,0x1
 ca0:	fe0596e3          	bnez	a1,c8c <__mulsi3+0x8>
 ca4:	00008067          	ret

00000ca8 <__divsi3>:
 ca8:	06054063          	bltz	a0,d08 <__umodsi3+0x10>
 cac:	0605c663          	bltz	a1,d18 <__umodsi3+0x20>

00000cb0 <__udivsi3>:
 cb0:	00058613          	mv	a2,a1
 cb4:	00050593          	mv	a1,a0
 cb8:	fff00513          	li	a0,-1
 cbc:	02060c63          	beqz	a2,cf4 <__udivsi3+0x44>
 cc0:	00100693          	li	a3,1
 cc4:	00b67a63          	bgeu	a2,a1,cd8 <__udivsi3+0x28>
 cc8:	00c05863          	blez	a2,cd8 <__udivsi3+0x28>
 ccc:	00161613          	slli	a2,a2,0x1
 cd0:	00169693          	slli	a3,a3,0x1
 cd4:	feb66ae3          	bltu	a2,a1,cc8 <__udivsi3+0x18>
 cd8:	00000513          	li	a0,0
 cdc:	00c5e663          	bltu	a1,a2,ce8 <__udivsi3+0x38>
 ce0:	40c585b3          	sub	a1,a1,a2
 ce4:	00d56533          	or	a0,a0,a3
 ce8:	0016d693          	srli	a3,a3,0x1
 cec:	00165613          	srli	a2,a2,0x1
 cf0:	fe0696e3          	bnez	a3,cdc <__udivsi3+0x2c>
 cf4:	00008067          	ret

00000cf8 <__umodsi3>:
 cf8:	00008293          	mv	t0,ra
 cfc:	fb5ff0ef          	jal	ra,cb0 <__udivsi3>
 d00:	00058513          	mv	a0,a1
 d04:	00028067          	jr	t0
 d08:	40a00533          	neg	a0,a0
 d0c:	00b04863          	bgtz	a1,d1c <__umodsi3+0x24>
 d10:	40b005b3          	neg	a1,a1
 d14:	f9dff06f          	j	cb0 <__udivsi3>
 d18:	40b005b3          	neg	a1,a1
 d1c:	00008293          	mv	t0,ra
 d20:	f91ff0ef          	jal	ra,cb0 <__udivsi3>
 d24:	40a00533          	neg	a0,a0
 d28:	00028067          	jr	t0

00000d2c <__modsi3>:
 d2c:	00008293          	mv	t0,ra
 d30:	0005ca63          	bltz	a1,d44 <__modsi3+0x18>
 d34:	00054c63          	bltz	a0,d4c <__modsi3+0x20>
 d38:	f79ff0ef          	jal	ra,cb0 <__udivsi3>
 d3c:	00058513          	mv	a0,a1
 d40:	00028067          	jr	t0
 d44:	40b005b3          	neg	a1,a1
 d48:	fe0558e3          	bgez	a0,d38 <__modsi3+0xc>
 d4c:	40a00533          	neg	a0,a0
 d50:	f61ff0ef          	jal	ra,cb0 <__udivsi3>
 d54:	40b00533          	neg	a0,a1
 d58:	00028067          	jr	t0

00000d5c <__clzsi2>:
 d5c:	000107b7          	lui	a5,0x10
 d60:	02f57a63          	bgeu	a0,a5,d94 <__clzsi2+0x38>
 d64:	0ff00793          	li	a5,255
 d68:	00a7b7b3          	sltu	a5,a5,a0
 d6c:	00379793          	slli	a5,a5,0x3
 d70:	00401737          	lui	a4,0x401
 d74:	02000693          	li	a3,32
 d78:	40f686b3          	sub	a3,a3,a5
 d7c:	00f55533          	srl	a0,a0,a5
 d80:	88070793          	addi	a5,a4,-1920 # 400880 <__clz_tab>
 d84:	00a78533          	add	a0,a5,a0
 d88:	00054503          	lbu	a0,0(a0)
 d8c:	40a68533          	sub	a0,a3,a0
 d90:	00008067          	ret
 d94:	01000737          	lui	a4,0x1000
 d98:	01000793          	li	a5,16
 d9c:	fce56ae3          	bltu	a0,a4,d70 <__clzsi2+0x14>
 da0:	01800793          	li	a5,24
 da4:	fcdff06f          	j	d70 <__clzsi2+0x14>
Contents of the .debug_info section (loaded from FP_test_rv32i.elf):

  Compilation Unit @ offset 0x0:
   Length:        0x338 (32-bit)
   Version:       4
   Abbrev Offset: 0x0
   Pointer Size:  4
 <0><b>: Abbrev Number: 1 (DW_TAG_compile_unit)
    <c>   DW_AT_producer    : (indirect string, offset: 0x1a3): GNU C17 10.2.0 -mcmodel=medlow -mcmodel=medlow -mtune=rocket -march=rv32i -mabi=ilp32 -march=rv32i -g -Os -O2 -Os -fbuilding-libgcc -fno-stack-protector -fvisibility=hidden
    <10>   DW_AT_language    : 12	(ANSI C99)
    <11>   DW_AT_name        : (indirect string, offset: 0x42): ../../.././riscv-gcc/libgcc/soft-fp/addsf3.c
    <15>   DW_AT_comp_dir    : (indirect string, offset: 0x250): /home/adlv/projects/riscv/riscv-gnu-toolchain/build-gcc-newlib-stage2/riscv32-unknown-elf/libgcc
    <19>   DW_AT_low_pc      : 0x164
    <1d>   DW_AT_high_pc     : 0x45c
    <21>   DW_AT_stmt_list   : 0x0
 <1><25>: Abbrev Number: 2 (DW_TAG_base_type)
    <26>   DW_AT_byte_size   : 4
    <27>   DW_AT_encoding    : 4	(float)
    <28>   DW_AT_name        : (indirect string, offset: 0x5b3): float
 <1><2c>: Abbrev Number: 3 (DW_TAG_base_type)
    <2d>   DW_AT_byte_size   : 4
    <2e>   DW_AT_encoding    : 5	(signed)
    <2f>   DW_AT_name        : int
 <1><33>: Abbrev Number: 2 (DW_TAG_base_type)
    <34>   DW_AT_byte_size   : 1
    <35>   DW_AT_encoding    : 6	(signed char)
    <36>   DW_AT_name        : (indirect string, offset: 0x8f): signed char
 <1><3a>: Abbrev Number: 2 (DW_TAG_base_type)
    <3b>   DW_AT_byte_size   : 8
    <3c>   DW_AT_encoding    : 5	(signed)
    <3d>   DW_AT_name        : (indirect string, offset: 0x145): long long int
 <1><41>: Abbrev Number: 2 (DW_TAG_base_type)
    <42>   DW_AT_byte_size   : 1
    <43>   DW_AT_encoding    : 8	(unsigned char)
    <44>   DW_AT_name        : (indirect string, offset: 0x8d): unsigned char
 <1><48>: Abbrev Number: 2 (DW_TAG_base_type)
    <49>   DW_AT_byte_size   : 4
    <4a>   DW_AT_encoding    : 7	(unsigned)
    <4b>   DW_AT_name        : (indirect string, offset: 0x109): unsigned int
 <1><4f>: Abbrev Number: 2 (DW_TAG_base_type)
    <50>   DW_AT_byte_size   : 8
    <51>   DW_AT_encoding    : 7	(unsigned)
    <52>   DW_AT_name        : (indirect string, offset: 0xff): long long unsigned int
 <1><56>: Abbrev Number: 2 (DW_TAG_base_type)
    <57>   DW_AT_byte_size   : 2
    <58>   DW_AT_encoding    : 7	(unsigned)
    <59>   DW_AT_name        : (indirect string, offset: 0xbe): short unsigned int
 <1><5d>: Abbrev Number: 4 (DW_TAG_typedef)
    <5e>   DW_AT_name        : (indirect string, offset: 0x193): SFtype
    <62>   DW_AT_decl_file   : 2
    <63>   DW_AT_decl_line   : 69
    <64>   DW_AT_decl_column : 15
    <65>   DW_AT_type        : <0x25>
 <1><69>: Abbrev Number: 5 (DW_TAG_structure_type)
    <6a>   DW_AT_byte_size   : 4
    <6b>   DW_AT_decl_file   : 2
    <6c>   DW_AT_decl_line   : 74
    <6d>   DW_AT_decl_column : 3
    <6e>   DW_AT_sibling     : <0xa3>
 <2><72>: Abbrev Number: 6 (DW_TAG_member)
    <73>   DW_AT_name        : (indirect string, offset: 0xfa): frac
    <77>   DW_AT_decl_file   : 2
    <78>   DW_AT_decl_line   : 81
    <79>   DW_AT_decl_column : 14
    <7a>   DW_AT_type        : <0x48>
    <7e>   DW_AT_byte_size   : 4
    <7f>   DW_AT_bit_size    : 23
    <80>   DW_AT_bit_offset  : 9
    <81>   DW_AT_data_member_location: 0
 <2><82>: Abbrev Number: 7 (DW_TAG_member)
    <83>   DW_AT_name        : exp
    <87>   DW_AT_decl_file   : 2
    <88>   DW_AT_decl_line   : 82
    <89>   DW_AT_decl_column : 14
    <8a>   DW_AT_type        : <0x48>
    <8e>   DW_AT_byte_size   : 4
    <8f>   DW_AT_bit_size    : 8
    <90>   DW_AT_bit_offset  : 1
    <91>   DW_AT_data_member_location: 0
 <2><92>: Abbrev Number: 6 (DW_TAG_member)
    <93>   DW_AT_name        : (indirect string, offset: 0xb9): sign
    <97>   DW_AT_decl_file   : 2
    <98>   DW_AT_decl_line   : 83
    <99>   DW_AT_decl_column : 14
    <9a>   DW_AT_type        : <0x48>
    <9e>   DW_AT_byte_size   : 4
    <9f>   DW_AT_bit_size    : 1
    <a0>   DW_AT_bit_offset  : 0
    <a1>   DW_AT_data_member_location: 0
 <2><a2>: Abbrev Number: 0
 <1><a3>: Abbrev Number: 8 (DW_TAG_union_type)
    <a4>   DW_AT_name        : (indirect string, offset: 0x187): _FP_UNION_S
    <a8>   DW_AT_byte_size   : 4
    <a9>   DW_AT_decl_file   : 2
    <aa>   DW_AT_decl_line   : 71
    <ab>   DW_AT_decl_column : 7
    <ac>   DW_AT_sibling     : <0xc9>
 <2><b0>: Abbrev Number: 9 (DW_TAG_member)
    <b1>   DW_AT_name        : flt
    <b5>   DW_AT_decl_file   : 2
    <b6>   DW_AT_decl_line   : 73
    <b7>   DW_AT_decl_column : 10
    <b8>   DW_AT_type        : <0x5d>
 <2><bc>: Abbrev Number: 10 (DW_TAG_member)
    <bd>   DW_AT_name        : (indirect string, offset: 0x16a): bits
    <c1>   DW_AT_decl_file   : 2
    <c2>   DW_AT_decl_line   : 85
    <c3>   DW_AT_decl_column : 5
    <c4>   DW_AT_type        : <0x69>
 <2><c8>: Abbrev Number: 0
 <1><c9>: Abbrev Number: 11 (DW_TAG_subprogram)
    <ca>   DW_AT_external    : 1
    <ca>   DW_AT_name        : (indirect string, offset: 0xb0): __addsf3
    <ce>   DW_AT_decl_file   : 1
    <cf>   DW_AT_decl_line   : 35
    <d0>   DW_AT_decl_column : 1
    <d1>   DW_AT_prototyped  : 1
    <d1>   DW_AT_type        : <0x5d>
    <d5>   DW_AT_low_pc      : 0x164
    <d9>   DW_AT_high_pc     : 0x45c
    <dd>   DW_AT_frame_base  : 1 byte block: 9c 	(DW_OP_call_frame_cfa)
    <df>   DW_AT_GNU_all_call_sites: 1
    <df>   DW_AT_sibling     : <0x324>
 <2><e3>: Abbrev Number: 12 (DW_TAG_formal_parameter)
    <e4>   DW_AT_name        : a
    <e6>   DW_AT_decl_file   : 1
    <e7>   DW_AT_decl_line   : 35
    <e8>   DW_AT_decl_column : 18
    <e9>   DW_AT_type        : <0x5d>
    <ed>   DW_AT_location    : 0x0 (location list)
 <2><f1>: Abbrev Number: 12 (DW_TAG_formal_parameter)
    <f2>   DW_AT_name        : b
    <f4>   DW_AT_decl_file   : 1
    <f5>   DW_AT_decl_line   : 35
    <f6>   DW_AT_decl_column : 28
    <f7>   DW_AT_type        : <0x5d>
    <fb>   DW_AT_location    : 0x23 (location list)
 <2><ff>: Abbrev Number: 13 (DW_TAG_variable)
    <100>   DW_AT_name        : (indirect string, offset: 0x28): _fex
    <104>   DW_AT_decl_file   : 1
    <105>   DW_AT_decl_line   : 37
    <106>   DW_AT_decl_column : 3
    <107>   DW_AT_type        : <0x2c>
    <10b>   DW_AT_location    : 0x46 (location list)
 <2><10f>: Abbrev Number: 14 (DW_TAG_variable)
    <110>   DW_AT_name        : (indirect string, offset: 0x2b1): _frm
    <114>   DW_AT_decl_file   : 1
    <115>   DW_AT_decl_line   : 37
    <116>   DW_AT_decl_column : 3
    <117>   DW_AT_type        : <0x2c>
    <11b>   DW_AT_const_value : 0
 <2><11c>: Abbrev Number: 15 (DW_TAG_variable)
    <11d>   DW_AT_name        : A_c
    <121>   DW_AT_decl_file   : 1
    <122>   DW_AT_decl_line   : 38
    <123>   DW_AT_decl_column : 3
    <124>   DW_AT_type        : <0x324>
 <2><128>: Abbrev Number: 16 (DW_TAG_variable)
    <129>   DW_AT_name        : A_s
    <12d>   DW_AT_decl_file   : 1
    <12e>   DW_AT_decl_line   : 38
    <12f>   DW_AT_decl_column : 3
    <130>   DW_AT_type        : <0x324>
    <134>   DW_AT_location    : 0x96 (location list)
 <2><138>: Abbrev Number: 16 (DW_TAG_variable)
    <139>   DW_AT_name        : A_e
    <13d>   DW_AT_decl_file   : 1
    <13e>   DW_AT_decl_line   : 38
    <13f>   DW_AT_decl_column : 3
    <140>   DW_AT_type        : <0x324>
    <144>   DW_AT_location    : 0x12d (location list)
 <2><148>: Abbrev Number: 16 (DW_TAG_variable)
    <149>   DW_AT_name        : A_f
    <14d>   DW_AT_decl_file   : 1
    <14e>   DW_AT_decl_line   : 38
    <14f>   DW_AT_decl_column : 3
    <150>   DW_AT_type        : <0x32b>
    <154>   DW_AT_location    : 0x1e5 (location list)
 <2><158>: Abbrev Number: 15 (DW_TAG_variable)
    <159>   DW_AT_name        : B_c
    <15d>   DW_AT_decl_file   : 1
    <15e>   DW_AT_decl_line   : 39
    <15f>   DW_AT_decl_column : 3
    <160>   DW_AT_type        : <0x324>
 <2><164>: Abbrev Number: 16 (DW_TAG_variable)
    <165>   DW_AT_name        : B_s
    <169>   DW_AT_decl_file   : 1
    <16a>   DW_AT_decl_line   : 39
    <16b>   DW_AT_decl_column : 3
    <16c>   DW_AT_type        : <0x324>
    <170>   DW_AT_location    : 0x2f5 (location list)
 <2><174>: Abbrev Number: 16 (DW_TAG_variable)
    <175>   DW_AT_name        : B_e
    <179>   DW_AT_decl_file   : 1
    <17a>   DW_AT_decl_line   : 39
    <17b>   DW_AT_decl_column : 3
    <17c>   DW_AT_type        : <0x324>
    <180>   DW_AT_location    : 0x36b (location list)
 <2><184>: Abbrev Number: 16 (DW_TAG_variable)
    <185>   DW_AT_name        : B_f
    <189>   DW_AT_decl_file   : 1
    <18a>   DW_AT_decl_line   : 39
    <18b>   DW_AT_decl_column : 3
    <18c>   DW_AT_type        : <0x32b>
    <190>   DW_AT_location    : 0x3aa (location list)
 <2><194>: Abbrev Number: 15 (DW_TAG_variable)
    <195>   DW_AT_name        : R_c
    <199>   DW_AT_decl_file   : 1
    <19a>   DW_AT_decl_line   : 40
    <19b>   DW_AT_decl_column : 3
    <19c>   DW_AT_type        : <0x324>
 <2><1a0>: Abbrev Number: 16 (DW_TAG_variable)
    <1a1>   DW_AT_name        : R_s
    <1a5>   DW_AT_decl_file   : 1
    <1a6>   DW_AT_decl_line   : 40
    <1a7>   DW_AT_decl_column : 3
    <1a8>   DW_AT_type        : <0x324>
    <1ac>   DW_AT_location    : 0x415 (location list)
 <2><1b0>: Abbrev Number: 16 (DW_TAG_variable)
    <1b1>   DW_AT_name        : R_e
    <1b5>   DW_AT_decl_file   : 1
    <1b6>   DW_AT_decl_line   : 40
    <1b7>   DW_AT_decl_column : 3
    <1b8>   DW_AT_type        : <0x324>
    <1bc>   DW_AT_location    : 0x4a1 (location list)
 <2><1c0>: Abbrev Number: 16 (DW_TAG_variable)
    <1c1>   DW_AT_name        : R_f
    <1c5>   DW_AT_decl_file   : 1
    <1c6>   DW_AT_decl_line   : 40
    <1c7>   DW_AT_decl_column : 3
    <1c8>   DW_AT_type        : <0x32b>
    <1cc>   DW_AT_location    : 0x5de (location list)
 <2><1d0>: Abbrev Number: 16 (DW_TAG_variable)
    <1d1>   DW_AT_name        : r
    <1d3>   DW_AT_decl_file   : 1
    <1d4>   DW_AT_decl_line   : 41
    <1d5>   DW_AT_decl_column : 10
    <1d6>   DW_AT_type        : <0x5d>
    <1da>   DW_AT_location    : 0x76b (location list)
 <2><1de>: Abbrev Number: 17 (DW_TAG_lexical_block)
    <1df>   DW_AT_ranges      : 0x0
    <1e3>   DW_AT_sibling     : <0x1f4>
 <3><1e7>: Abbrev Number: 18 (DW_TAG_variable)
    <1e8>   DW_AT_name        : (indirect string, offset: 0x9b): _FP_UNPACK_RAW_1_flo
    <1ec>   DW_AT_decl_file   : 1
    <1ed>   DW_AT_decl_line   : 44
    <1ee>   DW_AT_decl_column : 3
    <1ef>   DW_AT_type        : <0xa3>
 <3><1f3>: Abbrev Number: 0
 <2><1f4>: Abbrev Number: 17 (DW_TAG_lexical_block)
    <1f5>   DW_AT_ranges      : 0x28
    <1f9>   DW_AT_sibling     : <0x20a>
 <3><1fd>: Abbrev Number: 18 (DW_TAG_variable)
    <1fe>   DW_AT_name        : (indirect string, offset: 0x9b): _FP_UNPACK_RAW_1_flo
    <202>   DW_AT_decl_file   : 1
    <203>   DW_AT_decl_line   : 45
    <204>   DW_AT_decl_column : 3
    <205>   DW_AT_type        : <0xa3>
 <3><209>: Abbrev Number: 0
 <2><20a>: Abbrev Number: 17 (DW_TAG_lexical_block)
    <20b>   DW_AT_ranges      : 0x70
    <20f>   DW_AT_sibling     : <0x254>
 <3><213>: Abbrev Number: 19 (DW_TAG_label)
    <214>   DW_AT_name        : (indirect string, offset: 0x178): add1
    <218>   DW_AT_decl_file   : 1
    <219>   DW_AT_decl_line   : 46
    <21a>   DW_AT_decl_column : 3
    <21b>   DW_AT_low_pc      : 0x1f4
 <3><21f>: Abbrev Number: 19 (DW_TAG_label)
    <220>   DW_AT_name        : (indirect string, offset: 0x17d): add2
    <224>   DW_AT_decl_file   : 1
    <225>   DW_AT_decl_line   : 46
    <226>   DW_AT_decl_column : 3
    <227>   DW_AT_low_pc      : 0x28c
 <3><22b>: Abbrev Number: 19 (DW_TAG_label)
    <22c>   DW_AT_name        : (indirect string, offset: 0x182): add3
    <230>   DW_AT_decl_file   : 1
    <231>   DW_AT_decl_line   : 46
    <232>   DW_AT_decl_column : 3
    <233>   DW_AT_low_pc      : 0x21c
 <3><237>: Abbrev Number: 19 (DW_TAG_label)
    <238>   DW_AT_name        : (indirect string, offset: 0x84): add_done
    <23c>   DW_AT_decl_file   : 1
    <23d>   DW_AT_decl_line   : 46
    <23e>   DW_AT_decl_column : 3
    <23f>   DW_AT_low_pc      : 0x2f4
 <3><243>: Abbrev Number: 13 (DW_TAG_variable)
    <244>   DW_AT_name        : (indirect string, offset: 0x153): _FP_ADD_INTERNAL_ediff
    <248>   DW_AT_decl_file   : 1
    <249>   DW_AT_decl_line   : 46
    <24a>   DW_AT_decl_column : 3
    <24b>   DW_AT_type        : <0x2c>
    <24f>   DW_AT_location    : 0x790 (location list)
 <3><253>: Abbrev Number: 0
 <2><254>: Abbrev Number: 17 (DW_TAG_lexical_block)
    <255>   DW_AT_ranges      : 0xc0
    <259>   DW_AT_sibling     : <0x2c9>
 <3><25d>: Abbrev Number: 19 (DW_TAG_label)
    <25e>   DW_AT_name        : (indirect string, offset: 0xd1): sub1
    <262>   DW_AT_decl_file   : 1
    <263>   DW_AT_decl_line   : 46
    <264>   DW_AT_decl_column : 3
    <265>   DW_AT_low_pc      : 0x368
 <3><269>: Abbrev Number: 19 (DW_TAG_label)
    <26a>   DW_AT_name        : (indirect string, offset: 0xd6): sub2
    <26e>   DW_AT_decl_file   : 1
    <26f>   DW_AT_decl_line   : 46
    <270>   DW_AT_decl_column : 3
    <271>   DW_AT_low_pc      : 0x40c
 <3><275>: Abbrev Number: 19 (DW_TAG_label)
    <276>   DW_AT_name        : (indirect string, offset: 0xdb): sub3
    <27a>   DW_AT_decl_file   : 1
    <27b>   DW_AT_decl_line   : 46
    <27c>   DW_AT_decl_column : 3
    <27d>   DW_AT_low_pc      : 0x390
 <3><281>: Abbrev Number: 19 (DW_TAG_label)
    <282>   DW_AT_name        : (indirect string, offset: 0xf5): norm
    <286>   DW_AT_decl_file   : 1
    <287>   DW_AT_decl_line   : 46
    <288>   DW_AT_decl_column : 3
    <289>   DW_AT_low_pc      : 0x4bc
 <3><28d>: Abbrev Number: 19 (DW_TAG_label)
    <28e>   DW_AT_name        : (indirect string, offset: 0x16f): sub_done
    <292>   DW_AT_decl_file   : 1
    <293>   DW_AT_decl_line   : 46
    <294>   DW_AT_decl_column : 3
    <295>   DW_AT_low_pc      : 0x2f4
 <3><299>: Abbrev Number: 13 (DW_TAG_variable)
    <29a>   DW_AT_name        : (indirect string, offset: 0x153): _FP_ADD_INTERNAL_ediff
    <29e>   DW_AT_decl_file   : 1
    <29f>   DW_AT_decl_line   : 46
    <2a0>   DW_AT_decl_column : 3
    <2a1>   DW_AT_type        : <0x2c>
    <2a5>   DW_AT_location    : 0x846 (location list)
 <3><2a9>: Abbrev Number: 20 (DW_TAG_lexical_block)
    <2aa>   DW_AT_ranges      : 0x108
 <4><2ae>: Abbrev Number: 13 (DW_TAG_variable)
    <2af>   DW_AT_name        : (indirect string, offset: 0x12f): _FP_ADD_INTERNAL_diff
    <2b3>   DW_AT_decl_file   : 1
    <2b4>   DW_AT_decl_line   : 46
    <2b5>   DW_AT_decl_column : 3
    <2b6>   DW_AT_type        : <0x2c>
    <2ba>   DW_AT_location    : 0x8e0 (location list)
 <4><2be>: Abbrev Number: 21 (DW_TAG_GNU_call_site)
    <2bf>   DW_AT_low_pc      : 0x4c4
    <2c3>   DW_AT_abstract_origin: <0x332>
 <4><2c7>: Abbrev Number: 0
 <3><2c8>: Abbrev Number: 0
 <2><2c9>: Abbrev Number: 17 (DW_TAG_lexical_block)
    <2ca>   DW_AT_ranges      : 0x128
    <2ce>   DW_AT_sibling     : <0x311>
 <3><2d2>: Abbrev Number: 18 (DW_TAG_variable)
    <2d3>   DW_AT_name        : (indirect string, offset: 0x116): _FP_PACK_SEMIRAW_is_tiny
    <2d7>   DW_AT_decl_file   : 1
    <2d8>   DW_AT_decl_line   : 47
    <2d9>   DW_AT_decl_column : 3
    <2da>   DW_AT_type        : <0x2c>
 <3><2de>: Abbrev Number: 22 (DW_TAG_lexical_block)
 <4><2df>: Abbrev Number: 18 (DW_TAG_variable)
    <2e0>   DW_AT_name        : (indirect string, offset: 0x2d): _FP_PACK_SEMIRAW_T_c
    <2e4>   DW_AT_decl_file   : 1
    <2e5>   DW_AT_decl_line   : 47
    <2e6>   DW_AT_decl_column : 3
    <2e7>   DW_AT_type        : <0x324>
 <4><2eb>: Abbrev Number: 18 (DW_TAG_variable)
    <2ec>   DW_AT_name        : (indirect string, offset: 0x13): _FP_PACK_SEMIRAW_T_s
    <2f0>   DW_AT_decl_file   : 1
    <2f1>   DW_AT_decl_line   : 47
    <2f2>   DW_AT_decl_column : 3
    <2f3>   DW_AT_type        : <0x324>
 <4><2f7>: Abbrev Number: 18 (DW_TAG_variable)
    <2f8>   DW_AT_name        : (indirect string, offset: 0xe0): _FP_PACK_SEMIRAW_T_e
    <2fc>   DW_AT_decl_file   : 1
    <2fd>   DW_AT_decl_line   : 47
    <2fe>   DW_AT_decl_column : 3
    <2ff>   DW_AT_type        : <0x324>
 <4><303>: Abbrev Number: 18 (DW_TAG_variable)
    <304>   DW_AT_name        : (indirect string, offset: 0x6f): _FP_PACK_SEMIRAW_T_f
    <308>   DW_AT_decl_file   : 1
    <309>   DW_AT_decl_line   : 47
    <30a>   DW_AT_decl_column : 3
    <30b>   DW_AT_type        : <0x32b>
 <4><30f>: Abbrev Number: 0
 <3><310>: Abbrev Number: 0
 <2><311>: Abbrev Number: 20 (DW_TAG_lexical_block)
    <312>   DW_AT_ranges      : 0x148
 <3><316>: Abbrev Number: 18 (DW_TAG_variable)
    <317>   DW_AT_name        : (indirect string, offset: 0x0): _FP_PACK_RAW_1_flo
    <31b>   DW_AT_decl_file   : 1
    <31c>   DW_AT_decl_line   : 47
    <31d>   DW_AT_decl_column : 3
    <31e>   DW_AT_type        : <0xa3>
 <3><322>: Abbrev Number: 0
 <2><323>: Abbrev Number: 0
 <1><324>: Abbrev Number: 2 (DW_TAG_base_type)
    <325>   DW_AT_byte_size   : 4
    <326>   DW_AT_encoding    : 5	(signed)
    <327>   DW_AT_name        : (indirect string, offset: 0x14a): long int
 <1><32b>: Abbrev Number: 2 (DW_TAG_base_type)
    <32c>   DW_AT_byte_size   : 4
    <32d>   DW_AT_encoding    : 7	(unsigned)
    <32e>   DW_AT_name        : (indirect string, offset: 0x104): long unsigned int
 <1><332>: Abbrev Number: 23 (DW_TAG_subprogram)
    <333>   DW_AT_external    : 1
    <333>   DW_AT_declaration : 1
    <333>   DW_AT_linkage_name: (indirect string, offset: 0x19a): __clzsi2
    <337>   DW_AT_name        : (indirect string, offset: 0x19a): __clzsi2
 <1><33b>: Abbrev Number: 0
  Compilation Unit @ offset 0x33c:
   Length:        0x3f0 (32-bit)
   Version:       4
   Abbrev Offset: 0x161
   Pointer Size:  4
 <0><347>: Abbrev Number: 1 (DW_TAG_compile_unit)
    <348>   DW_AT_producer    : (indirect string, offset: 0x1a3): GNU C17 10.2.0 -mcmodel=medlow -mcmodel=medlow -mtune=rocket -march=rv32i -mabi=ilp32 -march=rv32i -g -Os -O2 -Os -fbuilding-libgcc -fno-stack-protector -fvisibility=hidden
    <34c>   DW_AT_language    : 12	(ANSI C99)
    <34d>   DW_AT_name        : (indirect string, offset: 0x3a3): ../../.././riscv-gcc/libgcc/soft-fp/divsf3.c
    <351>   DW_AT_comp_dir    : (indirect string, offset: 0x250): /home/adlv/projects/riscv/riscv-gnu-toolchain/build-gcc-newlib-stage2/riscv32-unknown-elf/libgcc
    <355>   DW_AT_low_pc      : 0x5c0
    <359>   DW_AT_high_pc     : 0x394
    <35d>   DW_AT_stmt_list   : 0xa2e
 <1><361>: Abbrev Number: 2 (DW_TAG_base_type)
    <362>   DW_AT_byte_size   : 4
    <363>   DW_AT_encoding    : 4	(float)
    <364>   DW_AT_name        : (indirect string, offset: 0x5b3): float
 <1><368>: Abbrev Number: 3 (DW_TAG_base_type)
    <369>   DW_AT_byte_size   : 4
    <36a>   DW_AT_encoding    : 5	(signed)
    <36b>   DW_AT_name        : int
 <1><36f>: Abbrev Number: 2 (DW_TAG_base_type)
    <370>   DW_AT_byte_size   : 1
    <371>   DW_AT_encoding    : 6	(signed char)
    <372>   DW_AT_name        : (indirect string, offset: 0x8f): signed char
 <1><376>: Abbrev Number: 2 (DW_TAG_base_type)
    <377>   DW_AT_byte_size   : 8
    <378>   DW_AT_encoding    : 5	(signed)
    <379>   DW_AT_name        : (indirect string, offset: 0x145): long long int
 <1><37d>: Abbrev Number: 2 (DW_TAG_base_type)
    <37e>   DW_AT_byte_size   : 1
    <37f>   DW_AT_encoding    : 8	(unsigned char)
    <380>   DW_AT_name        : (indirect string, offset: 0x8d): unsigned char
 <1><384>: Abbrev Number: 2 (DW_TAG_base_type)
    <385>   DW_AT_byte_size   : 4
    <386>   DW_AT_encoding    : 7	(unsigned)
    <387>   DW_AT_name        : (indirect string, offset: 0x109): unsigned int
 <1><38b>: Abbrev Number: 2 (DW_TAG_base_type)
    <38c>   DW_AT_byte_size   : 8
    <38d>   DW_AT_encoding    : 7	(unsigned)
    <38e>   DW_AT_name        : (indirect string, offset: 0xff): long long unsigned int
 <1><392>: Abbrev Number: 2 (DW_TAG_base_type)
    <393>   DW_AT_byte_size   : 2
    <394>   DW_AT_encoding    : 7	(unsigned)
    <395>   DW_AT_name        : (indirect string, offset: 0xbe): short unsigned int
 <1><399>: Abbrev Number: 4 (DW_TAG_typedef)
    <39a>   DW_AT_name        : (indirect string, offset: 0x193): SFtype
    <39e>   DW_AT_decl_file   : 2
    <39f>   DW_AT_decl_line   : 69
    <3a0>   DW_AT_decl_column : 15
    <3a1>   DW_AT_type        : <0x361>
 <1><3a5>: Abbrev Number: 5 (DW_TAG_structure_type)
    <3a6>   DW_AT_byte_size   : 4
    <3a7>   DW_AT_decl_file   : 2
    <3a8>   DW_AT_decl_line   : 74
    <3a9>   DW_AT_decl_column : 3
    <3aa>   DW_AT_sibling     : <0x3df>
 <2><3ae>: Abbrev Number: 6 (DW_TAG_member)
    <3af>   DW_AT_name        : (indirect string, offset: 0xfa): frac
    <3b3>   DW_AT_decl_file   : 2
    <3b4>   DW_AT_decl_line   : 81
    <3b5>   DW_AT_decl_column : 14
    <3b6>   DW_AT_type        : <0x384>
    <3ba>   DW_AT_byte_size   : 4
    <3bb>   DW_AT_bit_size    : 23
    <3bc>   DW_AT_bit_offset  : 9
    <3bd>   DW_AT_data_member_location: 0
 <2><3be>: Abbrev Number: 7 (DW_TAG_member)
    <3bf>   DW_AT_name        : exp
    <3c3>   DW_AT_decl_file   : 2
    <3c4>   DW_AT_decl_line   : 82
    <3c5>   DW_AT_decl_column : 14
    <3c6>   DW_AT_type        : <0x384>
    <3ca>   DW_AT_byte_size   : 4
    <3cb>   DW_AT_bit_size    : 8
    <3cc>   DW_AT_bit_offset  : 1
    <3cd>   DW_AT_data_member_location: 0
 <2><3ce>: Abbrev Number: 6 (DW_TAG_member)
    <3cf>   DW_AT_name        : (indirect string, offset: 0xb9): sign
    <3d3>   DW_AT_decl_file   : 2
    <3d4>   DW_AT_decl_line   : 83
    <3d5>   DW_AT_decl_column : 14
    <3d6>   DW_AT_type        : <0x384>
    <3da>   DW_AT_byte_size   : 4
    <3db>   DW_AT_bit_size    : 1
    <3dc>   DW_AT_bit_offset  : 0
    <3dd>   DW_AT_data_member_location: 0
 <2><3de>: Abbrev Number: 0
 <1><3df>: Abbrev Number: 8 (DW_TAG_union_type)
    <3e0>   DW_AT_name        : (indirect string, offset: 0x187): _FP_UNION_S
    <3e4>   DW_AT_byte_size   : 4
    <3e5>   DW_AT_decl_file   : 2
    <3e6>   DW_AT_decl_line   : 71
    <3e7>   DW_AT_decl_column : 7
    <3e8>   DW_AT_sibling     : <0x405>
 <2><3ec>: Abbrev Number: 9 (DW_TAG_member)
    <3ed>   DW_AT_name        : flt
    <3f1>   DW_AT_decl_file   : 2
    <3f2>   DW_AT_decl_line   : 73
    <3f3>   DW_AT_decl_column : 10
    <3f4>   DW_AT_type        : <0x399>
 <2><3f8>: Abbrev Number: 10 (DW_TAG_member)
    <3f9>   DW_AT_name        : (indirect string, offset: 0x16a): bits
    <3fd>   DW_AT_decl_file   : 2
    <3fe>   DW_AT_decl_line   : 85
    <3ff>   DW_AT_decl_column : 5
    <400>   DW_AT_type        : <0x3a5>
 <2><404>: Abbrev Number: 0
 <1><405>: Abbrev Number: 11 (DW_TAG_subprogram)
    <406>   DW_AT_external    : 1
    <406>   DW_AT_name        : (indirect string, offset: 0x2f7): __divsf3
    <40a>   DW_AT_decl_file   : 1
    <40b>   DW_AT_decl_line   : 35
    <40c>   DW_AT_decl_column : 1
    <40d>   DW_AT_prototyped  : 1
    <40d>   DW_AT_type        : <0x399>
    <411>   DW_AT_low_pc      : 0x5c0
    <415>   DW_AT_high_pc     : 0x394
    <419>   DW_AT_frame_base  : 1 byte block: 9c 	(DW_OP_call_frame_cfa)
    <41b>   DW_AT_GNU_all_call_sites: 1
    <41b>   DW_AT_sibling     : <0x6fd>
 <2><41f>: Abbrev Number: 12 (DW_TAG_formal_parameter)
    <420>   DW_AT_name        : a
    <422>   DW_AT_decl_file   : 1
    <423>   DW_AT_decl_line   : 35
    <424>   DW_AT_decl_column : 18
    <425>   DW_AT_type        : <0x399>
    <429>   DW_AT_location    : 0x909 (location list)
 <2><42d>: Abbrev Number: 12 (DW_TAG_formal_parameter)
    <42e>   DW_AT_name        : b
    <430>   DW_AT_decl_file   : 1
    <431>   DW_AT_decl_line   : 35
    <432>   DW_AT_decl_column : 28
    <433>   DW_AT_type        : <0x399>
    <437>   DW_AT_location    : 0x962 (location list)
 <2><43b>: Abbrev Number: 13 (DW_TAG_variable)
    <43c>   DW_AT_name        : (indirect string, offset: 0x28): _fex
    <440>   DW_AT_decl_file   : 1
    <441>   DW_AT_decl_line   : 37
    <442>   DW_AT_decl_column : 3
    <443>   DW_AT_type        : <0x368>
    <447>   DW_AT_location    : 0x9c1 (location list)
 <2><44b>: Abbrev Number: 14 (DW_TAG_variable)
    <44c>   DW_AT_name        : (indirect string, offset: 0x2b1): _frm
    <450>   DW_AT_decl_file   : 1
    <451>   DW_AT_decl_line   : 37
    <452>   DW_AT_decl_column : 3
    <453>   DW_AT_type        : <0x368>
    <457>   DW_AT_const_value : 0
 <2><458>: Abbrev Number: 15 (DW_TAG_variable)
    <459>   DW_AT_name        : A_c
    <45d>   DW_AT_decl_file   : 1
    <45e>   DW_AT_decl_line   : 38
    <45f>   DW_AT_decl_column : 3
    <460>   DW_AT_type        : <0x6fd>
    <464>   DW_AT_location    : 0x9e1 (location list)
 <2><468>: Abbrev Number: 15 (DW_TAG_variable)
    <469>   DW_AT_name        : A_s
    <46d>   DW_AT_decl_file   : 1
    <46e>   DW_AT_decl_line   : 38
    <46f>   DW_AT_decl_column : 3
    <470>   DW_AT_type        : <0x6fd>
    <474>   DW_AT_location    : 0xa2c (location list)
 <2><478>: Abbrev Number: 15 (DW_TAG_variable)
    <479>   DW_AT_name        : A_e
    <47d>   DW_AT_decl_file   : 1
    <47e>   DW_AT_decl_line   : 38
    <47f>   DW_AT_decl_column : 3
    <480>   DW_AT_type        : <0x6fd>
    <484>   DW_AT_location    : 0xa74 (location list)
 <2><488>: Abbrev Number: 15 (DW_TAG_variable)
    <489>   DW_AT_name        : A_f
    <48d>   DW_AT_decl_file   : 1
    <48e>   DW_AT_decl_line   : 38
    <48f>   DW_AT_decl_column : 3
    <490>   DW_AT_type        : <0x704>
    <494>   DW_AT_location    : 0xb22 (location list)
 <2><498>: Abbrev Number: 15 (DW_TAG_variable)
    <499>   DW_AT_name        : B_c
    <49d>   DW_AT_decl_file   : 1
    <49e>   DW_AT_decl_line   : 39
    <49f>   DW_AT_decl_column : 3
    <4a0>   DW_AT_type        : <0x6fd>
    <4a4>   DW_AT_location    : 0xb92 (location list)
 <2><4a8>: Abbrev Number: 15 (DW_TAG_variable)
    <4a9>   DW_AT_name        : B_s
    <4ad>   DW_AT_decl_file   : 1
    <4ae>   DW_AT_decl_line   : 39
    <4af>   DW_AT_decl_column : 3
    <4b0>   DW_AT_type        : <0x6fd>
    <4b4>   DW_AT_location    : 0xbd2 (location list)
 <2><4b8>: Abbrev Number: 15 (DW_TAG_variable)
    <4b9>   DW_AT_name        : B_e
    <4bd>   DW_AT_decl_file   : 1
    <4be>   DW_AT_decl_line   : 39
    <4bf>   DW_AT_decl_column : 3
    <4c0>   DW_AT_type        : <0x6fd>
    <4c4>   DW_AT_location    : 0xc2a (location list)
 <2><4c8>: Abbrev Number: 15 (DW_TAG_variable)
    <4c9>   DW_AT_name        : B_f
    <4cd>   DW_AT_decl_file   : 1
    <4ce>   DW_AT_decl_line   : 39
    <4cf>   DW_AT_decl_column : 3
    <4d0>   DW_AT_type        : <0x704>
    <4d4>   DW_AT_location    : 0xc7d (location list)
 <2><4d8>: Abbrev Number: 15 (DW_TAG_variable)
    <4d9>   DW_AT_name        : R_c
    <4dd>   DW_AT_decl_file   : 1
    <4de>   DW_AT_decl_line   : 40
    <4df>   DW_AT_decl_column : 3
    <4e0>   DW_AT_type        : <0x6fd>
    <4e4>   DW_AT_location    : 0xccd (location list)
 <2><4e8>: Abbrev Number: 15 (DW_TAG_variable)
    <4e9>   DW_AT_name        : R_s
    <4ed>   DW_AT_decl_file   : 1
    <4ee>   DW_AT_decl_line   : 40
    <4ef>   DW_AT_decl_column : 3
    <4f0>   DW_AT_type        : <0x6fd>
    <4f4>   DW_AT_location    : 0xd0e (location list)
 <2><4f8>: Abbrev Number: 15 (DW_TAG_variable)
    <4f9>   DW_AT_name        : R_e
    <4fd>   DW_AT_decl_file   : 1
    <4fe>   DW_AT_decl_line   : 40
    <4ff>   DW_AT_decl_column : 3
    <500>   DW_AT_type        : <0x6fd>
    <504>   DW_AT_location    : 0xd93 (location list)
 <2><508>: Abbrev Number: 15 (DW_TAG_variable)
    <509>   DW_AT_name        : R_f
    <50d>   DW_AT_decl_file   : 1
    <50e>   DW_AT_decl_line   : 40
    <50f>   DW_AT_decl_column : 3
    <510>   DW_AT_type        : <0x704>
    <514>   DW_AT_location    : 0xe16 (location list)
 <2><518>: Abbrev Number: 15 (DW_TAG_variable)
    <519>   DW_AT_name        : r
    <51b>   DW_AT_decl_file   : 1
    <51c>   DW_AT_decl_line   : 41
    <51d>   DW_AT_decl_column : 10
    <51e>   DW_AT_type        : <0x399>
    <522>   DW_AT_location    : 0xe7a (location list)
 <2><526>: Abbrev Number: 16 (DW_TAG_lexical_block)
    <527>   DW_AT_ranges      : 0x168
    <52b>   DW_AT_sibling     : <0x53c>
 <3><52f>: Abbrev Number: 17 (DW_TAG_variable)
    <530>   DW_AT_name        : (indirect string, offset: 0x9b): _FP_UNPACK_RAW_1_flo
    <534>   DW_AT_decl_file   : 1
    <535>   DW_AT_decl_line   : 44
    <536>   DW_AT_decl_column : 3
    <537>   DW_AT_type        : <0x3df>
 <3><53b>: Abbrev Number: 0
 <2><53c>: Abbrev Number: 16 (DW_TAG_lexical_block)
    <53d>   DW_AT_ranges      : 0x190
    <541>   DW_AT_sibling     : <0x55f>
 <3><545>: Abbrev Number: 13 (DW_TAG_variable)
    <546>   DW_AT_name        : (indirect string, offset: 0x3d0): _FP_UNPACK_CANONICAL_shift
    <54a>   DW_AT_decl_file   : 1
    <54b>   DW_AT_decl_line   : 44
    <54c>   DW_AT_decl_column : 3
    <54d>   DW_AT_type        : <0x6fd>
    <551>   DW_AT_location    : 0xe9f (location list)
 <3><555>: Abbrev Number: 18 (DW_TAG_GNU_call_site)
    <556>   DW_AT_low_pc      : 0x69c
    <55a>   DW_AT_abstract_origin: <0x70b>
 <3><55e>: Abbrev Number: 0
 <2><55f>: Abbrev Number: 16 (DW_TAG_lexical_block)
    <560>   DW_AT_ranges      : 0x1a8
    <564>   DW_AT_sibling     : <0x575>
 <3><568>: Abbrev Number: 17 (DW_TAG_variable)
    <569>   DW_AT_name        : (indirect string, offset: 0x9b): _FP_UNPACK_RAW_1_flo
    <56d>   DW_AT_decl_file   : 1
    <56e>   DW_AT_decl_line   : 45
    <56f>   DW_AT_decl_column : 3
    <570>   DW_AT_type        : <0x3df>
 <3><574>: Abbrev Number: 0
 <2><575>: Abbrev Number: 16 (DW_TAG_lexical_block)
    <576>   DW_AT_ranges      : 0x1c0
    <57a>   DW_AT_sibling     : <0x598>
 <3><57e>: Abbrev Number: 13 (DW_TAG_variable)
    <57f>   DW_AT_name        : (indirect string, offset: 0x3d0): _FP_UNPACK_CANONICAL_shift
    <583>   DW_AT_decl_file   : 1
    <584>   DW_AT_decl_line   : 45
    <585>   DW_AT_decl_column : 3
    <586>   DW_AT_type        : <0x6fd>
    <58a>   DW_AT_location    : 0xeb4 (location list)
 <3><58e>: Abbrev Number: 18 (DW_TAG_GNU_call_site)
    <58f>   DW_AT_low_pc      : 0x6dc
    <593>   DW_AT_abstract_origin: <0x70b>
 <3><597>: Abbrev Number: 0
 <2><598>: Abbrev Number: 16 (DW_TAG_lexical_block)
    <599>   DW_AT_ranges      : 0x1d8
    <59d>   DW_AT_sibling     : <0x69e>
 <3><5a1>: Abbrev Number: 13 (DW_TAG_variable)
    <5a2>   DW_AT_name        : (indirect string, offset: 0x32b): _FP_DIV_MEAT_1_udiv_norm_nh
    <5a6>   DW_AT_decl_file   : 1
    <5a7>   DW_AT_decl_line   : 46
    <5a8>   DW_AT_decl_column : 3
    <5a9>   DW_AT_type        : <0x704>
    <5ad>   DW_AT_location    : 0xec9 (location list)
 <3><5b1>: Abbrev Number: 13 (DW_TAG_variable)
    <5b2>   DW_AT_name        : (indirect string, offset: 0x426): _FP_DIV_MEAT_1_udiv_norm_nl
    <5b6>   DW_AT_decl_file   : 1
    <5b7>   DW_AT_decl_line   : 46
    <5b8>   DW_AT_decl_column : 3
    <5b9>   DW_AT_type        : <0x704>
    <5bd>   DW_AT_location    : 0xee7 (location list)
 <3><5c1>: Abbrev Number: 13 (DW_TAG_variable)
    <5c2>   DW_AT_name        : (indirect string, offset: 0x3f0): _FP_DIV_MEAT_1_udiv_norm_q
    <5c6>   DW_AT_decl_file   : 1
    <5c7>   DW_AT_decl_line   : 46
    <5c8>   DW_AT_decl_column : 3
    <5c9>   DW_AT_type        : <0x704>
    <5cd>   DW_AT_location    : 0xf11 (location list)
 <3><5d1>: Abbrev Number: 13 (DW_TAG_variable)
    <5d2>   DW_AT_name        : (indirect string, offset: 0x347): _FP_DIV_MEAT_1_udiv_norm_r
    <5d6>   DW_AT_decl_file   : 1
    <5d7>   DW_AT_decl_line   : 46
    <5d8>   DW_AT_decl_column : 3
    <5d9>   DW_AT_type        : <0x704>
    <5dd>   DW_AT_location    : 0xf36 (location list)
 <3><5e1>: Abbrev Number: 13 (DW_TAG_variable)
    <5e2>   DW_AT_name        : (indirect string, offset: 0x40b): _FP_DIV_MEAT_1_udiv_norm_y
    <5e6>   DW_AT_decl_file   : 1
    <5e7>   DW_AT_decl_line   : 46
    <5e8>   DW_AT_decl_column : 3
    <5e9>   DW_AT_type        : <0x704>
    <5ed>   DW_AT_location    : 0xf59 (location list)
 <3><5f1>: Abbrev Number: 19 (DW_TAG_lexical_block)
    <5f2>   DW_AT_ranges      : 0x1f0
 <4><5f6>: Abbrev Number: 13 (DW_TAG_variable)
    <5f7>   DW_AT_name        : (indirect string, offset: 0x2f2): __d1
    <5fb>   DW_AT_decl_file   : 1
    <5fc>   DW_AT_decl_line   : 46
    <5fd>   DW_AT_decl_column : 3
    <5fe>   DW_AT_type        : <0x704>
    <602>   DW_AT_location    : 0xf77 (location list)
 <4><606>: Abbrev Number: 13 (DW_TAG_variable)
    <607>   DW_AT_name        : (indirect string, offset: 0x3eb): __d0
    <60b>   DW_AT_decl_file   : 1
    <60c>   DW_AT_decl_line   : 46
    <60d>   DW_AT_decl_column : 3
    <60e>   DW_AT_type        : <0x704>
    <612>   DW_AT_location    : 0xf8a (location list)
 <4><616>: Abbrev Number: 13 (DW_TAG_variable)
    <617>   DW_AT_name        : (indirect string, offset: 0x387): __q1
    <61b>   DW_AT_decl_file   : 1
    <61c>   DW_AT_decl_line   : 46
    <61d>   DW_AT_decl_column : 3
    <61e>   DW_AT_type        : <0x704>
    <622>   DW_AT_location    : 0xfae (location list)
 <4><626>: Abbrev Number: 13 (DW_TAG_variable)
    <627>   DW_AT_name        : (indirect string, offset: 0x382): __q0
    <62b>   DW_AT_decl_file   : 1
    <62c>   DW_AT_decl_line   : 46
    <62d>   DW_AT_decl_column : 3
    <62e>   DW_AT_type        : <0x704>
    <632>   DW_AT_location    : 0xfe2 (location list)
 <4><636>: Abbrev Number: 13 (DW_TAG_variable)
    <637>   DW_AT_name        : (indirect string, offset: 0x2bb): __r1
    <63b>   DW_AT_decl_file   : 1
    <63c>   DW_AT_decl_line   : 46
    <63d>   DW_AT_decl_column : 3
    <63e>   DW_AT_type        : <0x704>
    <642>   DW_AT_location    : 0x1016 (location list)
 <4><646>: Abbrev Number: 13 (DW_TAG_variable)
    <647>   DW_AT_name        : (indirect string, offset: 0x2b6): __r0
    <64b>   DW_AT_decl_file   : 1
    <64c>   DW_AT_decl_line   : 46
    <64d>   DW_AT_decl_column : 3
    <64e>   DW_AT_type        : <0x704>
    <652>   DW_AT_location    : 0x1061 (location list)
 <4><656>: Abbrev Number: 15 (DW_TAG_variable)
    <657>   DW_AT_name        : __m
    <65b>   DW_AT_decl_file   : 1
    <65c>   DW_AT_decl_line   : 46
    <65d>   DW_AT_decl_column : 3
    <65e>   DW_AT_type        : <0x704>
    <662>   DW_AT_location    : 0x10b9 (location list)
 <4><666>: Abbrev Number: 18 (DW_TAG_GNU_call_site)
    <667>   DW_AT_low_pc      : 0x738
    <66b>   DW_AT_abstract_origin: <0x714>
 <4><66f>: Abbrev Number: 18 (DW_TAG_GNU_call_site)
    <670>   DW_AT_low_pc      : 0x74c
    <674>   DW_AT_abstract_origin: <0x71d>
 <4><678>: Abbrev Number: 18 (DW_TAG_GNU_call_site)
    <679>   DW_AT_low_pc      : 0x75c
    <67d>   DW_AT_abstract_origin: <0x726>
 <4><681>: Abbrev Number: 18 (DW_TAG_GNU_call_site)
    <682>   DW_AT_low_pc      : 0x798
    <686>   DW_AT_abstract_origin: <0x714>
 <4><68a>: Abbrev Number: 18 (DW_TAG_GNU_call_site)
    <68b>   DW_AT_low_pc      : 0x7a8
    <68f>   DW_AT_abstract_origin: <0x71d>
 <4><693>: Abbrev Number: 18 (DW_TAG_GNU_call_site)
    <694>   DW_AT_low_pc      : 0x7b8
    <698>   DW_AT_abstract_origin: <0x726>
 <4><69c>: Abbrev Number: 0
 <3><69d>: Abbrev Number: 0
 <2><69e>: Abbrev Number: 16 (DW_TAG_lexical_block)
    <69f>   DW_AT_ranges      : 0x208
    <6a3>   DW_AT_sibling     : <0x6e6>
 <3><6a7>: Abbrev Number: 17 (DW_TAG_variable)
    <6a8>   DW_AT_name        : (indirect string, offset: 0x2c0): _FP_PACK_CANONICAL_is_tiny
    <6ac>   DW_AT_decl_file   : 1
    <6ad>   DW_AT_decl_line   : 47
    <6ae>   DW_AT_decl_column : 3
    <6af>   DW_AT_type        : <0x368>
 <3><6b3>: Abbrev Number: 20 (DW_TAG_lexical_block)
 <4><6b4>: Abbrev Number: 17 (DW_TAG_variable)
    <6b5>   DW_AT_name        : (indirect string, offset: 0x36b): _FP_PACK_CANONICAL_T_c
    <6b9>   DW_AT_decl_file   : 1
    <6ba>   DW_AT_decl_line   : 47
    <6bb>   DW_AT_decl_column : 3
    <6bc>   DW_AT_type        : <0x6fd>
 <4><6c0>: Abbrev Number: 17 (DW_TAG_variable)
    <6c1>   DW_AT_name        : (indirect string, offset: 0x38c): _FP_PACK_CANONICAL_T_s
    <6c5>   DW_AT_decl_file   : 1
    <6c6>   DW_AT_decl_line   : 47
    <6c7>   DW_AT_decl_column : 3
    <6c8>   DW_AT_type        : <0x6fd>
 <4><6cc>: Abbrev Number: 17 (DW_TAG_variable)
    <6cd>   DW_AT_name        : (indirect string, offset: 0x314): _FP_PACK_CANONICAL_T_e
    <6d1>   DW_AT_decl_file   : 1
    <6d2>   DW_AT_decl_line   : 47
    <6d3>   DW_AT_decl_column : 3
    <6d4>   DW_AT_type        : <0x6fd>
 <4><6d8>: Abbrev Number: 17 (DW_TAG_variable)
    <6d9>   DW_AT_name        : (indirect string, offset: 0x2db): _FP_PACK_CANONICAL_T_f
    <6dd>   DW_AT_decl_file   : 1
    <6de>   DW_AT_decl_line   : 47
    <6df>   DW_AT_decl_column : 3
    <6e0>   DW_AT_type        : <0x704>
 <4><6e4>: Abbrev Number: 0
 <3><6e5>: Abbrev Number: 0
 <2><6e6>: Abbrev Number: 21 (DW_TAG_lexical_block)
    <6e7>   DW_AT_low_pc      : 0x838
    <6eb>   DW_AT_high_pc     : 0x1c
 <3><6ef>: Abbrev Number: 17 (DW_TAG_variable)
    <6f0>   DW_AT_name        : (indirect string, offset: 0x0): _FP_PACK_RAW_1_flo
    <6f4>   DW_AT_decl_file   : 1
    <6f5>   DW_AT_decl_line   : 47
    <6f6>   DW_AT_decl_column : 3
    <6f7>   DW_AT_type        : <0x3df>
 <3><6fb>: Abbrev Number: 0
 <2><6fc>: Abbrev Number: 0
 <1><6fd>: Abbrev Number: 2 (DW_TAG_base_type)
    <6fe>   DW_AT_byte_size   : 4
    <6ff>   DW_AT_encoding    : 5	(signed)
    <700>   DW_AT_name        : (indirect string, offset: 0x14a): long int
 <1><704>: Abbrev Number: 2 (DW_TAG_base_type)
    <705>   DW_AT_byte_size   : 4
    <706>   DW_AT_encoding    : 7	(unsigned)
    <707>   DW_AT_name        : (indirect string, offset: 0x104): long unsigned int
 <1><70b>: Abbrev Number: 22 (DW_TAG_subprogram)
    <70c>   DW_AT_external    : 1
    <70c>   DW_AT_declaration : 1
    <70c>   DW_AT_linkage_name: (indirect string, offset: 0x19a): __clzsi2
    <710>   DW_AT_name        : (indirect string, offset: 0x19a): __clzsi2
 <1><714>: Abbrev Number: 22 (DW_TAG_subprogram)
    <715>   DW_AT_external    : 1
    <715>   DW_AT_declaration : 1
    <715>   DW_AT_linkage_name: (indirect string, offset: 0x30a): __udivsi3
    <719>   DW_AT_name        : (indirect string, offset: 0x30a): __udivsi3
 <1><71d>: Abbrev Number: 22 (DW_TAG_subprogram)
    <71e>   DW_AT_external    : 1
    <71e>   DW_AT_declaration : 1
    <71e>   DW_AT_linkage_name: (indirect string, offset: 0x362): __mulsi3
    <722>   DW_AT_name        : (indirect string, offset: 0x362): __mulsi3
 <1><726>: Abbrev Number: 22 (DW_TAG_subprogram)
    <727>   DW_AT_external    : 1
    <727>   DW_AT_declaration : 1
    <727>   DW_AT_linkage_name: (indirect string, offset: 0x300): __umodsi3
    <72b>   DW_AT_name        : (indirect string, offset: 0x300): __umodsi3
 <1><72f>: Abbrev Number: 0
  Compilation Unit @ offset 0x730:
   Length:        0x434 (32-bit)
   Version:       4
   Abbrev Offset: 0x2ad
   Pointer Size:  4
 <0><73b>: Abbrev Number: 1 (DW_TAG_compile_unit)
    <73c>   DW_AT_producer    : (indirect string, offset: 0x1a3): GNU C17 10.2.0 -mcmodel=medlow -mcmodel=medlow -mtune=rocket -march=rv32i -mabi=ilp32 -march=rv32i -g -Os -O2 -Os -fbuilding-libgcc -fno-stack-protector -fvisibility=hidden
    <740>   DW_AT_language    : 12	(ANSI C99)
    <741>   DW_AT_name        : (indirect string, offset: 0x4b9): ../../.././riscv-gcc/libgcc/soft-fp/mulsf3.c
    <745>   DW_AT_comp_dir    : (indirect string, offset: 0x250): /home/adlv/projects/riscv/riscv-gnu-toolchain/build-gcc-newlib-stage2/riscv32-unknown-elf/libgcc
    <749>   DW_AT_low_pc      : 0x954
    <74d>   DW_AT_high_pc     : 0x330
    <751>   DW_AT_stmt_list   : 0x126c
 <1><755>: Abbrev Number: 2 (DW_TAG_base_type)
    <756>   DW_AT_byte_size   : 4
    <757>   DW_AT_encoding    : 4	(float)
    <758>   DW_AT_name        : (indirect string, offset: 0x5b3): float
 <1><75c>: Abbrev Number: 3 (DW_TAG_base_type)
    <75d>   DW_AT_byte_size   : 4
    <75e>   DW_AT_encoding    : 5	(signed)
    <75f>   DW_AT_name        : int
 <1><763>: Abbrev Number: 2 (DW_TAG_base_type)
    <764>   DW_AT_byte_size   : 1
    <765>   DW_AT_encoding    : 6	(signed char)
    <766>   DW_AT_name        : (indirect string, offset: 0x8f): signed char
 <1><76a>: Abbrev Number: 2 (DW_TAG_base_type)
    <76b>   DW_AT_byte_size   : 8
    <76c>   DW_AT_encoding    : 5	(signed)
    <76d>   DW_AT_name        : (indirect string, offset: 0x145): long long int
 <1><771>: Abbrev Number: 2 (DW_TAG_base_type)
    <772>   DW_AT_byte_size   : 1
    <773>   DW_AT_encoding    : 8	(unsigned char)
    <774>   DW_AT_name        : (indirect string, offset: 0x8d): unsigned char
 <1><778>: Abbrev Number: 2 (DW_TAG_base_type)
    <779>   DW_AT_byte_size   : 4
    <77a>   DW_AT_encoding    : 7	(unsigned)
    <77b>   DW_AT_name        : (indirect string, offset: 0x109): unsigned int
 <1><77f>: Abbrev Number: 2 (DW_TAG_base_type)
    <780>   DW_AT_byte_size   : 8
    <781>   DW_AT_encoding    : 7	(unsigned)
    <782>   DW_AT_name        : (indirect string, offset: 0xff): long long unsigned int
 <1><786>: Abbrev Number: 4 (DW_TAG_typedef)
    <787>   DW_AT_name        : (indirect string, offset: 0x47e): UHWtype
    <78b>   DW_AT_decl_file   : 2
    <78c>   DW_AT_decl_line   : 334
    <78e>   DW_AT_decl_column : 22
    <78f>   DW_AT_type        : <0x793>
 <1><793>: Abbrev Number: 2 (DW_TAG_base_type)
    <794>   DW_AT_byte_size   : 2
    <795>   DW_AT_encoding    : 7	(unsigned)
    <796>   DW_AT_name        : (indirect string, offset: 0xbe): short unsigned int
 <1><79a>: Abbrev Number: 5 (DW_TAG_typedef)
    <79b>   DW_AT_name        : (indirect string, offset: 0x193): SFtype
    <79f>   DW_AT_decl_file   : 3
    <7a0>   DW_AT_decl_line   : 69
    <7a1>   DW_AT_decl_column : 15
    <7a2>   DW_AT_type        : <0x755>
 <1><7a6>: Abbrev Number: 6 (DW_TAG_structure_type)
    <7a7>   DW_AT_byte_size   : 4
    <7a8>   DW_AT_decl_file   : 3
    <7a9>   DW_AT_decl_line   : 74
    <7aa>   DW_AT_decl_column : 3
    <7ab>   DW_AT_sibling     : <0x7e0>
 <2><7af>: Abbrev Number: 7 (DW_TAG_member)
    <7b0>   DW_AT_name        : (indirect string, offset: 0xfa): frac
    <7b4>   DW_AT_decl_file   : 3
    <7b5>   DW_AT_decl_line   : 81
    <7b6>   DW_AT_decl_column : 14
    <7b7>   DW_AT_type        : <0x778>
    <7bb>   DW_AT_byte_size   : 4
    <7bc>   DW_AT_bit_size    : 23
    <7bd>   DW_AT_bit_offset  : 9
    <7be>   DW_AT_data_member_location: 0
 <2><7bf>: Abbrev Number: 8 (DW_TAG_member)
    <7c0>   DW_AT_name        : exp
    <7c4>   DW_AT_decl_file   : 3
    <7c5>   DW_AT_decl_line   : 82
    <7c6>   DW_AT_decl_column : 14
    <7c7>   DW_AT_type        : <0x778>
    <7cb>   DW_AT_byte_size   : 4
    <7cc>   DW_AT_bit_size    : 8
    <7cd>   DW_AT_bit_offset  : 1
    <7ce>   DW_AT_data_member_location: 0
 <2><7cf>: Abbrev Number: 7 (DW_TAG_member)
    <7d0>   DW_AT_name        : (indirect string, offset: 0xb9): sign
    <7d4>   DW_AT_decl_file   : 3
    <7d5>   DW_AT_decl_line   : 83
    <7d6>   DW_AT_decl_column : 14
    <7d7>   DW_AT_type        : <0x778>
    <7db>   DW_AT_byte_size   : 4
    <7dc>   DW_AT_bit_size    : 1
    <7dd>   DW_AT_bit_offset  : 0
    <7de>   DW_AT_data_member_location: 0
 <2><7df>: Abbrev Number: 0
 <1><7e0>: Abbrev Number: 9 (DW_TAG_union_type)
    <7e1>   DW_AT_name        : (indirect string, offset: 0x187): _FP_UNION_S
    <7e5>   DW_AT_byte_size   : 4
    <7e6>   DW_AT_decl_file   : 3
    <7e7>   DW_AT_decl_line   : 71
    <7e8>   DW_AT_decl_column : 7
    <7e9>   DW_AT_sibling     : <0x806>
 <2><7ed>: Abbrev Number: 10 (DW_TAG_member)
    <7ee>   DW_AT_name        : flt
    <7f2>   DW_AT_decl_file   : 3
    <7f3>   DW_AT_decl_line   : 73
    <7f4>   DW_AT_decl_column : 10
    <7f5>   DW_AT_type        : <0x79a>
 <2><7f9>: Abbrev Number: 11 (DW_TAG_member)
    <7fa>   DW_AT_name        : (indirect string, offset: 0x16a): bits
    <7fe>   DW_AT_decl_file   : 3
    <7ff>   DW_AT_decl_line   : 85
    <800>   DW_AT_decl_column : 5
    <801>   DW_AT_type        : <0x7a6>
 <2><805>: Abbrev Number: 0
 <1><806>: Abbrev Number: 12 (DW_TAG_subprogram)
    <807>   DW_AT_external    : 1
    <807>   DW_AT_name        : (indirect string, offset: 0x4b0): __mulsf3
    <80b>   DW_AT_decl_file   : 1
    <80c>   DW_AT_decl_line   : 35
    <80d>   DW_AT_decl_column : 1
    <80e>   DW_AT_prototyped  : 1
    <80e>   DW_AT_type        : <0x79a>
    <812>   DW_AT_low_pc      : 0x954
    <816>   DW_AT_high_pc     : 0x330
    <81a>   DW_AT_frame_base  : 1 byte block: 9c 	(DW_OP_call_frame_cfa)
    <81c>   DW_AT_GNU_all_call_sites: 1
    <81c>   DW_AT_sibling     : <0xb50>
 <2><820>: Abbrev Number: 13 (DW_TAG_formal_parameter)
    <821>   DW_AT_name        : a
    <823>   DW_AT_decl_file   : 1
    <824>   DW_AT_decl_line   : 35
    <825>   DW_AT_decl_column : 18
    <826>   DW_AT_type        : <0x79a>
    <82a>   DW_AT_location    : 0x10e2 (location list)
 <2><82e>: Abbrev Number: 13 (DW_TAG_formal_parameter)
    <82f>   DW_AT_name        : b
    <831>   DW_AT_decl_file   : 1
    <832>   DW_AT_decl_line   : 35
    <833>   DW_AT_decl_column : 28
    <834>   DW_AT_type        : <0x79a>
    <838>   DW_AT_location    : 0x113b (location list)
 <2><83c>: Abbrev Number: 14 (DW_TAG_variable)
    <83d>   DW_AT_name        : (indirect string, offset: 0x28): _fex
    <841>   DW_AT_decl_file   : 1
    <842>   DW_AT_decl_line   : 37
    <843>   DW_AT_decl_column : 3
    <844>   DW_AT_type        : <0x75c>
    <848>   DW_AT_location    : 0x119a (location list)
 <2><84c>: Abbrev Number: 15 (DW_TAG_variable)
    <84d>   DW_AT_name        : (indirect string, offset: 0x2b1): _frm
    <851>   DW_AT_decl_file   : 1
    <852>   DW_AT_decl_line   : 37
    <853>   DW_AT_decl_column : 3
    <854>   DW_AT_type        : <0x75c>
    <858>   DW_AT_const_value : 0
 <2><859>: Abbrev Number: 16 (DW_TAG_variable)
    <85a>   DW_AT_name        : A_c
    <85e>   DW_AT_decl_file   : 1
    <85f>   DW_AT_decl_line   : 38
    <860>   DW_AT_decl_column : 3
    <861>   DW_AT_type        : <0xb50>
    <865>   DW_AT_location    : 0x11ba (location list)
 <2><869>: Abbrev Number: 16 (DW_TAG_variable)
    <86a>   DW_AT_name        : A_s
    <86e>   DW_AT_decl_file   : 1
    <86f>   DW_AT_decl_line   : 38
    <870>   DW_AT_decl_column : 3
    <871>   DW_AT_type        : <0xb50>
    <875>   DW_AT_location    : 0x11e4 (location list)
 <2><879>: Abbrev Number: 16 (DW_TAG_variable)
    <87a>   DW_AT_name        : A_e
    <87e>   DW_AT_decl_file   : 1
    <87f>   DW_AT_decl_line   : 38
    <880>   DW_AT_decl_column : 3
    <881>   DW_AT_type        : <0xb50>
    <885>   DW_AT_location    : 0x11fc (location list)
 <2><889>: Abbrev Number: 16 (DW_TAG_variable)
    <88a>   DW_AT_name        : A_f
    <88e>   DW_AT_decl_file   : 1
    <88f>   DW_AT_decl_line   : 38
    <890>   DW_AT_decl_column : 3
    <891>   DW_AT_type        : <0xb57>
    <895>   DW_AT_location    : 0x127e (location list)
 <2><899>: Abbrev Number: 16 (DW_TAG_variable)
    <89a>   DW_AT_name        : B_c
    <89e>   DW_AT_decl_file   : 1
    <89f>   DW_AT_decl_line   : 39
    <8a0>   DW_AT_decl_column : 3
    <8a1>   DW_AT_type        : <0xb50>
    <8a5>   DW_AT_location    : 0x12e3 (location list)
 <2><8a9>: Abbrev Number: 16 (DW_TAG_variable)
    <8aa>   DW_AT_name        : B_s
    <8ae>   DW_AT_decl_file   : 1
    <8af>   DW_AT_decl_line   : 39
    <8b0>   DW_AT_decl_column : 3
    <8b1>   DW_AT_type        : <0xb50>
    <8b5>   DW_AT_location    : 0x1323 (location list)
 <2><8b9>: Abbrev Number: 16 (DW_TAG_variable)
    <8ba>   DW_AT_name        : B_e
    <8be>   DW_AT_decl_file   : 1
    <8bf>   DW_AT_decl_line   : 39
    <8c0>   DW_AT_decl_column : 3
    <8c1>   DW_AT_type        : <0xb50>
    <8c5>   DW_AT_location    : 0x134b (location list)
 <2><8c9>: Abbrev Number: 16 (DW_TAG_variable)
    <8ca>   DW_AT_name        : B_f
    <8ce>   DW_AT_decl_file   : 1
    <8cf>   DW_AT_decl_line   : 39
    <8d0>   DW_AT_decl_column : 3
    <8d1>   DW_AT_type        : <0xb57>
    <8d5>   DW_AT_location    : 0x13ca (location list)
 <2><8d9>: Abbrev Number: 16 (DW_TAG_variable)
    <8da>   DW_AT_name        : R_c
    <8de>   DW_AT_decl_file   : 1
    <8df>   DW_AT_decl_line   : 40
    <8e0>   DW_AT_decl_column : 3
    <8e1>   DW_AT_type        : <0xb50>
    <8e5>   DW_AT_location    : 0x141a (location list)
 <2><8e9>: Abbrev Number: 16 (DW_TAG_variable)
    <8ea>   DW_AT_name        : R_s
    <8ee>   DW_AT_decl_file   : 1
    <8ef>   DW_AT_decl_line   : 40
    <8f0>   DW_AT_decl_column : 3
    <8f1>   DW_AT_type        : <0xb50>
    <8f5>   DW_AT_location    : 0x1445 (location list)
 <2><8f9>: Abbrev Number: 16 (DW_TAG_variable)
    <8fa>   DW_AT_name        : R_e
    <8fe>   DW_AT_decl_file   : 1
    <8ff>   DW_AT_decl_line   : 40
    <900>   DW_AT_decl_column : 3
    <901>   DW_AT_type        : <0xb50>
    <905>   DW_AT_location    : 0x1499 (location list)
 <2><909>: Abbrev Number: 16 (DW_TAG_variable)
    <90a>   DW_AT_name        : R_f
    <90e>   DW_AT_decl_file   : 1
    <90f>   DW_AT_decl_line   : 40
    <910>   DW_AT_decl_column : 3
    <911>   DW_AT_type        : <0xb57>
    <915>   DW_AT_location    : 0x1533 (location list)
 <2><919>: Abbrev Number: 16 (DW_TAG_variable)
    <91a>   DW_AT_name        : r
    <91c>   DW_AT_decl_file   : 1
    <91d>   DW_AT_decl_line   : 41
    <91e>   DW_AT_decl_column : 10
    <91f>   DW_AT_type        : <0x79a>
    <923>   DW_AT_location    : 0x1597 (location list)
 <2><927>: Abbrev Number: 17 (DW_TAG_lexical_block)
    <928>   DW_AT_ranges      : 0x220
    <92c>   DW_AT_sibling     : <0x93d>
 <3><930>: Abbrev Number: 18 (DW_TAG_variable)
    <931>   DW_AT_name        : (indirect string, offset: 0x9b): _FP_UNPACK_RAW_1_flo
    <935>   DW_AT_decl_file   : 1
    <936>   DW_AT_decl_line   : 44
    <937>   DW_AT_decl_column : 3
    <938>   DW_AT_type        : <0x7e0>
 <3><93c>: Abbrev Number: 0
 <2><93d>: Abbrev Number: 17 (DW_TAG_lexical_block)
    <93e>   DW_AT_ranges      : 0x248
    <942>   DW_AT_sibling     : <0x960>
 <3><946>: Abbrev Number: 14 (DW_TAG_variable)
    <947>   DW_AT_name        : (indirect string, offset: 0x3d0): _FP_UNPACK_CANONICAL_shift
    <94b>   DW_AT_decl_file   : 1
    <94c>   DW_AT_decl_line   : 44
    <94d>   DW_AT_decl_column : 3
    <94e>   DW_AT_type        : <0xb50>
    <952>   DW_AT_location    : 0x15bc (location list)
 <3><956>: Abbrev Number: 19 (DW_TAG_GNU_call_site)
    <957>   DW_AT_low_pc      : 0xa24
    <95b>   DW_AT_abstract_origin: <0xb5e>
 <3><95f>: Abbrev Number: 0
 <2><960>: Abbrev Number: 17 (DW_TAG_lexical_block)
    <961>   DW_AT_ranges      : 0x260
    <965>   DW_AT_sibling     : <0x976>
 <3><969>: Abbrev Number: 18 (DW_TAG_variable)
    <96a>   DW_AT_name        : (indirect string, offset: 0x9b): _FP_UNPACK_RAW_1_flo
    <96e>   DW_AT_decl_file   : 1
    <96f>   DW_AT_decl_line   : 45
    <970>   DW_AT_decl_column : 3
    <971>   DW_AT_type        : <0x7e0>
 <3><975>: Abbrev Number: 0
 <2><976>: Abbrev Number: 17 (DW_TAG_lexical_block)
    <977>   DW_AT_ranges      : 0x278
    <97b>   DW_AT_sibling     : <0x999>
 <3><97f>: Abbrev Number: 14 (DW_TAG_variable)
    <980>   DW_AT_name        : (indirect string, offset: 0x3d0): _FP_UNPACK_CANONICAL_shift
    <984>   DW_AT_decl_file   : 1
    <985>   DW_AT_decl_line   : 45
    <986>   DW_AT_decl_column : 3
    <987>   DW_AT_type        : <0xb50>
    <98b>   DW_AT_location    : 0x15d1 (location list)
 <3><98f>: Abbrev Number: 19 (DW_TAG_GNU_call_site)
    <990>   DW_AT_low_pc      : 0xa64
    <994>   DW_AT_abstract_origin: <0xb5e>
 <3><998>: Abbrev Number: 0
 <2><999>: Abbrev Number: 20 (DW_TAG_lexical_block)
    <99a>   DW_AT_low_pc      : 0xa98
    <99e>   DW_AT_high_pc     : 0x98
    <9a2>   DW_AT_sibling     : <0xaf1>
 <3><9a6>: Abbrev Number: 14 (DW_TAG_variable)
    <9a7>   DW_AT_name        : (indirect string, offset: 0x442): _FP_MUL_MEAT_1_wide_Z_f0
    <9ab>   DW_AT_decl_file   : 1
    <9ac>   DW_AT_decl_line   : 46
    <9ad>   DW_AT_decl_column : 3
    <9ae>   DW_AT_type        : <0xb57>
    <9b2>   DW_AT_location    : 0x15e6 (location list)
 <3><9b6>: Abbrev Number: 14 (DW_TAG_variable)
    <9b7>   DW_AT_name        : (indirect string, offset: 0x45b): _FP_MUL_MEAT_1_wide_Z_f1
    <9bb>   DW_AT_decl_file   : 1
    <9bc>   DW_AT_decl_line   : 46
    <9bd>   DW_AT_decl_column : 3
    <9be>   DW_AT_type        : <0xb57>
    <9c2>   DW_AT_location    : 0x160f (location list)
 <3><9c6>: Abbrev Number: 21 (DW_TAG_lexical_block)
    <9c7>   DW_AT_ranges      : 0x290
 <4><9cb>: Abbrev Number: 14 (DW_TAG_variable)
    <9cc>   DW_AT_name        : (indirect string, offset: 0x492): __x0
    <9d0>   DW_AT_decl_file   : 1
    <9d1>   DW_AT_decl_line   : 46
    <9d2>   DW_AT_decl_column : 3
    <9d3>   DW_AT_type        : <0xb57>
    <9d7>   DW_AT_location    : 0x1634 (location list)
 <4><9db>: Abbrev Number: 14 (DW_TAG_variable)
    <9dc>   DW_AT_name        : (indirect string, offset: 0x497): __x1
    <9e0>   DW_AT_decl_file   : 1
    <9e1>   DW_AT_decl_line   : 46
    <9e2>   DW_AT_decl_column : 3
    <9e3>   DW_AT_type        : <0xb57>
    <9e7>   DW_AT_location    : 0x1647 (location list)
 <4><9eb>: Abbrev Number: 14 (DW_TAG_variable)
    <9ec>   DW_AT_name        : (indirect string, offset: 0x49c): __x2
    <9f0>   DW_AT_decl_file   : 1
    <9f1>   DW_AT_decl_line   : 46
    <9f2>   DW_AT_decl_column : 3
    <9f3>   DW_AT_type        : <0xb57>
    <9f7>   DW_AT_location    : 0x1682 (location list)
 <4><9fb>: Abbrev Number: 14 (DW_TAG_variable)
    <9fc>   DW_AT_name        : (indirect string, offset: 0x4a1): __x3
    <a00>   DW_AT_decl_file   : 1
    <a01>   DW_AT_decl_line   : 46
    <a02>   DW_AT_decl_column : 3
    <a03>   DW_AT_type        : <0xb57>
    <a07>   DW_AT_location    : 0x16a0 (location list)
 <4><a0b>: Abbrev Number: 14 (DW_TAG_variable)
    <a0c>   DW_AT_name        : (indirect string, offset: 0x479): __ul
    <a10>   DW_AT_decl_file   : 1
    <a11>   DW_AT_decl_line   : 46
    <a12>   DW_AT_decl_column : 3
    <a13>   DW_AT_type        : <0x786>
    <a17>   DW_AT_location    : 0x16be (location list)
 <4><a1b>: Abbrev Number: 14 (DW_TAG_variable)
    <a1c>   DW_AT_name        : (indirect string, offset: 0x4ab): __vl
    <a20>   DW_AT_decl_file   : 1
    <a21>   DW_AT_decl_line   : 46
    <a22>   DW_AT_decl_column : 3
    <a23>   DW_AT_type        : <0x786>
    <a27>   DW_AT_location    : 0x16d1 (location list)
 <4><a2b>: Abbrev Number: 14 (DW_TAG_variable)
    <a2c>   DW_AT_name        : (indirect string, offset: 0x474): __uh
    <a30>   DW_AT_decl_file   : 1
    <a31>   DW_AT_decl_line   : 46
    <a32>   DW_AT_decl_column : 3
    <a33>   DW_AT_type        : <0x786>
    <a37>   DW_AT_location    : 0x16e4 (location list)
 <4><a3b>: Abbrev Number: 14 (DW_TAG_variable)
    <a3c>   DW_AT_name        : (indirect string, offset: 0x4a6): __vh
    <a40>   DW_AT_decl_file   : 1
    <a41>   DW_AT_decl_line   : 46
    <a42>   DW_AT_decl_column : 3
    <a43>   DW_AT_type        : <0x786>
    <a47>   DW_AT_location    : 0x1702 (location list)
 <4><a4b>: Abbrev Number: 20 (DW_TAG_lexical_block)
    <a4c>   DW_AT_low_pc      : 0xaa8
    <a50>   DW_AT_high_pc     : 0x18
    <a54>   DW_AT_sibling     : <0xa75>
 <5><a58>: Abbrev Number: 22 (DW_TAG_variable)
    <a59>   DW_AT_name        : (indirect string, offset: 0x486): __op0
    <a5d>   DW_AT_decl_file   : 1
    <a5e>   DW_AT_decl_line   : 46
    <a5f>   DW_AT_decl_column : 3
    <a60>   DW_AT_type        : <0xb57>
    <a64>   DW_AT_location    : 1 byte block: 5a 	(DW_OP_reg10 (a0))
 <5><a66>: Abbrev Number: 22 (DW_TAG_variable)
    <a67>   DW_AT_name        : (indirect string, offset: 0x48c): __op1
    <a6b>   DW_AT_decl_file   : 1
    <a6c>   DW_AT_decl_line   : 46
    <a6d>   DW_AT_decl_column : 3
    <a6e>   DW_AT_type        : <0xb57>
    <a72>   DW_AT_location    : 1 byte block: 5b 	(DW_OP_reg11 (a1))
 <5><a74>: Abbrev Number: 0
 <4><a75>: Abbrev Number: 20 (DW_TAG_lexical_block)
    <a76>   DW_AT_low_pc      : 0xac0
    <a7a>   DW_AT_high_pc     : 0x10
    <a7e>   DW_AT_sibling     : <0xa9f>
 <5><a82>: Abbrev Number: 22 (DW_TAG_variable)
    <a83>   DW_AT_name        : (indirect string, offset: 0x486): __op0
    <a87>   DW_AT_decl_file   : 1
    <a88>   DW_AT_decl_line   : 46
    <a89>   DW_AT_decl_column : 3
    <a8a>   DW_AT_type        : <0xb57>
    <a8e>   DW_AT_location    : 1 byte block: 5a 	(DW_OP_reg10 (a0))
 <5><a90>: Abbrev Number: 22 (DW_TAG_variable)
    <a91>   DW_AT_name        : (indirect string, offset: 0x48c): __op1
    <a95>   DW_AT_decl_file   : 1
    <a96>   DW_AT_decl_line   : 46
    <a97>   DW_AT_decl_column : 3
    <a98>   DW_AT_type        : <0xb57>
    <a9c>   DW_AT_location    : 1 byte block: 5b 	(DW_OP_reg11 (a1))
 <5><a9e>: Abbrev Number: 0
 <4><a9f>: Abbrev Number: 20 (DW_TAG_lexical_block)
    <aa0>   DW_AT_low_pc      : 0xad0
    <aa4>   DW_AT_high_pc     : 0x10
    <aa8>   DW_AT_sibling     : <0xac9>
 <5><aac>: Abbrev Number: 22 (DW_TAG_variable)
    <aad>   DW_AT_name        : (indirect string, offset: 0x486): __op0
    <ab1>   DW_AT_decl_file   : 1
    <ab2>   DW_AT_decl_line   : 46
    <ab3>   DW_AT_decl_column : 3
    <ab4>   DW_AT_type        : <0xb57>
    <ab8>   DW_AT_location    : 1 byte block: 5a 	(DW_OP_reg10 (a0))
 <5><aba>: Abbrev Number: 22 (DW_TAG_variable)
    <abb>   DW_AT_name        : (indirect string, offset: 0x48c): __op1
    <abf>   DW_AT_decl_file   : 1
    <ac0>   DW_AT_decl_line   : 46
    <ac1>   DW_AT_decl_column : 3
    <ac2>   DW_AT_type        : <0xb57>
    <ac6>   DW_AT_location    : 1 byte block: 5b 	(DW_OP_reg11 (a1))
 <5><ac8>: Abbrev Number: 0
 <4><ac9>: Abbrev Number: 23 (DW_TAG_lexical_block)
    <aca>   DW_AT_low_pc      : 0xae0
    <ace>   DW_AT_high_pc     : 0xc
 <5><ad2>: Abbrev Number: 22 (DW_TAG_variable)
    <ad3>   DW_AT_name        : (indirect string, offset: 0x486): __op0
    <ad7>   DW_AT_decl_file   : 1
    <ad8>   DW_AT_decl_line   : 46
    <ad9>   DW_AT_decl_column : 3
    <ada>   DW_AT_type        : <0xb57>
    <ade>   DW_AT_location    : 1 byte block: 5a 	(DW_OP_reg10 (a0))
 <5><ae0>: Abbrev Number: 22 (DW_TAG_variable)
    <ae1>   DW_AT_name        : (indirect string, offset: 0x48c): __op1
    <ae5>   DW_AT_decl_file   : 1
    <ae6>   DW_AT_decl_line   : 46
    <ae7>   DW_AT_decl_column : 3
    <ae8>   DW_AT_type        : <0xb57>
    <aec>   DW_AT_location    : 1 byte block: 5b 	(DW_OP_reg11 (a1))
 <5><aee>: Abbrev Number: 0
 <4><aef>: Abbrev Number: 0
 <3><af0>: Abbrev Number: 0
 <2><af1>: Abbrev Number: 17 (DW_TAG_lexical_block)
    <af2>   DW_AT_ranges      : 0x2b0
    <af6>   DW_AT_sibling     : <0xb39>
 <3><afa>: Abbrev Number: 18 (DW_TAG_variable)
    <afb>   DW_AT_name        : (indirect string, offset: 0x2c0): _FP_PACK_CANONICAL_is_tiny
    <aff>   DW_AT_decl_file   : 1
    <b00>   DW_AT_decl_line   : 47
    <b01>   DW_AT_decl_column : 3
    <b02>   DW_AT_type        : <0x75c>
 <3><b06>: Abbrev Number: 24 (DW_TAG_lexical_block)
 <4><b07>: Abbrev Number: 18 (DW_TAG_variable)
    <b08>   DW_AT_name        : (indirect string, offset: 0x36b): _FP_PACK_CANONICAL_T_c
    <b0c>   DW_AT_decl_file   : 1
    <b0d>   DW_AT_decl_line   : 47
    <b0e>   DW_AT_decl_column : 3
    <b0f>   DW_AT_type        : <0xb50>
 <4><b13>: Abbrev Number: 18 (DW_TAG_variable)
    <b14>   DW_AT_name        : (indirect string, offset: 0x38c): _FP_PACK_CANONICAL_T_s
    <b18>   DW_AT_decl_file   : 1
    <b19>   DW_AT_decl_line   : 47
    <b1a>   DW_AT_decl_column : 3
    <b1b>   DW_AT_type        : <0xb50>
 <4><b1f>: Abbrev Number: 18 (DW_TAG_variable)
    <b20>   DW_AT_name        : (indirect string, offset: 0x314): _FP_PACK_CANONICAL_T_e
    <b24>   DW_AT_decl_file   : 1
    <b25>   DW_AT_decl_line   : 47
    <b26>   DW_AT_decl_column : 3
    <b27>   DW_AT_type        : <0xb50>
 <4><b2b>: Abbrev Number: 18 (DW_TAG_variable)
    <b2c>   DW_AT_name        : (indirect string, offset: 0x2db): _FP_PACK_CANONICAL_T_f
    <b30>   DW_AT_decl_file   : 1
    <b31>   DW_AT_decl_line   : 47
    <b32>   DW_AT_decl_column : 3
    <b33>   DW_AT_type        : <0xb57>
 <4><b37>: Abbrev Number: 0
 <3><b38>: Abbrev Number: 0
 <2><b39>: Abbrev Number: 23 (DW_TAG_lexical_block)
    <b3a>   DW_AT_low_pc      : 0xc40
    <b3e>   DW_AT_high_pc     : 0x1c
 <3><b42>: Abbrev Number: 18 (DW_TAG_variable)
    <b43>   DW_AT_name        : (indirect string, offset: 0x0): _FP_PACK_RAW_1_flo
    <b47>   DW_AT_decl_file   : 1
    <b48>   DW_AT_decl_line   : 47
    <b49>   DW_AT_decl_column : 3
    <b4a>   DW_AT_type        : <0x7e0>
 <3><b4e>: Abbrev Number: 0
 <2><b4f>: Abbrev Number: 0
 <1><b50>: Abbrev Number: 2 (DW_TAG_base_type)
    <b51>   DW_AT_byte_size   : 4
    <b52>   DW_AT_encoding    : 5	(signed)
    <b53>   DW_AT_name        : (indirect string, offset: 0x14a): long int
 <1><b57>: Abbrev Number: 2 (DW_TAG_base_type)
    <b58>   DW_AT_byte_size   : 4
    <b59>   DW_AT_encoding    : 7	(unsigned)
    <b5a>   DW_AT_name        : (indirect string, offset: 0x104): long unsigned int
 <1><b5e>: Abbrev Number: 25 (DW_TAG_subprogram)
    <b5f>   DW_AT_external    : 1
    <b5f>   DW_AT_declaration : 1
    <b5f>   DW_AT_linkage_name: (indirect string, offset: 0x19a): __clzsi2
    <b63>   DW_AT_name        : (indirect string, offset: 0x19a): __clzsi2
 <1><b67>: Abbrev Number: 0
  Compilation Unit @ offset 0xb68:
   Length:        0x22 (32-bit)
   Version:       2
   Abbrev Offset: 0x424
   Pointer Size:  4
 <0><b73>: Abbrev Number: 1 (DW_TAG_compile_unit)
    <b74>   DW_AT_stmt_list   : 0x1a5b
    <b78>   DW_AT_low_pc      : 0xc84
    <b7c>   DW_AT_high_pc     : 0xca8
    <b80>   DW_AT_name        : (indirect string, offset: 0x4e6): ../../.././riscv-gcc/libgcc/config/riscv/muldi3.S
    <b84>   DW_AT_comp_dir    : (indirect string, offset: 0x250): /home/adlv/projects/riscv/riscv-gnu-toolchain/build-gcc-newlib-stage2/riscv32-unknown-elf/libgcc
    <b88>   DW_AT_producer    : (indirect string, offset: 0x518): GNU AS 2.35
    <b8c>   DW_AT_language    : 32769	(MIPS assembler)
  Compilation Unit @ offset 0xb8e:
   Length:        0x22 (32-bit)
   Version:       2
   Abbrev Offset: 0x438
   Pointer Size:  4
 <0><b99>: Abbrev Number: 1 (DW_TAG_compile_unit)
    <b9a>   DW_AT_stmt_list   : 0x1aed
    <b9e>   DW_AT_low_pc      : 0xca8
    <ba2>   DW_AT_high_pc     : 0xd5c
    <ba6>   DW_AT_name        : (indirect string, offset: 0x524): ../../.././riscv-gcc/libgcc/config/riscv/div.S
    <baa>   DW_AT_comp_dir    : (indirect string, offset: 0x250): /home/adlv/projects/riscv/riscv-gnu-toolchain/build-gcc-newlib-stage2/riscv32-unknown-elf/libgcc
    <bae>   DW_AT_producer    : (indirect string, offset: 0x518): GNU AS 2.35
    <bb2>   DW_AT_language    : 32769	(MIPS assembler)
  Compilation Unit @ offset 0xbb4:
   Length:        0x140 (32-bit)
   Version:       4
   Abbrev Offset: 0x44c
   Pointer Size:  4
 <0><bbf>: Abbrev Number: 1 (DW_TAG_compile_unit)
    <bc0>   DW_AT_producer    : (indirect string, offset: 0x1a3): GNU C17 10.2.0 -mcmodel=medlow -mcmodel=medlow -mtune=rocket -march=rv32i -mabi=ilp32 -march=rv32i -g -Os -O2 -Os -fbuilding-libgcc -fno-stack-protector -fvisibility=hidden
    <bc4>   DW_AT_language    : 12	(ANSI C99)
    <bc5>   DW_AT_name        : (indirect string, offset: 0x567): ../../.././riscv-gcc/libgcc/libgcc2.c
    <bc9>   DW_AT_comp_dir    : (indirect string, offset: 0x250): /home/adlv/projects/riscv/riscv-gnu-toolchain/build-gcc-newlib-stage2/riscv32-unknown-elf/libgcc
    <bcd>   DW_AT_low_pc      : 0xd5c
    <bd1>   DW_AT_high_pc     : 0x4c
    <bd5>   DW_AT_stmt_list   : 0x1c55
 <1><bd9>: Abbrev Number: 2 (DW_TAG_base_type)
    <bda>   DW_AT_byte_size   : 4
    <bdb>   DW_AT_encoding    : 5	(signed)
    <bdc>   DW_AT_name        : int
 <1><be0>: Abbrev Number: 3 (DW_TAG_base_type)
    <be1>   DW_AT_byte_size   : 4
    <be2>   DW_AT_encoding    : 7	(unsigned)
    <be3>   DW_AT_name        : (indirect string, offset: 0x109): unsigned int
 <1><be7>: Abbrev Number: 3 (DW_TAG_base_type)
    <be8>   DW_AT_byte_size   : 8
    <be9>   DW_AT_encoding    : 5	(signed)
    <bea>   DW_AT_name        : (indirect string, offset: 0x145): long long int
 <1><bee>: Abbrev Number: 3 (DW_TAG_base_type)
    <bef>   DW_AT_byte_size   : 16
    <bf0>   DW_AT_encoding    : 4	(float)
    <bf1>   DW_AT_name        : (indirect string, offset: 0x59f): long double
 <1><bf5>: Abbrev Number: 3 (DW_TAG_base_type)
    <bf6>   DW_AT_byte_size   : 1
    <bf7>   DW_AT_encoding    : 6	(signed char)
    <bf8>   DW_AT_name        : (indirect string, offset: 0x8f): signed char
 <1><bfc>: Abbrev Number: 3 (DW_TAG_base_type)
    <bfd>   DW_AT_byte_size   : 1
    <bfe>   DW_AT_encoding    : 8	(unsigned char)
    <bff>   DW_AT_name        : (indirect string, offset: 0x8d): unsigned char
 <1><c03>: Abbrev Number: 3 (DW_TAG_base_type)
    <c04>   DW_AT_byte_size   : 2
    <c05>   DW_AT_encoding    : 5	(signed)
    <c06>   DW_AT_name        : (indirect string, offset: 0x5c9): short int
 <1><c0a>: Abbrev Number: 3 (DW_TAG_base_type)
    <c0b>   DW_AT_byte_size   : 2
    <c0c>   DW_AT_encoding    : 7	(unsigned)
    <c0d>   DW_AT_name        : (indirect string, offset: 0xbe): short unsigned int
 <1><c11>: Abbrev Number: 3 (DW_TAG_base_type)
    <c12>   DW_AT_byte_size   : 4
    <c13>   DW_AT_encoding    : 5	(signed)
    <c14>   DW_AT_name        : (indirect string, offset: 0x14a): long int
 <1><c18>: Abbrev Number: 3 (DW_TAG_base_type)
    <c19>   DW_AT_byte_size   : 4
    <c1a>   DW_AT_encoding    : 7	(unsigned)
    <c1b>   DW_AT_name        : (indirect string, offset: 0x104): long unsigned int
 <1><c1f>: Abbrev Number: 3 (DW_TAG_base_type)
    <c20>   DW_AT_byte_size   : 8
    <c21>   DW_AT_encoding    : 7	(unsigned)
    <c22>   DW_AT_name        : (indirect string, offset: 0xff): long long unsigned int
 <1><c26>: Abbrev Number: 3 (DW_TAG_base_type)
    <c27>   DW_AT_byte_size   : 1
    <c28>   DW_AT_encoding    : 8	(unsigned char)
    <c29>   DW_AT_name        : (indirect string, offset: 0x96): char
 <1><c2d>: Abbrev Number: 4 (DW_TAG_typedef)
    <c2e>   DW_AT_name        : (indirect string, offset: 0x5b9): UQItype
    <c32>   DW_AT_decl_file   : 2
    <c33>   DW_AT_decl_line   : 123
    <c34>   DW_AT_decl_column : 22
    <c35>   DW_AT_type        : <0xbfc>
 <1><c39>: Abbrev Number: 5 (DW_TAG_const_type)
    <c3a>   DW_AT_type        : <0xc2d>
 <1><c3e>: Abbrev Number: 4 (DW_TAG_typedef)
    <c3f>   DW_AT_name        : (indirect string, offset: 0x5c2): SItype
    <c43>   DW_AT_decl_file   : 2
    <c44>   DW_AT_decl_line   : 128
    <c45>   DW_AT_decl_column : 15
    <c46>   DW_AT_type        : <0xbd9>
 <1><c4a>: Abbrev Number: 4 (DW_TAG_typedef)
    <c4b>   DW_AT_name        : (indirect string, offset: 0x5c1): USItype
    <c4f>   DW_AT_decl_file   : 2
    <c50>   DW_AT_decl_line   : 129
    <c51>   DW_AT_decl_column : 22
    <c52>   DW_AT_type        : <0xbe0>
 <1><c56>: Abbrev Number: 3 (DW_TAG_base_type)
    <c57>   DW_AT_byte_size   : 4
    <c58>   DW_AT_encoding    : 4	(float)
    <c59>   DW_AT_name        : (indirect string, offset: 0x5b3): float
 <1><c5d>: Abbrev Number: 3 (DW_TAG_base_type)
    <c5e>   DW_AT_byte_size   : 8
    <c5f>   DW_AT_encoding    : 3	(complex float)
    <c60>   DW_AT_name        : (indirect string, offset: 0x5ab): complex float
 <1><c64>: Abbrev Number: 3 (DW_TAG_base_type)
    <c65>   DW_AT_byte_size   : 8
    <c66>   DW_AT_encoding    : 4	(float)
    <c67>   DW_AT_name        : (indirect string, offset: 0x5a4): double
 <1><c6b>: Abbrev Number: 3 (DW_TAG_base_type)
    <c6c>   DW_AT_byte_size   : 16
    <c6d>   DW_AT_encoding    : 3	(complex float)
    <c6e>   DW_AT_name        : (indirect string, offset: 0x553): complex double
 <1><c72>: Abbrev Number: 3 (DW_TAG_base_type)
    <c73>   DW_AT_byte_size   : 32
    <c74>   DW_AT_encoding    : 3	(complex float)
    <c75>   DW_AT_name        : (indirect string, offset: 0x597): complex long double
 <1><c79>: Abbrev Number: 6 (DW_TAG_array_type)
    <c7a>   DW_AT_type        : <0xc39>
    <c7e>   DW_AT_sibling     : <0xc89>
 <2><c82>: Abbrev Number: 7 (DW_TAG_subrange_type)
    <c83>   DW_AT_type        : <0xbe0>
    <c87>   DW_AT_upper_bound : 255
 <2><c88>: Abbrev Number: 0
 <1><c89>: Abbrev Number: 5 (DW_TAG_const_type)
    <c8a>   DW_AT_type        : <0xc79>
 <1><c8e>: Abbrev Number: 8 (DW_TAG_variable)
    <c8f>   DW_AT_name        : (indirect string, offset: 0x58d): __clz_tab
    <c93>   DW_AT_decl_file   : 2
    <c94>   DW_AT_decl_line   : 514
    <c96>   DW_AT_decl_column : 22
    <c97>   DW_AT_type        : <0xc89>
    <c9b>   DW_AT_external    : 1
    <c9b>   DW_AT_declaration : 1
 <1><c9b>: Abbrev Number: 9 (DW_TAG_subprogram)
    <c9c>   DW_AT_external    : 1
    <c9c>   DW_AT_name        : (indirect string, offset: 0x19a): __clzsi2
    <ca0>   DW_AT_decl_file   : 1
    <ca1>   DW_AT_decl_line   : 706
    <ca3>   DW_AT_decl_column : 1
    <ca4>   DW_AT_prototyped  : 1
    <ca4>   DW_AT_type        : <0xbd9>
    <ca8>   DW_AT_low_pc      : 0xd5c
    <cac>   DW_AT_high_pc     : 0x4c
    <cb0>   DW_AT_frame_base  : 1 byte block: 9c 	(DW_OP_call_frame_cfa)
    <cb2>   DW_AT_GNU_all_call_sites: 1
 <2><cb2>: Abbrev Number: 10 (DW_TAG_formal_parameter)
    <cb3>   DW_AT_name        : x
    <cb5>   DW_AT_decl_file   : 1
    <cb6>   DW_AT_decl_line   : 706
    <cb8>   DW_AT_decl_column : 18
    <cb9>   DW_AT_type        : <0xc4a>
    <cbd>   DW_AT_location    : 0x1715 (location list)
 <2><cc1>: Abbrev Number: 11 (DW_TAG_variable)
    <cc2>   DW_AT_name        : ret
    <cc6>   DW_AT_decl_file   : 1
    <cc7>   DW_AT_decl_line   : 708
    <cc9>   DW_AT_decl_column : 9
    <cca>   DW_AT_type        : <0xc3e>
 <2><cce>: Abbrev Number: 12 (DW_TAG_lexical_block)
    <ccf>   DW_AT_ranges      : 0x2c8
 <3><cd3>: Abbrev Number: 13 (DW_TAG_variable)
    <cd4>   DW_AT_name        : (indirect string, offset: 0x562): __xr
    <cd8>   DW_AT_decl_file   : 1
    <cd9>   DW_AT_decl_line   : 710
    <cdb>   DW_AT_decl_column : 3
    <cdc>   DW_AT_type        : <0xc4a>
    <ce0>   DW_AT_location    : 0x1741 (location list)
 <3><ce4>: Abbrev Number: 14 (DW_TAG_variable)
    <ce5>   DW_AT_name        : __a
    <ce9>   DW_AT_decl_file   : 1
    <cea>   DW_AT_decl_line   : 710
    <cec>   DW_AT_decl_column : 3
    <ced>   DW_AT_type        : <0xc4a>
    <cf1>   DW_AT_location    : 0x176d (location list)
 <3><cf5>: Abbrev Number: 0
 <2><cf6>: Abbrev Number: 0
 <1><cf7>: Abbrev Number: 0
  Compilation Unit @ offset 0xcf8:
   Length:        0xd3 (32-bit)
   Version:       4
   Abbrev Offset: 0x516
   Pointer Size:  4
 <0><d03>: Abbrev Number: 1 (DW_TAG_compile_unit)
    <d04>   DW_AT_producer    : (indirect string, offset: 0x1a3): GNU C17 10.2.0 -mcmodel=medlow -mcmodel=medlow -mtune=rocket -march=rv32i -mabi=ilp32 -march=rv32i -g -Os -O2 -Os -fbuilding-libgcc -fno-stack-protector -fvisibility=hidden
    <d08>   DW_AT_language    : 12	(ANSI C99)
    <d09>   DW_AT_name        : (indirect string, offset: 0x567): ../../.././riscv-gcc/libgcc/libgcc2.c
    <d0d>   DW_AT_comp_dir    : (indirect string, offset: 0x250): /home/adlv/projects/riscv/riscv-gnu-toolchain/build-gcc-newlib-stage2/riscv32-unknown-elf/libgcc
    <d11>   DW_AT_stmt_list   : 0x1d34
 <1><d15>: Abbrev Number: 2 (DW_TAG_base_type)
    <d16>   DW_AT_byte_size   : 4
    <d17>   DW_AT_encoding    : 5	(signed)
    <d18>   DW_AT_name        : int
 <1><d1c>: Abbrev Number: 3 (DW_TAG_base_type)
    <d1d>   DW_AT_byte_size   : 4
    <d1e>   DW_AT_encoding    : 7	(unsigned)
    <d1f>   DW_AT_name        : (indirect string, offset: 0x109): unsigned int
 <1><d23>: Abbrev Number: 3 (DW_TAG_base_type)
    <d24>   DW_AT_byte_size   : 8
    <d25>   DW_AT_encoding    : 5	(signed)
    <d26>   DW_AT_name        : (indirect string, offset: 0x145): long long int
 <1><d2a>: Abbrev Number: 3 (DW_TAG_base_type)
    <d2b>   DW_AT_byte_size   : 16
    <d2c>   DW_AT_encoding    : 4	(float)
    <d2d>   DW_AT_name        : (indirect string, offset: 0x59f): long double
 <1><d31>: Abbrev Number: 3 (DW_TAG_base_type)
    <d32>   DW_AT_byte_size   : 1
    <d33>   DW_AT_encoding    : 6	(signed char)
    <d34>   DW_AT_name        : (indirect string, offset: 0x8f): signed char
 <1><d38>: Abbrev Number: 3 (DW_TAG_base_type)
    <d39>   DW_AT_byte_size   : 1
    <d3a>   DW_AT_encoding    : 8	(unsigned char)
    <d3b>   DW_AT_name        : (indirect string, offset: 0x8d): unsigned char
 <1><d3f>: Abbrev Number: 3 (DW_TAG_base_type)
    <d40>   DW_AT_byte_size   : 2
    <d41>   DW_AT_encoding    : 5	(signed)
    <d42>   DW_AT_name        : (indirect string, offset: 0x5c9): short int
 <1><d46>: Abbrev Number: 3 (DW_TAG_base_type)
    <d47>   DW_AT_byte_size   : 2
    <d48>   DW_AT_encoding    : 7	(unsigned)
    <d49>   DW_AT_name        : (indirect string, offset: 0xbe): short unsigned int
 <1><d4d>: Abbrev Number: 3 (DW_TAG_base_type)
    <d4e>   DW_AT_byte_size   : 4
    <d4f>   DW_AT_encoding    : 5	(signed)
    <d50>   DW_AT_name        : (indirect string, offset: 0x14a): long int
 <1><d54>: Abbrev Number: 3 (DW_TAG_base_type)
    <d55>   DW_AT_byte_size   : 4
    <d56>   DW_AT_encoding    : 7	(unsigned)
    <d57>   DW_AT_name        : (indirect string, offset: 0x104): long unsigned int
 <1><d5b>: Abbrev Number: 3 (DW_TAG_base_type)
    <d5c>   DW_AT_byte_size   : 8
    <d5d>   DW_AT_encoding    : 7	(unsigned)
    <d5e>   DW_AT_name        : (indirect string, offset: 0xff): long long unsigned int
 <1><d62>: Abbrev Number: 3 (DW_TAG_base_type)
    <d63>   DW_AT_byte_size   : 1
    <d64>   DW_AT_encoding    : 8	(unsigned char)
    <d65>   DW_AT_name        : (indirect string, offset: 0x96): char
 <1><d69>: Abbrev Number: 4 (DW_TAG_typedef)
    <d6a>   DW_AT_name        : (indirect string, offset: 0x5b9): UQItype
    <d6e>   DW_AT_decl_file   : 1
    <d6f>   DW_AT_decl_line   : 123
    <d70>   DW_AT_decl_column : 22
    <d71>   DW_AT_type        : <0xd38>
 <1><d75>: Abbrev Number: 5 (DW_TAG_const_type)
    <d76>   DW_AT_type        : <0xd69>
 <1><d7a>: Abbrev Number: 3 (DW_TAG_base_type)
    <d7b>   DW_AT_byte_size   : 4
    <d7c>   DW_AT_encoding    : 4	(float)
    <d7d>   DW_AT_name        : (indirect string, offset: 0x5b3): float
 <1><d81>: Abbrev Number: 3 (DW_TAG_base_type)
    <d82>   DW_AT_byte_size   : 8
    <d83>   DW_AT_encoding    : 3	(complex float)
    <d84>   DW_AT_name        : (indirect string, offset: 0x5ab): complex float
 <1><d88>: Abbrev Number: 3 (DW_TAG_base_type)
    <d89>   DW_AT_byte_size   : 8
    <d8a>   DW_AT_encoding    : 4	(float)
    <d8b>   DW_AT_name        : (indirect string, offset: 0x5a4): double
 <1><d8f>: Abbrev Number: 3 (DW_TAG_base_type)
    <d90>   DW_AT_byte_size   : 16
    <d91>   DW_AT_encoding    : 3	(complex float)
    <d92>   DW_AT_name        : (indirect string, offset: 0x553): complex double
 <1><d96>: Abbrev Number: 3 (DW_TAG_base_type)
    <d97>   DW_AT_byte_size   : 32
    <d98>   DW_AT_encoding    : 3	(complex float)
    <d99>   DW_AT_name        : (indirect string, offset: 0x597): complex long double
 <1><d9d>: Abbrev Number: 6 (DW_TAG_array_type)
    <d9e>   DW_AT_type        : <0xd75>
    <da2>   DW_AT_sibling     : <0xdad>
 <2><da6>: Abbrev Number: 7 (DW_TAG_subrange_type)
    <da7>   DW_AT_type        : <0xd1c>
    <dab>   DW_AT_upper_bound : 255
 <2><dac>: Abbrev Number: 0
 <1><dad>: Abbrev Number: 5 (DW_TAG_const_type)
    <dae>   DW_AT_type        : <0xd9d>
 <1><db2>: Abbrev Number: 8 (DW_TAG_variable)
    <db3>   DW_AT_name        : (indirect string, offset: 0x58d): __clz_tab
    <db7>   DW_AT_decl_file   : 1
    <db8>   DW_AT_decl_line   : 514
    <dba>   DW_AT_decl_column : 22
    <dbb>   DW_AT_type        : <0xdad>
    <dbf>   DW_AT_external    : 1
    <dbf>   DW_AT_declaration : 1
 <1><dbf>: Abbrev Number: 9 (DW_TAG_variable)
    <dc0>   DW_AT_specification: <0xdb2>
    <dc4>   DW_AT_decl_file   : 2
    <dc5>   DW_AT_decl_line   : 690
    <dc7>   DW_AT_decl_column : 15
    <dc8>   DW_AT_location    : 5 byte block: 3 80 8 40 0 	(DW_OP_addr: 400880)
 <1><dce>: Abbrev Number: 0

Contents of the .debug_abbrev section (loaded from FP_test_rv32i.elf):

  Number TAG (0x0)
   1      DW_TAG_compile_unit    [has children]
    DW_AT_producer     DW_FORM_strp
    DW_AT_language     DW_FORM_data1
    DW_AT_name         DW_FORM_strp
    DW_AT_comp_dir     DW_FORM_strp
    DW_AT_low_pc       DW_FORM_addr
    DW_AT_high_pc      DW_FORM_data4
    DW_AT_stmt_list    DW_FORM_sec_offset
    DW_AT value: 0     DW_FORM value: 0
   2      DW_TAG_base_type    [no children]
    DW_AT_byte_size    DW_FORM_data1
    DW_AT_encoding     DW_FORM_data1
    DW_AT_name         DW_FORM_strp
    DW_AT value: 0     DW_FORM value: 0
   3      DW_TAG_base_type    [no children]
    DW_AT_byte_size    DW_FORM_data1
    DW_AT_encoding     DW_FORM_data1
    DW_AT_name         DW_FORM_string
    DW_AT value: 0     DW_FORM value: 0
   4      DW_TAG_typedef    [no children]
    DW_AT_name         DW_FORM_strp
    DW_AT_decl_file    DW_FORM_data1
    DW_AT_decl_line    DW_FORM_data1
    DW_AT_decl_column  DW_FORM_data1
    DW_AT_type         DW_FORM_ref4
    DW_AT value: 0     DW_FORM value: 0
   5      DW_TAG_structure_type    [has children]
    DW_AT_byte_size    DW_FORM_data1
    DW_AT_decl_file    DW_FORM_data1
    DW_AT_decl_line    DW_FORM_data1
    DW_AT_decl_column  DW_FORM_data1
    DW_AT_sibling      DW_FORM_ref4
    DW_AT value: 0     DW_FORM value: 0
   6      DW_TAG_member    [no children]
    DW_AT_name         DW_FORM_strp
    DW_AT_decl_file    DW_FORM_data1
    DW_AT_decl_line    DW_FORM_data1
    DW_AT_decl_column  DW_FORM_data1
    DW_AT_type         DW_FORM_ref4
    DW_AT_byte_size    DW_FORM_data1
    DW_AT_bit_size     DW_FORM_data1
    DW_AT_bit_offset   DW_FORM_data1
    DW_AT_data_member_location DW_FORM_data1
    DW_AT value: 0     DW_FORM value: 0
   7      DW_TAG_member    [no children]
    DW_AT_name         DW_FORM_string
    DW_AT_decl_file    DW_FORM_data1
    DW_AT_decl_line    DW_FORM_data1
    DW_AT_decl_column  DW_FORM_data1
    DW_AT_type         DW_FORM_ref4
    DW_AT_byte_size    DW_FORM_data1
    DW_AT_bit_size     DW_FORM_data1
    DW_AT_bit_offset   DW_FORM_data1
    DW_AT_data_member_location DW_FORM_data1
    DW_AT value: 0     DW_FORM value: 0
   8      DW_TAG_union_type    [has children]
    DW_AT_name         DW_FORM_strp
    DW_AT_byte_size    DW_FORM_data1
    DW_AT_decl_file    DW_FORM_data1
    DW_AT_decl_line    DW_FORM_data1
    DW_AT_decl_column  DW_FORM_data1
    DW_AT_sibling      DW_FORM_ref4
    DW_AT value: 0     DW_FORM value: 0
   9      DW_TAG_member    [no children]
    DW_AT_name         DW_FORM_string
    DW_AT_decl_file    DW_FORM_data1
    DW_AT_decl_line    DW_FORM_data1
    DW_AT_decl_column  DW_FORM_data1
    DW_AT_type         DW_FORM_ref4
    DW_AT value: 0     DW_FORM value: 0
   10      DW_TAG_member    [no children]
    DW_AT_name         DW_FORM_strp
    DW_AT_decl_file    DW_FORM_data1
    DW_AT_decl_line    DW_FORM_data1
    DW_AT_decl_column  DW_FORM_data1
    DW_AT_type         DW_FORM_ref4
    DW_AT value: 0     DW_FORM value: 0
   11      DW_TAG_subprogram    [has children]
    DW_AT_external     DW_FORM_flag_present
    DW_AT_name         DW_FORM_strp
    DW_AT_decl_file    DW_FORM_data1
    DW_AT_decl_line    DW_FORM_data1
    DW_AT_decl_column  DW_FORM_data1
    DW_AT_prototyped   DW_FORM_flag_present
    DW_AT_type         DW_FORM_ref4
    DW_AT_low_pc       DW_FORM_addr
    DW_AT_high_pc      DW_FORM_data4
    DW_AT_frame_base   DW_FORM_exprloc
    DW_AT_GNU_all_call_sites DW_FORM_flag_present
    DW_AT_sibling      DW_FORM_ref4
    DW_AT value: 0     DW_FORM value: 0
   12      DW_TAG_formal_parameter    [no children]
    DW_AT_name         DW_FORM_string
    DW_AT_decl_file    DW_FORM_data1
    DW_AT_decl_line    DW_FORM_data1
    DW_AT_decl_column  DW_FORM_data1
    DW_AT_type         DW_FORM_ref4
    DW_AT_location     DW_FORM_sec_offset
    DW_AT value: 0     DW_FORM value: 0
   13      DW_TAG_variable    [no children]
    DW_AT_name         DW_FORM_strp
    DW_AT_decl_file    DW_FORM_data1
    DW_AT_decl_line    DW_FORM_data1
    DW_AT_decl_column  DW_FORM_data1
    DW_AT_type         DW_FORM_ref4
    DW_AT_location     DW_FORM_sec_offset
    DW_AT value: 0     DW_FORM value: 0
   14      DW_TAG_variable    [no children]
    DW_AT_name         DW_FORM_strp
    DW_AT_decl_file    DW_FORM_data1
    DW_AT_decl_line    DW_FORM_data1
    DW_AT_decl_column  DW_FORM_data1
    DW_AT_type         DW_FORM_ref4
    DW_AT_const_value  DW_FORM_data1
    DW_AT value: 0     DW_FORM value: 0
   15      DW_TAG_variable    [no children]
    DW_AT_name         DW_FORM_string
    DW_AT_decl_file    DW_FORM_data1
    DW_AT_decl_line    DW_FORM_data1
    DW_AT_decl_column  DW_FORM_data1
    DW_AT_type         DW_FORM_ref4
    DW_AT value: 0     DW_FORM value: 0
   16      DW_TAG_variable    [no children]
    DW_AT_name         DW_FORM_string
    DW_AT_decl_file    DW_FORM_data1
    DW_AT_decl_line    DW_FORM_data1
    DW_AT_decl_column  DW_FORM_data1
    DW_AT_type         DW_FORM_ref4
    DW_AT_location     DW_FORM_sec_offset
    DW_AT value: 0     DW_FORM value: 0
   17      DW_TAG_lexical_block    [has children]
    DW_AT_ranges       DW_FORM_sec_offset
    DW_AT_sibling      DW_FORM_ref4
    DW_AT value: 0     DW_FORM value: 0
   18      DW_TAG_variable    [no children]
    DW_AT_name         DW_FORM_strp
    DW_AT_decl_file    DW_FORM_data1
    DW_AT_decl_line    DW_FORM_data1
    DW_AT_decl_column  DW_FORM_data1
    DW_AT_type         DW_FORM_ref4
    DW_AT value: 0     DW_FORM value: 0
   19      DW_TAG_label    [no children]
    DW_AT_name         DW_FORM_strp
    DW_AT_decl_file    DW_FORM_data1
    DW_AT_decl_line    DW_FORM_data1
    DW_AT_decl_column  DW_FORM_data1
    DW_AT_low_pc       DW_FORM_addr
    DW_AT value: 0     DW_FORM value: 0
   20      DW_TAG_lexical_block    [has children]
    DW_AT_ranges       DW_FORM_sec_offset
    DW_AT value: 0     DW_FORM value: 0
   21      DW_TAG_GNU_call_site    [no children]
    DW_AT_low_pc       DW_FORM_addr
    DW_AT_abstract_origin DW_FORM_ref4
    DW_AT value: 0     DW_FORM value: 0
   22      DW_TAG_lexical_block    [has children]
    DW_AT value: 0     DW_FORM value: 0
   23      DW_TAG_subprogram    [no children]
    DW_AT_external     DW_FORM_flag_present
    DW_AT_declaration  DW_FORM_flag_present
    DW_AT_linkage_name DW_FORM_strp
    DW_AT_name         DW_FORM_strp
    DW_AT value: 0     DW_FORM value: 0
  Number TAG (0x161)
   1      DW_TAG_compile_unit    [has children]
    DW_AT_producer     DW_FORM_strp
    DW_AT_language     DW_FORM_data1
    DW_AT_name         DW_FORM_strp
    DW_AT_comp_dir     DW_FORM_strp
    DW_AT_low_pc       DW_FORM_addr
    DW_AT_high_pc      DW_FORM_data4
    DW_AT_stmt_list    DW_FORM_sec_offset
    DW_AT value: 0     DW_FORM value: 0
   2      DW_TAG_base_type    [no children]
    DW_AT_byte_size    DW_FORM_data1
    DW_AT_encoding     DW_FORM_data1
    DW_AT_name         DW_FORM_strp
    DW_AT value: 0     DW_FORM value: 0
   3      DW_TAG_base_type    [no children]
    DW_AT_byte_size    DW_FORM_data1
    DW_AT_encoding     DW_FORM_data1
    DW_AT_name         DW_FORM_string
    DW_AT value: 0     DW_FORM value: 0
   4      DW_TAG_typedef    [no children]
    DW_AT_name         DW_FORM_strp
    DW_AT_decl_file    DW_FORM_data1
    DW_AT_decl_line    DW_FORM_data1
    DW_AT_decl_column  DW_FORM_data1
    DW_AT_type         DW_FORM_ref4
    DW_AT value: 0     DW_FORM value: 0
   5      DW_TAG_structure_type    [has children]
    DW_AT_byte_size    DW_FORM_data1
    DW_AT_decl_file    DW_FORM_data1
    DW_AT_decl_line    DW_FORM_data1
    DW_AT_decl_column  DW_FORM_data1
    DW_AT_sibling      DW_FORM_ref4
    DW_AT value: 0     DW_FORM value: 0
   6      DW_TAG_member    [no children]
    DW_AT_name         DW_FORM_strp
    DW_AT_decl_file    DW_FORM_data1
    DW_AT_decl_line    DW_FORM_data1
    DW_AT_decl_column  DW_FORM_data1
    DW_AT_type         DW_FORM_ref4
    DW_AT_byte_size    DW_FORM_data1
    DW_AT_bit_size     DW_FORM_data1
    DW_AT_bit_offset   DW_FORM_data1
    DW_AT_data_member_location DW_FORM_data1
    DW_AT value: 0     DW_FORM value: 0
   7      DW_TAG_member    [no children]
    DW_AT_name         DW_FORM_string
    DW_AT_decl_file    DW_FORM_data1
    DW_AT_decl_line    DW_FORM_data1
    DW_AT_decl_column  DW_FORM_data1
    DW_AT_type         DW_FORM_ref4
    DW_AT_byte_size    DW_FORM_data1
    DW_AT_bit_size     DW_FORM_data1
    DW_AT_bit_offset   DW_FORM_data1
    DW_AT_data_member_location DW_FORM_data1
    DW_AT value: 0     DW_FORM value: 0
   8      DW_TAG_union_type    [has children]
    DW_AT_name         DW_FORM_strp
    DW_AT_byte_size    DW_FORM_data1
    DW_AT_decl_file    DW_FORM_data1
    DW_AT_decl_line    DW_FORM_data1
    DW_AT_decl_column  DW_FORM_data1
    DW_AT_sibling      DW_FORM_ref4
    DW_AT value: 0     DW_FORM value: 0
   9      DW_TAG_member    [no children]
    DW_AT_name         DW_FORM_string
    DW_AT_decl_file    DW_FORM_data1
    DW_AT_decl_line    DW_FORM_data1
    DW_AT_decl_column  DW_FORM_data1
    DW_AT_type         DW_FORM_ref4
    DW_AT value: 0     DW_FORM value: 0
   10      DW_TAG_member    [no children]
    DW_AT_name         DW_FORM_strp
    DW_AT_decl_file    DW_FORM_data1
    DW_AT_decl_line    DW_FORM_data1
    DW_AT_decl_column  DW_FORM_data1
    DW_AT_type         DW_FORM_ref4
    DW_AT value: 0     DW_FORM value: 0
   11      DW_TAG_subprogram    [has children]
    DW_AT_external     DW_FORM_flag_present
    DW_AT_name         DW_FORM_strp
    DW_AT_decl_file    DW_FORM_data1
    DW_AT_decl_line    DW_FORM_data1
    DW_AT_decl_column  DW_FORM_data1
    DW_AT_prototyped   DW_FORM_flag_present
    DW_AT_type         DW_FORM_ref4
    DW_AT_low_pc       DW_FORM_addr
    DW_AT_high_pc      DW_FORM_data4
    DW_AT_frame_base   DW_FORM_exprloc
    DW_AT_GNU_all_call_sites DW_FORM_flag_present
    DW_AT_sibling      DW_FORM_ref4
    DW_AT value: 0     DW_FORM value: 0
   12      DW_TAG_formal_parameter    [no children]
    DW_AT_name         DW_FORM_string
    DW_AT_decl_file    DW_FORM_data1
    DW_AT_decl_line    DW_FORM_data1
    DW_AT_decl_column  DW_FORM_data1
    DW_AT_type         DW_FORM_ref4
    DW_AT_location     DW_FORM_sec_offset
    DW_AT value: 0     DW_FORM value: 0
   13      DW_TAG_variable    [no children]
    DW_AT_name         DW_FORM_strp
    DW_AT_decl_file    DW_FORM_data1
    DW_AT_decl_line    DW_FORM_data1
    DW_AT_decl_column  DW_FORM_data1
    DW_AT_type         DW_FORM_ref4
    DW_AT_location     DW_FORM_sec_offset
    DW_AT value: 0     DW_FORM value: 0
   14      DW_TAG_variable    [no children]
    DW_AT_name         DW_FORM_strp
    DW_AT_decl_file    DW_FORM_data1
    DW_AT_decl_line    DW_FORM_data1
    DW_AT_decl_column  DW_FORM_data1
    DW_AT_type         DW_FORM_ref4
    DW_AT_const_value  DW_FORM_data1
    DW_AT value: 0     DW_FORM value: 0
   15      DW_TAG_variable    [no children]
    DW_AT_name         DW_FORM_string
    DW_AT_decl_file    DW_FORM_data1
    DW_AT_decl_line    DW_FORM_data1
    DW_AT_decl_column  DW_FORM_data1
    DW_AT_type         DW_FORM_ref4
    DW_AT_location     DW_FORM_sec_offset
    DW_AT value: 0     DW_FORM value: 0
   16      DW_TAG_lexical_block    [has children]
    DW_AT_ranges       DW_FORM_sec_offset
    DW_AT_sibling      DW_FORM_ref4
    DW_AT value: 0     DW_FORM value: 0
   17      DW_TAG_variable    [no children]
    DW_AT_name         DW_FORM_strp
    DW_AT_decl_file    DW_FORM_data1
    DW_AT_decl_line    DW_FORM_data1
    DW_AT_decl_column  DW_FORM_data1
    DW_AT_type         DW_FORM_ref4
    DW_AT value: 0     DW_FORM value: 0
   18      DW_TAG_GNU_call_site    [no children]
    DW_AT_low_pc       DW_FORM_addr
    DW_AT_abstract_origin DW_FORM_ref4
    DW_AT value: 0     DW_FORM value: 0
   19      DW_TAG_lexical_block    [has children]
    DW_AT_ranges       DW_FORM_sec_offset
    DW_AT value: 0     DW_FORM value: 0
   20      DW_TAG_lexical_block    [has children]
    DW_AT value: 0     DW_FORM value: 0
   21      DW_TAG_lexical_block    [has children]
    DW_AT_low_pc       DW_FORM_addr
    DW_AT_high_pc      DW_FORM_data4
    DW_AT value: 0     DW_FORM value: 0
   22      DW_TAG_subprogram    [no children]
    DW_AT_external     DW_FORM_flag_present
    DW_AT_declaration  DW_FORM_flag_present
    DW_AT_linkage_name DW_FORM_strp
    DW_AT_name         DW_FORM_strp
    DW_AT value: 0     DW_FORM value: 0
  Number TAG (0x2ad)
   1      DW_TAG_compile_unit    [has children]
    DW_AT_producer     DW_FORM_strp
    DW_AT_language     DW_FORM_data1
    DW_AT_name         DW_FORM_strp
    DW_AT_comp_dir     DW_FORM_strp
    DW_AT_low_pc       DW_FORM_addr
    DW_AT_high_pc      DW_FORM_data4
    DW_AT_stmt_list    DW_FORM_sec_offset
    DW_AT value: 0     DW_FORM value: 0
   2      DW_TAG_base_type    [no children]
    DW_AT_byte_size    DW_FORM_data1
    DW_AT_encoding     DW_FORM_data1
    DW_AT_name         DW_FORM_strp
    DW_AT value: 0     DW_FORM value: 0
   3      DW_TAG_base_type    [no children]
    DW_AT_byte_size    DW_FORM_data1
    DW_AT_encoding     DW_FORM_data1
    DW_AT_name         DW_FORM_string
    DW_AT value: 0     DW_FORM value: 0
   4      DW_TAG_typedef    [no children]
    DW_AT_name         DW_FORM_strp
    DW_AT_decl_file    DW_FORM_data1
    DW_AT_decl_line    DW_FORM_data2
    DW_AT_decl_column  DW_FORM_data1
    DW_AT_type         DW_FORM_ref4
    DW_AT value: 0     DW_FORM value: 0
   5      DW_TAG_typedef    [no children]
    DW_AT_name         DW_FORM_strp
    DW_AT_decl_file    DW_FORM_data1
    DW_AT_decl_line    DW_FORM_data1
    DW_AT_decl_column  DW_FORM_data1
    DW_AT_type         DW_FORM_ref4
    DW_AT value: 0     DW_FORM value: 0
   6      DW_TAG_structure_type    [has children]
    DW_AT_byte_size    DW_FORM_data1
    DW_AT_decl_file    DW_FORM_data1
    DW_AT_decl_line    DW_FORM_data1
    DW_AT_decl_column  DW_FORM_data1
    DW_AT_sibling      DW_FORM_ref4
    DW_AT value: 0     DW_FORM value: 0
   7      DW_TAG_member    [no children]
    DW_AT_name         DW_FORM_strp
    DW_AT_decl_file    DW_FORM_data1
    DW_AT_decl_line    DW_FORM_data1
    DW_AT_decl_column  DW_FORM_data1
    DW_AT_type         DW_FORM_ref4
    DW_AT_byte_size    DW_FORM_data1
    DW_AT_bit_size     DW_FORM_data1
    DW_AT_bit_offset   DW_FORM_data1
    DW_AT_data_member_location DW_FORM_data1
    DW_AT value: 0     DW_FORM value: 0
   8      DW_TAG_member    [no children]
    DW_AT_name         DW_FORM_string
    DW_AT_decl_file    DW_FORM_data1
    DW_AT_decl_line    DW_FORM_data1
    DW_AT_decl_column  DW_FORM_data1
    DW_AT_type         DW_FORM_ref4
    DW_AT_byte_size    DW_FORM_data1
    DW_AT_bit_size     DW_FORM_data1
    DW_AT_bit_offset   DW_FORM_data1
    DW_AT_data_member_location DW_FORM_data1
    DW_AT value: 0     DW_FORM value: 0
   9      DW_TAG_union_type    [has children]
    DW_AT_name         DW_FORM_strp
    DW_AT_byte_size    DW_FORM_data1
    DW_AT_decl_file    DW_FORM_data1
    DW_AT_decl_line    DW_FORM_data1
    DW_AT_decl_column  DW_FORM_data1
    DW_AT_sibling      DW_FORM_ref4
    DW_AT value: 0     DW_FORM value: 0
   10      DW_TAG_member    [no children]
    DW_AT_name         DW_FORM_string
    DW_AT_decl_file    DW_FORM_data1
    DW_AT_decl_line    DW_FORM_data1
    DW_AT_decl_column  DW_FORM_data1
    DW_AT_type         DW_FORM_ref4
    DW_AT value: 0     DW_FORM value: 0
   11      DW_TAG_member    [no children]
    DW_AT_name         DW_FORM_strp
    DW_AT_decl_file    DW_FORM_data1
    DW_AT_decl_line    DW_FORM_data1
    DW_AT_decl_column  DW_FORM_data1
    DW_AT_type         DW_FORM_ref4
    DW_AT value: 0     DW_FORM value: 0
   12      DW_TAG_subprogram    [has children]
    DW_AT_external     DW_FORM_flag_present
    DW_AT_name         DW_FORM_strp
    DW_AT_decl_file    DW_FORM_data1
    DW_AT_decl_line    DW_FORM_data1
    DW_AT_decl_column  DW_FORM_data1
    DW_AT_prototyped   DW_FORM_flag_present
    DW_AT_type         DW_FORM_ref4
    DW_AT_low_pc       DW_FORM_addr
    DW_AT_high_pc      DW_FORM_data4
    DW_AT_frame_base   DW_FORM_exprloc
    DW_AT_GNU_all_call_sites DW_FORM_flag_present
    DW_AT_sibling      DW_FORM_ref4
    DW_AT value: 0     DW_FORM value: 0
   13      DW_TAG_formal_parameter    [no children]
    DW_AT_name         DW_FORM_string
    DW_AT_decl_file    DW_FORM_data1
    DW_AT_decl_line    DW_FORM_data1
    DW_AT_decl_column  DW_FORM_data1
    DW_AT_type         DW_FORM_ref4
    DW_AT_location     DW_FORM_sec_offset
    DW_AT value: 0     DW_FORM value: 0
   14      DW_TAG_variable    [no children]
    DW_AT_name         DW_FORM_strp
    DW_AT_decl_file    DW_FORM_data1
    DW_AT_decl_line    DW_FORM_data1
    DW_AT_decl_column  DW_FORM_data1
    DW_AT_type         DW_FORM_ref4
    DW_AT_location     DW_FORM_sec_offset
    DW_AT value: 0     DW_FORM value: 0
   15      DW_TAG_variable    [no children]
    DW_AT_name         DW_FORM_strp
    DW_AT_decl_file    DW_FORM_data1
    DW_AT_decl_line    DW_FORM_data1
    DW_AT_decl_column  DW_FORM_data1
    DW_AT_type         DW_FORM_ref4
    DW_AT_const_value  DW_FORM_data1
    DW_AT value: 0     DW_FORM value: 0
   16      DW_TAG_variable    [no children]
    DW_AT_name         DW_FORM_string
    DW_AT_decl_file    DW_FORM_data1
    DW_AT_decl_line    DW_FORM_data1
    DW_AT_decl_column  DW_FORM_data1
    DW_AT_type         DW_FORM_ref4
    DW_AT_location     DW_FORM_sec_offset
    DW_AT value: 0     DW_FORM value: 0
   17      DW_TAG_lexical_block    [has children]
    DW_AT_ranges       DW_FORM_sec_offset
    DW_AT_sibling      DW_FORM_ref4
    DW_AT value: 0     DW_FORM value: 0
   18      DW_TAG_variable    [no children]
    DW_AT_name         DW_FORM_strp
    DW_AT_decl_file    DW_FORM_data1
    DW_AT_decl_line    DW_FORM_data1
    DW_AT_decl_column  DW_FORM_data1
    DW_AT_type         DW_FORM_ref4
    DW_AT value: 0     DW_FORM value: 0
   19      DW_TAG_GNU_call_site    [no children]
    DW_AT_low_pc       DW_FORM_addr
    DW_AT_abstract_origin DW_FORM_ref4
    DW_AT value: 0     DW_FORM value: 0
   20      DW_TAG_lexical_block    [has children]
    DW_AT_low_pc       DW_FORM_addr
    DW_AT_high_pc      DW_FORM_data4
    DW_AT_sibling      DW_FORM_ref4
    DW_AT value: 0     DW_FORM value: 0
   21      DW_TAG_lexical_block    [has children]
    DW_AT_ranges       DW_FORM_sec_offset
    DW_AT value: 0     DW_FORM value: 0
   22      DW_TAG_variable    [no children]
    DW_AT_name         DW_FORM_strp
    DW_AT_decl_file    DW_FORM_data1
    DW_AT_decl_line    DW_FORM_data1
    DW_AT_decl_column  DW_FORM_data1
    DW_AT_type         DW_FORM_ref4
    DW_AT_location     DW_FORM_exprloc
    DW_AT value: 0     DW_FORM value: 0
   23      DW_TAG_lexical_block    [has children]
    DW_AT_low_pc       DW_FORM_addr
    DW_AT_high_pc      DW_FORM_data4
    DW_AT value: 0     DW_FORM value: 0
   24      DW_TAG_lexical_block    [has children]
    DW_AT value: 0     DW_FORM value: 0
   25      DW_TAG_subprogram    [no children]
    DW_AT_external     DW_FORM_flag_present
    DW_AT_declaration  DW_FORM_flag_present
    DW_AT_linkage_name DW_FORM_strp
    DW_AT_name         DW_FORM_strp
    DW_AT value: 0     DW_FORM value: 0
  Number TAG (0x424)
   1      DW_TAG_compile_unit    [no children]
    DW_AT_stmt_list    DW_FORM_data4
    DW_AT_low_pc       DW_FORM_addr
    DW_AT_high_pc      DW_FORM_addr
    DW_AT_name         DW_FORM_strp
    DW_AT_comp_dir     DW_FORM_strp
    DW_AT_producer     DW_FORM_strp
    DW_AT_language     DW_FORM_data2
    DW_AT value: 0     DW_FORM value: 0
  Number TAG (0x438)
   1      DW_TAG_compile_unit    [no children]
    DW_AT_stmt_list    DW_FORM_data4
    DW_AT_low_pc       DW_FORM_addr
    DW_AT_high_pc      DW_FORM_addr
    DW_AT_name         DW_FORM_strp
    DW_AT_comp_dir     DW_FORM_strp
    DW_AT_producer     DW_FORM_strp
    DW_AT_language     DW_FORM_data2
    DW_AT value: 0     DW_FORM value: 0
  Number TAG (0x44c)
   1      DW_TAG_compile_unit    [has children]
    DW_AT_producer     DW_FORM_strp
    DW_AT_language     DW_FORM_data1
    DW_AT_name         DW_FORM_strp
    DW_AT_comp_dir     DW_FORM_strp
    DW_AT_low_pc       DW_FORM_addr
    DW_AT_high_pc      DW_FORM_data4
    DW_AT_stmt_list    DW_FORM_sec_offset
    DW_AT value: 0     DW_FORM value: 0
   2      DW_TAG_base_type    [no children]
    DW_AT_byte_size    DW_FORM_data1
    DW_AT_encoding     DW_FORM_data1
    DW_AT_name         DW_FORM_string
    DW_AT value: 0     DW_FORM value: 0
   3      DW_TAG_base_type    [no children]
    DW_AT_byte_size    DW_FORM_data1
    DW_AT_encoding     DW_FORM_data1
    DW_AT_name         DW_FORM_strp
    DW_AT value: 0     DW_FORM value: 0
   4      DW_TAG_typedef    [no children]
    DW_AT_name         DW_FORM_strp
    DW_AT_decl_file    DW_FORM_data1
    DW_AT_decl_line    DW_FORM_data1
    DW_AT_decl_column  DW_FORM_data1
    DW_AT_type         DW_FORM_ref4
    DW_AT value: 0     DW_FORM value: 0
   5      DW_TAG_const_type    [no children]
    DW_AT_type         DW_FORM_ref4
    DW_AT value: 0     DW_FORM value: 0
   6      DW_TAG_array_type    [has children]
    DW_AT_type         DW_FORM_ref4
    DW_AT_sibling      DW_FORM_ref4
    DW_AT value: 0     DW_FORM value: 0
   7      DW_TAG_subrange_type    [no children]
    DW_AT_type         DW_FORM_ref4
    DW_AT_upper_bound  DW_FORM_data1
    DW_AT value: 0     DW_FORM value: 0
   8      DW_TAG_variable    [no children]
    DW_AT_name         DW_FORM_strp
    DW_AT_decl_file    DW_FORM_data1
    DW_AT_decl_line    DW_FORM_data2
    DW_AT_decl_column  DW_FORM_data1
    DW_AT_type         DW_FORM_ref4
    DW_AT_external     DW_FORM_flag_present
    DW_AT_declaration  DW_FORM_flag_present
    DW_AT value: 0     DW_FORM value: 0
   9      DW_TAG_subprogram    [has children]
    DW_AT_external     DW_FORM_flag_present
    DW_AT_name         DW_FORM_strp
    DW_AT_decl_file    DW_FORM_data1
    DW_AT_decl_line    DW_FORM_data2
    DW_AT_decl_column  DW_FORM_data1
    DW_AT_prototyped   DW_FORM_flag_present
    DW_AT_type         DW_FORM_ref4
    DW_AT_low_pc       DW_FORM_addr
    DW_AT_high_pc      DW_FORM_data4
    DW_AT_frame_base   DW_FORM_exprloc
    DW_AT_GNU_all_call_sites DW_FORM_flag_present
    DW_AT value: 0     DW_FORM value: 0
   10      DW_TAG_formal_parameter    [no children]
    DW_AT_name         DW_FORM_string
    DW_AT_decl_file    DW_FORM_data1
    DW_AT_decl_line    DW_FORM_data2
    DW_AT_decl_column  DW_FORM_data1
    DW_AT_type         DW_FORM_ref4
    DW_AT_location     DW_FORM_sec_offset
    DW_AT value: 0     DW_FORM value: 0
   11      DW_TAG_variable    [no children]
    DW_AT_name         DW_FORM_string
    DW_AT_decl_file    DW_FORM_data1
    DW_AT_decl_line    DW_FORM_data2
    DW_AT_decl_column  DW_FORM_data1
    DW_AT_type         DW_FORM_ref4
    DW_AT value: 0     DW_FORM value: 0
   12      DW_TAG_lexical_block    [has children]
    DW_AT_ranges       DW_FORM_sec_offset
    DW_AT value: 0     DW_FORM value: 0
   13      DW_TAG_variable    [no children]
    DW_AT_name         DW_FORM_strp
    DW_AT_decl_file    DW_FORM_data1
    DW_AT_decl_line    DW_FORM_data2
    DW_AT_decl_column  DW_FORM_data1
    DW_AT_type         DW_FORM_ref4
    DW_AT_location     DW_FORM_sec_offset
    DW_AT value: 0     DW_FORM value: 0
   14      DW_TAG_variable    [no children]
    DW_AT_name         DW_FORM_string
    DW_AT_decl_file    DW_FORM_data1
    DW_AT_decl_line    DW_FORM_data2
    DW_AT_decl_column  DW_FORM_data1
    DW_AT_type         DW_FORM_ref4
    DW_AT_location     DW_FORM_sec_offset
    DW_AT value: 0     DW_FORM value: 0
  Number TAG (0x516)
   1      DW_TAG_compile_unit    [has children]
    DW_AT_producer     DW_FORM_strp
    DW_AT_language     DW_FORM_data1
    DW_AT_name         DW_FORM_strp
    DW_AT_comp_dir     DW_FORM_strp
    DW_AT_stmt_list    DW_FORM_sec_offset
    DW_AT value: 0     DW_FORM value: 0
   2      DW_TAG_base_type    [no children]
    DW_AT_byte_size    DW_FORM_data1
    DW_AT_encoding     DW_FORM_data1
    DW_AT_name         DW_FORM_string
    DW_AT value: 0     DW_FORM value: 0
   3      DW_TAG_base_type    [no children]
    DW_AT_byte_size    DW_FORM_data1
    DW_AT_encoding     DW_FORM_data1
    DW_AT_name         DW_FORM_strp
    DW_AT value: 0     DW_FORM value: 0
   4      DW_TAG_typedef    [no children]
    DW_AT_name         DW_FORM_strp
    DW_AT_decl_file    DW_FORM_data1
    DW_AT_decl_line    DW_FORM_data1
    DW_AT_decl_column  DW_FORM_data1
    DW_AT_type         DW_FORM_ref4
    DW_AT value: 0     DW_FORM value: 0
   5      DW_TAG_const_type    [no children]
    DW_AT_type         DW_FORM_ref4
    DW_AT value: 0     DW_FORM value: 0
   6      DW_TAG_array_type    [has children]
    DW_AT_type         DW_FORM_ref4
    DW_AT_sibling      DW_FORM_ref4
    DW_AT value: 0     DW_FORM value: 0
   7      DW_TAG_subrange_type    [no children]
    DW_AT_type         DW_FORM_ref4
    DW_AT_upper_bound  DW_FORM_data1
    DW_AT value: 0     DW_FORM value: 0
   8      DW_TAG_variable    [no children]
    DW_AT_name         DW_FORM_strp
    DW_AT_decl_file    DW_FORM_data1
    DW_AT_decl_line    DW_FORM_data2
    DW_AT_decl_column  DW_FORM_data1
    DW_AT_type         DW_FORM_ref4
    DW_AT_external     DW_FORM_flag_present
    DW_AT_declaration  DW_FORM_flag_present
    DW_AT value: 0     DW_FORM value: 0
   9      DW_TAG_variable    [no children]
    DW_AT_specification DW_FORM_ref4
    DW_AT_decl_file    DW_FORM_data1
    DW_AT_decl_line    DW_FORM_data2
    DW_AT_decl_column  DW_FORM_data1
    DW_AT_location     DW_FORM_exprloc
    DW_AT value: 0     DW_FORM value: 0

Contents of the .debug_loc section (loaded from FP_test_rv32i.elf):

    Offset   Begin            End              Expression
    00000000 00000164 00000188 (DW_OP_reg10 (a0))
    0000000b 00000188 000005c0 (DW_OP_GNU_entry_value: (DW_OP_GNU_regval_type: 10 (a0) <0x25>); DW_OP_stack_value)
    0000001b <End of list>
    00000023 00000164 000001a0 (DW_OP_reg11 (a1))
    0000002e 000001a0 000005c0 (DW_OP_GNU_entry_value: (DW_OP_GNU_regval_type: 11 (a1) <0x25>); DW_OP_stack_value)
    0000003e <End of list>
    00000046 00000164 000001d8 (DW_OP_lit0; DW_OP_stack_value)
    00000052 000001e0 00000270 (DW_OP_lit0; DW_OP_stack_value)
    0000005e 00000278 000002f4 (DW_OP_lit0; DW_OP_stack_value)
    0000006a 00000328 00000490 (DW_OP_lit0; DW_OP_stack_value)
    00000076 000004a4 00000538 (DW_OP_lit0; DW_OP_stack_value)
    00000082 000005ac 000005b8 (DW_OP_lit0; DW_OP_stack_value)
    0000008e <End of list>
    00000096 00000190 000001d8 (DW_OP_reg9 (s1))
    000000a1 000001e0 000002f4 (DW_OP_reg9 (s1))
    000000ac 00000310 0000031c (DW_OP_reg9 (s1))
    000000b7 00000328 00000358 (DW_OP_reg9 (s1))
    000000c2 00000360 00000390 (DW_OP_reg9 (s1))
    000000cd 000003a8 000003e0 (DW_OP_reg9 (s1))
    000000d8 000003e4 0000043c (DW_OP_reg9 (s1))
    000000e3 00000440 00000458 (DW_OP_reg9 (s1))
    000000ee 00000468 000004a0 (DW_OP_reg9 (s1))
    000000f9 000004a4 000004bc (DW_OP_reg9 (s1))
    00000104 000004f8 00000508 (DW_OP_reg9 (s1))
    0000010f 00000520 00000538 (DW_OP_reg9 (s1))
    0000011a 000005ac 000005b8 (DW_OP_reg9 (s1))
    00000125 <End of list>
    0000012d 00000190 000001cc (DW_OP_reg8 (s0))
    00000138 000001d0 000001dc (DW_OP_reg8 (s0))
    00000143 000001e0 0000021c (DW_OP_reg8 (s0))
    0000014e 00000250 000002b8 (DW_OP_reg8 (s0))
    00000159 000002bc 000002f4 (DW_OP_reg8 (s0))
    00000164 00000310 00000324 (DW_OP_reg8 (s0))
    0000016f 00000328 0000033c (DW_OP_reg8 (s0))
    0000017a 00000340 0000035c (DW_OP_reg8 (s0))
    00000185 00000360 00000390 (DW_OP_reg8 (s0))
    00000190 000003a8 000003f4 (DW_OP_reg8 (s0))
    0000019b 000003f8 00000438 (DW_OP_reg8 (s0))
    000001a6 00000440 00000460 (DW_OP_reg8 (s0))
    000001b1 00000468 000004bc (DW_OP_reg8 (s0))
    000001bc 000004f8 00000504 (DW_OP_reg8 (s0))
    000001c7 00000520 00000534 (DW_OP_reg8 (s0))
    000001d2 000005ac 000005b4 (DW_OP_reg8 (s0))
    000001dd <End of list>
    000001e5 00000174 000001c8 (DW_OP_reg15 (a5))
    000001f0 000001d0 000001d8 (DW_OP_reg15 (a5))
    000001fb 000001e0 0000021c (DW_OP_reg15 (a5))
    00000206 00000250 00000274 (DW_OP_reg15 (a5))
    00000211 00000278 000002a8 (DW_OP_reg15 (a5))
    0000021c 000002b0 000002bc (DW_OP_reg13 (a3))
    00000227 000002bc 000002d8 (DW_OP_reg15 (a5))
    00000232 00000310 00000320 (DW_OP_reg15 (a5))
    0000023d 00000328 00000334 (DW_OP_reg15 (a5))
    00000248 00000340 00000358 (DW_OP_reg15 (a5))
    00000253 00000360 00000390 (DW_OP_reg15 (a5))
    0000025e 000003a8 000003dc (DW_OP_reg15 (a5))
    00000269 000003e4 000003f0 (DW_OP_reg15 (a5))
    00000274 000003f8 00000428 (DW_OP_reg15 (a5))
    0000027f 00000430 00000440 (DW_OP_reg13 (a3))
    0000028a 00000440 00000460 (DW_OP_reg15 (a5))
    00000295 00000468 0000047c (DW_OP_reg15 (a5))
    000002a0 00000490 0000049c (DW_OP_reg15 (a5))
    000002ab 000004a4 000004bc (DW_OP_reg15 (a5))
    000002b6 000004f8 00000500 (DW_OP_reg15 (a5))
    000002c1 00000520 00000524 (DW_OP_reg15 (a5))
    000002cc 00000528 0000052c (DW_OP_reg15 (a5))
    000002d7 00000530 00000534 (DW_OP_reg15 (a5))
    000002e2 000005ac 000005b0 (DW_OP_reg15 (a5))
    000002ed <End of list>
    000002f5 000001a4 000001d4 (DW_OP_reg11 (a1))
    00000300 000001e0 000001f4 (DW_OP_reg11 (a1))
    0000030b 00000250 0000026c (DW_OP_reg11 (a1))
    00000316 00000278 0000028c (DW_OP_reg11 (a1))
    00000321 000002bc 000002f4 (DW_OP_reg11 (a1))
    0000032c 00000310 00000364 (DW_OP_reg11 (a1))
    00000337 000003a8 000004bc (DW_OP_reg11 (a1))
    00000342 000004f8 0000050c (DW_OP_reg11 (a1))
    0000034d 00000520 00000534 (DW_OP_reg11 (a1))
    00000358 000005ac 000005b8 (DW_OP_reg11 (a1))
    00000363 <End of list>
    0000036b 000001a4 000002f4 (DW_OP_reg10 (a0))
    00000376 00000310 000004c0 (DW_OP_reg10 (a0))
    00000381 000004f8 0000050c (DW_OP_reg10 (a0))
    0000038c 00000520 00000538 (DW_OP_reg10 (a0))
    00000397 000005ac 000005b8 (DW_OP_reg10 (a0))
    000003a2 <End of list>
    000003aa 000001a4 00000210 (DW_OP_reg14 (a4))
    000003b5 00000218 0000021c (DW_OP_reg13 (a3))
    000003c0 00000250 000002dc (DW_OP_reg14 (a4))
    000003cb 00000310 00000384 (DW_OP_reg14 (a4))
    000003d6 0000038c 00000390 (DW_OP_reg13 (a3))
    000003e1 000003a8 000004bc (DW_OP_reg14 (a4))
    000003ec 000004f8 0000050c (DW_OP_reg14 (a4))
    000003f7 00000520 00000534 (DW_OP_reg14 (a4))
    00000402 000005ac 000005b8 (DW_OP_reg14 (a4))
    0000040d <End of list>
    00000415 000001b0 000001d8 (DW_OP_reg9 (s1))
    00000420 000001e0 00000314 (DW_OP_reg9 (s1))
    0000042b 00000328 00000340 (DW_OP_reg9 (s1))
    00000436 00000344 000003c0 (DW_OP_reg9 (s1))
    00000441 000003c8 00000440 (DW_OP_reg11 (a1))
    0000044c 00000470 00000490 (DW_OP_reg9 (s1))
    00000457 000004a8 000004b8 (DW_OP_reg9 (s1))
    00000462 000004b8 000004bc (DW_OP_reg11 (a1))
    0000046d 000004bc 00000508 (DW_OP_reg9 (s1))
    00000478 0000050c 00000538 (DW_OP_reg9 (s1))
    00000483 00000574 000005a0 (DW_OP_reg9 (s1))
    0000048e 000005ac 000005b8 (DW_OP_reg11 (a1))
    00000499 <End of list>
    000004a1 000001b4 000001c4 (DW_OP_reg8 (s0))
    000004ac 000001d0 000001d8 (DW_OP_reg8 (s0))
    000004b7 000001e0 00000250 (DW_OP_reg8 (s0))
    000004c2 00000258 00000270 (DW_OP_reg10 (a0))
    000004cd 00000278 000002bc (DW_OP_reg10 (a0))
    000004d8 000002cc 000002f0 (DW_OP_lit0; DW_OP_stack_value)
    000004e4 000002f0 000002f4 (DW_OP_lit1; DW_OP_stack_value)
    000004f0 000002f4 00000310 (DW_OP_reg8 (s0))
    000004fb 00000310 00000328 (DW_OP_const1u: 255; DW_OP_stack_value)
    00000508 00000328 00000338 (DW_OP_reg13 (a3))
    00000513 00000344 00000358 (DW_OP_reg8 (s0))
    0000051e 00000360 000003c0 (DW_OP_reg8 (s0))
    00000529 000003c8 00000440 (DW_OP_reg10 (a0))
    00000534 00000450 00000460 (DW_OP_lit0; DW_OP_stack_value)
    00000540 00000468 00000490 (DW_OP_lit0; DW_OP_stack_value)
    0000054c 00000490 000004a4 (DW_OP_const1u: 255; DW_OP_stack_value)
    00000559 000004a4 000004dc (DW_OP_reg8 (s0))
    00000564 000004f0 000004f8 (DW_OP_lit0; DW_OP_stack_value)
    00000570 000004f8 00000504 (DW_OP_reg8 (s0))
    0000057b 0000050c 00000520 (DW_OP_reg8 (s0))
    00000586 00000520 00000528 (DW_OP_reg10 (a0))
    00000591 00000528 00000530 (DW_OP_lit0; DW_OP_stack_value)
    0000059d 00000530 00000534 (DW_OP_reg13 (a3))
    000005a8 00000548 00000568 (DW_OP_reg8 (s0))
    000005b3 00000568 00000574 (DW_OP_const1u: 255; DW_OP_stack_value)
    000005c0 000005ac 000005b8 (DW_OP_reg10 (a0))
    000005cb 000005b8 000005c0 (DW_OP_reg8 (s0))
    000005d6 <End of list>
    000005de 000001c8 000001d0 (DW_OP_reg15 (a5))
    000005e9 0000021c 00000228 (DW_OP_reg15 (a5))
    000005f4 00000228 0000022c (DW_OP_breg15 (a5): 0; DW_OP_consts: -67108865; DW_OP_and; DW_OP_stack_value)
    00000607 0000022c 0000023c (DW_OP_breg15 (a5): 0; DW_OP_lit1; DW_OP_shr; DW_OP_const4u: 2113929215; DW_OP_and; DW_OP_breg15 (a5): 0; DW_OP_lit1; DW_OP_and; DW_OP_or; DW_OP_stack_value)
    00000621 0000023c 00000244 (DW_OP_breg15 (a5): 0; DW_OP_lit1; DW_OP_shr; DW_OP_const4u: 2113929215; DW_OP_and; DW_OP_breg13 (a3): 0; DW_OP_or; DW_OP_stack_value)
    00000639 00000244 00000248 (DW_OP_breg15 (a5): 0; DW_OP_const4u: 2113929215; DW_OP_and; DW_OP_breg13 (a3): 0; DW_OP_or; DW_OP_stack_value)
    0000064f 000002b4 000002bc (DW_OP_reg15 (a5))
    0000065a 000002d8 00000310 (DW_OP_reg15 (a5))
    00000665 00000328 00000334 (DW_OP_breg15 (a5): 0; DW_OP_breg14 (a4): 0; DW_OP_plus; DW_OP_lit1; DW_OP_shr; DW_OP_stack_value)
    00000677 00000334 00000338 (DW_OP_breg15 (a5): 0; DW_OP_lit1; DW_OP_shr; DW_OP_stack_value)
    00000686 00000358 00000360 (DW_OP_reg15 (a5))
    00000691 00000390 000003a4 (DW_OP_reg15 (a5))
    0000069c 000003a4 000003a8 (DW_OP_reg18 (s2))
    000006a7 000003dc 000003e4 (DW_OP_reg15 (a5))
    000006b2 00000434 00000440 (DW_OP_reg15 (a5))
    000006bd 00000454 00000460 (DW_OP_reg14 (a4))
    000006c8 00000470 00000490 (DW_OP_reg13 (a3))
    000006d3 000004a8 000004e8 (DW_OP_reg18 (s2))
    000006de 000004f0 000004f8 (DW_OP_reg15 (a5))
    000006e9 000004f8 00000504 (DW_OP_reg18 (s2))
    000006f4 0000050c 0000051c (DW_OP_reg18 (s2))
    000006ff 0000051c 00000520 (DW_OP_reg15 (a5))
    0000070a 00000530 00000534 (DW_OP_breg15 (a5): 0; DW_OP_breg14 (a4): 0; DW_OP_plus; DW_OP_lit1; DW_OP_shr; DW_OP_stack_value)
    0000071c 00000538 00000544 (DW_OP_reg15 (a5))
    00000727 00000544 0000055c (DW_OP_breg15 (a5): 0; DW_OP_consts: -67108865; DW_OP_and; DW_OP_stack_value)
    0000073a 0000055c 00000570 (DW_OP_reg15 (a5))
    00000745 00000574 00000580 (DW_OP_reg15 (a5))
    00000750 000005b8 000005bc (DW_OP_breg15 (a5): 0; DW_OP_consts: -67108865; DW_OP_and; DW_OP_stack_value)
    00000763 <End of list>
    0000076b 00000598 000005a4 (DW_OP_breg15 (a5): 0; DW_OP_breg10 (a0): 0; DW_OP_or; DW_OP_GNU_reinterpret <0x25>; DW_OP_stack_value)
    0000077d 000005a4 000005ac (DW_OP_reg10 (a0))
    00000788 <End of list>
    00000790 000001b0 000001c0 (DW_OP_reg13 (a3))
    0000079b 000001c0 000001d8 (DW_OP_reg12 (a2))
    000007a6 000001e0 000001f4 (DW_OP_reg13 (a3))
    000007b1 000001f4 00000250 (DW_OP_reg12 (a2))
    000007bc 00000250 00000264 (DW_OP_reg13 (a3))
    000007c7 00000264 00000270 (DW_OP_reg12 (a2))
    000007d2 00000278 0000028c (DW_OP_reg13 (a3))
    000007dd 0000028c 000002bc (DW_OP_reg12 (a2))
    000007e8 000002bc 000002c0 (DW_OP_reg13 (a3))
    000007f3 000002c0 000002f4 (DW_OP_breg8 (s0): 0; DW_OP_breg10 (a0): 0; DW_OP_minus; DW_OP_stack_value)
    00000803 00000310 00000314 (DW_OP_breg8 (s0): 0; DW_OP_breg10 (a0): 0; DW_OP_minus; DW_OP_stack_value)
    00000813 00000328 00000338 (DW_OP_breg8 (s0): 0; DW_OP_breg10 (a0): 0; DW_OP_minus; DW_OP_stack_value)
    00000823 00000520 00000528 (DW_OP_reg13 (a3))
    0000082e 00000528 00000534 (DW_OP_breg8 (s0): 0; DW_OP_breg10 (a0): 0; DW_OP_minus; DW_OP_stack_value)
    0000083e <End of list>
    00000846 00000340 00000350 (DW_OP_breg8 (s0): 0; DW_OP_breg10 (a0): 0; DW_OP_minus; DW_OP_stack_value)
    00000856 00000350 000003a8 (DW_OP_reg12 (a2))
    00000861 000003a8 000003c8 (DW_OP_breg8 (s0): 0; DW_OP_breg10 (a0): 0; DW_OP_minus; DW_OP_stack_value)
    00000871 000003c8 000003d4 (DW_OP_reg13 (a3))
    0000087c 000003d4 000003ec (DW_OP_reg12 (a2))
    00000887 000003f8 0000040c (DW_OP_reg13 (a3))
    00000892 0000040c 00000440 (DW_OP_reg12 (a2))
    0000089d 00000440 00000460 (DW_OP_breg8 (s0): 0; DW_OP_breg10 (a0): 0; DW_OP_minus; DW_OP_stack_value)
    000008ad 00000468 000004bc (DW_OP_breg8 (s0): 0; DW_OP_breg10 (a0): 0; DW_OP_minus; DW_OP_stack_value)
    000008bd 000004f8 00000504 (DW_OP_breg8 (s0): 0; DW_OP_breg10 (a0): 0; DW_OP_minus; DW_OP_stack_value)
    000008cd 000005ac 000005b8 (DW_OP_reg13 (a3))
    000008d8 <End of list>
    000008e0 000004c4 000004d4 (DW_OP_reg10 (a0))
    000008eb 000004d8 000004e4 (DW_OP_reg10 (a0))
    000008f6 0000050c 00000520 (DW_OP_reg10 (a0))
    00000901 <End of list>
    00000909 000005c0 00000624 (DW_OP_reg10 (a0))
    00000914 00000624 00000690 (DW_OP_GNU_entry_value: (DW_OP_GNU_regval_type: 10 (a0) <0x361>); DW_OP_stack_value)
    00000924 00000690 00000698 (DW_OP_reg10 (a0))
    0000092f 00000698 000006b0 (DW_OP_GNU_entry_value: (DW_OP_GNU_regval_type: 10 (a0) <0x361>); DW_OP_stack_value)
    0000093f 000006b0 000006d0 (DW_OP_reg10 (a0))
    0000094a 000006d0 00000954 (DW_OP_GNU_entry_value: (DW_OP_GNU_regval_type: 10 (a0) <0x361>); DW_OP_stack_value)
    0000095a <End of list>
    00000962 000005c0 00000624 (DW_OP_reg11 (a1))
    0000096d 00000624 0000063c (DW_OP_reg22 (s6))
    00000978 0000063c 00000690 (DW_OP_GNU_entry_value: (DW_OP_GNU_regval_type: 11 (a1) <0x361>); DW_OP_stack_value)
    00000988 00000690 0000069b (DW_OP_reg11 (a1))
    00000993 0000069b 000006b0 (DW_OP_reg22 (s6))
    0000099e 000006b0 000006d0 (DW_OP_reg11 (a1))
    000009a9 000006d0 00000954 (DW_OP_GNU_entry_value: (DW_OP_GNU_regval_type: 11 (a1) <0x361>); DW_OP_stack_value)
    000009b9 <End of list>
    000009c1 000005c0 00000628 (DW_OP_lit0; DW_OP_stack_value)
    000009cd 00000690 000006d0 (DW_OP_lit0; DW_OP_stack_value)
    000009d9 <End of list>
    000009e1 00000624 00000628 (DW_OP_lit0; DW_OP_stack_value)
    000009ed 00000628 00000690 (DW_OP_reg23 (s7))
    000009f8 000006d0 00000750 (DW_OP_reg23 (s7))
    00000a03 0000088c 000008bc (DW_OP_reg23 (s7))
    00000a0e 000008c8 000008e0 (DW_OP_reg23 (s7))
    00000a19 00000938 00000948 (DW_OP_reg23 (s7))
    00000a24 <End of list>
    00000a2c 00000608 0000076c (DW_OP_breg19 (s3): 0; DW_OP_const1u: 255; DW_OP_and; DW_OP_stack_value)
    00000a3c 0000088c 000008bc (DW_OP_breg19 (s3): 0; DW_OP_const1u: 255; DW_OP_and; DW_OP_stack_value)
    00000a4c 000008c8 000008e0 (DW_OP_breg19 (s3): 0; DW_OP_const1u: 255; DW_OP_and; DW_OP_stack_value)
    00000a5c 00000938 00000948 (DW_OP_breg19 (s3): 0; DW_OP_const1u: 255; DW_OP_and; DW_OP_stack_value)
    00000a6c <End of list>
    00000a74 00000604 00000624 (DW_OP_breg9 (s1): 0; DW_OP_const1u: 255; DW_OP_and; DW_OP_stack_value)
    00000a84 00000624 00000690 (DW_OP_reg9 (s1))
    00000a8f 00000690 000006a4 (DW_OP_breg9 (s1): 0; DW_OP_const1u: 255; DW_OP_and; DW_OP_stack_value)
    00000a9f 000006b0 000006b4 (DW_OP_breg9 (s1): 0; DW_OP_const1u: 255; DW_OP_and; DW_OP_stack_value)
    00000aaf 000006b4 000006c4 (DW_OP_breg10 (a0): 0; DW_OP_lit23; DW_OP_shr; DW_OP_const1u: 255; DW_OP_and; DW_OP_stack_value)
    00000ac1 000006c4 000006c8 (DW_OP_breg9 (s1): 0; DW_OP_const1u: 255; DW_OP_and; DW_OP_stack_value)
    00000ad1 000006c8 000006d0 (DW_OP_breg10 (a0): 0; DW_OP_lit23; DW_OP_shr; DW_OP_const1u: 255; DW_OP_and; DW_OP_stack_value)
    00000ae3 000006d0 00000720 (DW_OP_reg9 (s1))
    00000aee 0000088c 00000890 (DW_OP_reg9 (s1))
    00000af9 00000898 000008bc (DW_OP_reg9 (s1))
    00000b04 000008c8 000008e0 (DW_OP_reg9 (s1))
    00000b0f 00000938 00000948 (DW_OP_reg9 (s1))
    00000b1a <End of list>
    00000b22 00000604 00000614 (DW_OP_reg21 (s5))
    00000b2d 00000614 00000618 (DW_OP_breg21 (s5): 0; DW_OP_lit16; DW_OP_lit19; DW_OP_shl; DW_OP_or; DW_OP_stack_value)
    00000b3e 00000618 00000620 (DW_OP_breg10 (a0): 0; DW_OP_lit9; DW_OP_shl; DW_OP_lit9; DW_OP_shr; DW_OP_lit16; DW_OP_lit19; DW_OP_shl; DW_OP_or; DW_OP_stack_value)
    00000b53 00000620 00000720 (DW_OP_reg21 (s5))
    00000b5e 0000088c 00000894 (DW_OP_reg21 (s5))
    00000b69 00000898 000008bc (DW_OP_reg21 (s5))
    00000b74 000008c8 000008e0 (DW_OP_reg21 (s5))
    00000b7f 00000938 00000948 (DW_OP_reg21 (s5))
    00000b8a <End of list>
    00000b92 00000658 0000065c (DW_OP_lit0; DW_OP_stack_value)
    00000b9e 0000065c 00000690 (DW_OP_reg14 (a4))
    00000ba9 00000710 00000737 (DW_OP_reg14 (a4))
    00000bb4 0000088c 000008a4 (DW_OP_reg14 (a4))
    00000bbf 000008c8 000008dc (DW_OP_reg14 (a4))
    00000bca <End of list>
    00000bd2 0000063c 00000690 (DW_OP_breg22 (s6): 0; DW_OP_const1u: 255; DW_OP_and; DW_OP_stack_value)
    00000be2 000006d0 00000724 (DW_OP_breg22 (s6): 0; DW_OP_const1u: 255; DW_OP_and; DW_OP_stack_value)
    00000bf2 0000088c 000008bc (DW_OP_breg22 (s6): 0; DW_OP_const1u: 255; DW_OP_and; DW_OP_stack_value)
    00000c02 000008c8 000008e0 (DW_OP_breg22 (s6): 0; DW_OP_const1u: 255; DW_OP_and; DW_OP_stack_value)
    00000c12 00000938 00000948 (DW_OP_breg22 (s6): 0; DW_OP_const1u: 255; DW_OP_and; DW_OP_stack_value)
    00000c22 <End of list>
    00000c2a 00000638 00000658 (DW_OP_breg15 (a5): 0; DW_OP_const1u: 255; DW_OP_and; DW_OP_stack_value)
    00000c3a 00000658 00000670 (DW_OP_reg15 (a5))
    00000c45 000006d0 000006db (DW_OP_breg15 (a5): 0; DW_OP_const1u: 255; DW_OP_and; DW_OP_stack_value)
    00000c55 000006f0 000006f4 (DW_OP_breg15 (a5): 0; DW_OP_const1u: 255; DW_OP_and; DW_OP_stack_value)
    00000c65 00000704 00000708 (DW_OP_breg15 (a5): 0; DW_OP_const1u: 255; DW_OP_and; DW_OP_stack_value)
    00000c75 <End of list>
    00000c7d 00000638 00000648 (DW_OP_reg8 (s0))
    00000c88 00000648 0000064c (DW_OP_breg8 (s0): 0; DW_OP_lit16; DW_OP_lit19; DW_OP_shl; DW_OP_or; DW_OP_stack_value)
    00000c99 00000654 00000690 (DW_OP_reg8 (s0))
    00000ca4 000006d0 00000728 (DW_OP_reg8 (s0))
    00000caf 0000088c 000008a0 (DW_OP_reg8 (s0))
    00000cba 000008c8 000008d4 (DW_OP_reg8 (s0))
    00000cc5 <End of list>
    00000ccd 00000710 000007f0 (DW_OP_lit0; DW_OP_stack_value)
    00000cd9 0000088c 00000898 (DW_OP_lit0; DW_OP_stack_value)
    00000ce5 0000089c 000008a4 (DW_OP_reg23 (s7))
    00000cf0 000008a4 000008bc (DW_OP_reg14 (a4))
    00000cfb 000008cc 000008d0 (DW_OP_reg14 (a4))
    00000d06 <End of list>
    00000d0e 00000674 00000690 (DW_OP_reg18 (s2))
    00000d19 00000710 00000868 (DW_OP_reg18 (s2))
    00000d24 0000088c 0000089c (DW_OP_reg18 (s2))
    00000d2f 0000089c 000008a4 (DW_OP_breg19 (s3): 0; DW_OP_const1u: 255; DW_OP_and; DW_OP_stack_value)
    00000d3f 000008a4 000008cc (DW_OP_reg18 (s2))
    00000d4a 000008cc 000008d0 (DW_OP_breg22 (s6): 0; DW_OP_const1u: 255; DW_OP_and; DW_OP_stack_value)
    00000d5a 000008d0 000008d8 (DW_OP_reg18 (s2))
    00000d65 000008d8 000008e0 (DW_OP_breg19 (s3): 0; DW_OP_breg22 (s6): 0; DW_OP_xor; DW_OP_stack_value)
    00000d75 000008e0 00000944 (DW_OP_reg18 (s2))
    00000d80 00000948 00000954 (DW_OP_reg18 (s2))
    00000d8b <End of list>
    00000d93 00000674 00000690 (DW_OP_reg20 (s4))
    00000d9e 00000710 000007f4 (DW_OP_reg20 (s4))
    00000da9 000007f4 00000844 (DW_OP_reg14 (a4))
    00000db4 0000088c 000008bc (DW_OP_reg20 (s4))
    00000dbf 000008c8 000008e0 (DW_OP_reg20 (s4))
    00000dca 000008e0 000008e8 (DW_OP_reg14 (a4))
    00000dd5 000008e8 000008f8 (DW_OP_reg15 (a5))
    00000de0 000008f8 00000934 (DW_OP_const1s: -126; DW_OP_breg20 (s4): 0; DW_OP_minus; DW_OP_stack_value)
    00000df0 00000934 00000938 (DW_OP_breg14 (a4): 0; DW_OP_breg20 (s4): 0; DW_OP_minus; DW_OP_const1u: 127; DW_OP_minus; DW_OP_stack_value)
    00000e03 00000938 00000948 (DW_OP_reg20 (s4))
    00000e0e <End of list>
    00000e16 000007f0 0000082c (DW_OP_reg8 (s0))
    00000e21 0000082c 00000834 (DW_OP_breg8 (s0): 0; DW_OP_lit3; DW_OP_shr; DW_OP_stack_value)
    00000e30 00000834 00000840 (DW_OP_reg8 (s0))
    00000e3b 0000089c 000008a4 (DW_OP_reg21 (s5))
    00000e46 000008a4 000008bc (DW_OP_reg8 (s0))
    00000e51 000008cc 000008d0 (DW_OP_reg8 (s0))
    00000e5c 000008e0 000008fc (DW_OP_reg8 (s0))
    00000e67 00000904 00000928 (DW_OP_reg8 (s0))
    00000e72 <End of list>
    00000e7a 00000854 0000085c (DW_OP_breg8 (s0): 0; DW_OP_breg10 (a0): 0; DW_OP_or; DW_OP_GNU_reinterpret <0x361>; DW_OP_stack_value)
    00000e8c 0000085c 0000088c (DW_OP_reg10 (a0))
    00000e97 <End of list>
    00000e9f 0000069c 000006b0 (DW_OP_breg10 (a0): -8; DW_OP_stack_value)
    00000eac <End of list>
    00000eb4 000006dc 000006f0 (DW_OP_breg10 (a0): -8; DW_OP_stack_value)
    00000ec1 <End of list>
    00000ec9 0000071c 000007a0 (DW_OP_reg21 (s5))
    00000ed4 00000894 00000898 (DW_OP_reg21 (s5))
    00000edf <End of list>
    00000ee7 0000071c 00000720 (DW_OP_lit0; DW_OP_stack_value)
    00000ef3 00000720 000007f0 (DW_OP_reg9 (s1))
    00000efe 00000890 00000898 (DW_OP_reg9 (s1))
    00000f09 <End of list>
    00000f11 000007dc 000007e4 (DW_OP_breg19 (s3): 0; DW_OP_lit16; DW_OP_shl; DW_OP_breg14 (a4): 0; DW_OP_or; DW_OP_stack_value)
    00000f23 000007e8 000007f0 (DW_OP_reg19 (s3))
    00000f2e <End of list>
    00000f36 000007dc 000007e0 (DW_OP_breg15 (a5): 0; DW_OP_breg8 (s0): 0; DW_OP_minus; DW_OP_stack_value)
    00000f46 000007e0 000007ec (DW_OP_reg15 (a5))
    00000f51 <End of list>
    00000f59 00000714 000007f0 (DW_OP_reg25 (s9))
    00000f64 0000088c 00000898 (DW_OP_reg25 (s9))
    00000f6f <End of list>
    00000f77 00000724 000007f0 (DW_OP_reg22 (s6))
    00000f82 <End of list>
    00000f8a 0000073c 000007ac (DW_OP_reg8 (s0))
    00000f95 000007ac 000007f0 (DW_OP_breg25 (s9): 0; DW_OP_const2u: 65535; DW_OP_and; DW_OP_stack_value)
    00000fa6 <End of list>
    00000fae 00000744 00000748 (DW_OP_reg10 (a0))
    00000fb9 00000748 0000074b (DW_OP_reg11 (a1))
    00000fc4 0000074b 00000778 (DW_OP_reg24 (s8))
    00000fcf 00000778 000007e4 (DW_OP_reg19 (s3))
    00000fda <End of list>
    00000fe2 000007a0 000007a4 (DW_OP_reg10 (a0))
    00000fed 000007a4 000007a7 (DW_OP_reg11 (a1))
    00000ff8 000007a7 000007cc (DW_OP_reg21 (s5))
    00001003 000007cc 000007f0 (DW_OP_reg14 (a4))
    0000100e <End of list>
    00001016 0000073c 00000768 (DW_OP_breg21 (s5): 0; DW_OP_breg22 (s6): 0; DW_OP_mod; DW_OP_stack_value)
    00001026 00000768 00000774 (DW_OP_reg15 (a5))
    00001031 00000774 00000778 (DW_OP_breg9 (s1): 0; DW_OP_lit16; DW_OP_shr; DW_OP_breg10 (a0): 0; DW_OP_or; DW_OP_stack_value)
    00001043 00000778 0000078c (DW_OP_reg15 (a5))
    0000104e 0000078c 000007f0 (DW_OP_reg23 (s7))
    00001059 <End of list>
    00001061 0000078c 000007bc (DW_OP_breg23 (s7): 0; DW_OP_breg22 (s6): 0; DW_OP_mod; DW_OP_stack_value)
    00001071 000007bc 000007c8 (DW_OP_reg15 (a5))
    0000107c 000007c8 000007cc (DW_OP_breg10 (a0): 0; DW_OP_lit16; DW_OP_shl; DW_OP_stack_value)
    0000108b 000007cc 000007dc (DW_OP_reg15 (a5))
    00001096 000007dc 000007e0 (DW_OP_breg15 (a5): 0; DW_OP_breg8 (s0): 0; DW_OP_minus; DW_OP_stack_value)
    000010a6 000007e0 000007ec (DW_OP_reg15 (a5))
    000010b1 <End of list>
    000010b9 00000750 00000758 (DW_OP_reg10 (a0))
    000010c4 00000758 0000078c (DW_OP_reg23 (s7))
    000010cf 000007ac 000007f0 (DW_OP_reg8 (s0))
    000010da <End of list>
    000010e2 00000954 000009a8 (DW_OP_reg10 (a0))
    000010ed 000009a8 00000a18 (DW_OP_GNU_entry_value: (DW_OP_GNU_regval_type: 10 (a0) <0x755>); DW_OP_stack_value)
    000010fd 00000a18 00000a20 (DW_OP_reg10 (a0))
    00001108 00000a20 00000a38 (DW_OP_GNU_entry_value: (DW_OP_GNU_regval_type: 10 (a0) <0x755>); DW_OP_stack_value)
    00001118 00000a38 00000a58 (DW_OP_reg10 (a0))
    00001123 00000a58 00000c84 (DW_OP_GNU_entry_value: (DW_OP_GNU_regval_type: 10 (a0) <0x755>); DW_OP_stack_value)
    00001133 <End of list>
    0000113b 00000954 000009a8 (DW_OP_reg11 (a1))
    00001146 000009a8 000009c0 (DW_OP_reg20 (s4))
    00001151 000009c0 00000a18 (DW_OP_GNU_entry_value: (DW_OP_GNU_regval_type: 11 (a1) <0x755>); DW_OP_stack_value)
    00001161 00000a18 00000a23 (DW_OP_reg11 (a1))
    0000116c 00000a23 00000a38 (DW_OP_reg20 (s4))
    00001177 00000a38 00000a58 (DW_OP_reg11 (a1))
    00001182 00000a58 00000c84 (DW_OP_GNU_entry_value: (DW_OP_GNU_regval_type: 11 (a1) <0x755>); DW_OP_stack_value)
    00001192 <End of list>
    0000119a 00000954 000009ac (DW_OP_lit0; DW_OP_stack_value)
    000011a6 00000a18 00000a58 (DW_OP_lit0; DW_OP_stack_value)
    000011b2 <End of list>
    000011ba 000009a8 000009ac (DW_OP_lit0; DW_OP_stack_value)
    000011c6 000009ac 00000a18 (DW_OP_reg21 (s5))
    000011d1 00000a58 00000c7c (DW_OP_reg21 (s5))
    000011dc <End of list>
    000011e4 0000098c 00000c74 (DW_OP_breg19 (s3): 0; DW_OP_const1u: 255; DW_OP_and; DW_OP_stack_value)
    000011f4 <End of list>
    000011fc 00000988 000009a8 (DW_OP_breg18 (s2): 0; DW_OP_const1u: 255; DW_OP_and; DW_OP_stack_value)
    0000120c 000009a8 000009ec (DW_OP_reg18 (s2))
    00001217 00000a18 00000a2c (DW_OP_breg18 (s2): 0; DW_OP_const1u: 255; DW_OP_and; DW_OP_stack_value)
    00001227 00000a38 00000a3c (DW_OP_breg18 (s2): 0; DW_OP_const1u: 255; DW_OP_and; DW_OP_stack_value)
    00001237 00000a3c 00000a4c (DW_OP_breg10 (a0): 0; DW_OP_lit23; DW_OP_shr; DW_OP_const1u: 255; DW_OP_and; DW_OP_stack_value)
    00001249 00000a4c 00000a50 (DW_OP_breg18 (s2): 0; DW_OP_const1u: 255; DW_OP_and; DW_OP_stack_value)
    00001259 00000a50 00000a58 (DW_OP_breg10 (a0): 0; DW_OP_lit23; DW_OP_shr; DW_OP_const1u: 255; DW_OP_and; DW_OP_stack_value)
    0000126b 00000a58 00000a98 (DW_OP_reg18 (s2))
    00001276 <End of list>
    0000127e 00000988 00000998 (DW_OP_reg9 (s1))
    00001289 00000998 0000099c (DW_OP_breg9 (s1): 0; DW_OP_lit16; DW_OP_lit19; DW_OP_shl; DW_OP_or; DW_OP_stack_value)
    0000129a 0000099c 000009a4 (DW_OP_breg10 (a0): 0; DW_OP_lit9; DW_OP_shl; DW_OP_lit9; DW_OP_shr; DW_OP_lit16; DW_OP_lit19; DW_OP_shl; DW_OP_or; DW_OP_stack_value)
    000012af 000009a4 00000aac (DW_OP_reg9 (s1))
    000012ba 00000b9c 00000bc0 (DW_OP_reg9 (s1))
    000012c5 00000bcc 00000bd4 (DW_OP_reg9 (s1))
    000012d0 00000c34 00000c40 (DW_OP_reg9 (s1))
    000012db <End of list>
    000012e3 000009dc 000009e0 (DW_OP_lit0; DW_OP_stack_value)
    000012ef 000009e0 00000a18 (DW_OP_reg15 (a5))
    000012fa 00000a98 00000aa8 (DW_OP_reg15 (a5))
    00001305 00000b9c 00000ba8 (DW_OP_reg15 (a5))
    00001310 00000bcc 00000bd4 (DW_OP_reg15 (a5))
    0000131b <End of list>
    00001323 000009c0 00000a18 (DW_OP_breg20 (s4): 0; DW_OP_const1u: 255; DW_OP_and; DW_OP_stack_value)
    00001333 00000a58 00000c78 (DW_OP_breg20 (s4): 0; DW_OP_const1u: 255; DW_OP_and; DW_OP_stack_value)
    00001343 <End of list>
    0000134b 000009bc 000009dc (DW_OP_breg10 (a0): 0; DW_OP_const1u: 255; DW_OP_and; DW_OP_stack_value)
    0000135b 000009dc 00000a18 (DW_OP_reg10 (a0))
    00001366 00000a58 00000a60 (DW_OP_breg10 (a0): 0; DW_OP_const1u: 255; DW_OP_and; DW_OP_stack_value)
    00001376 00000a78 00000a7c (DW_OP_breg10 (a0): 0; DW_OP_const1u: 255; DW_OP_and; DW_OP_stack_value)
    00001386 00000a8c 00000a90 (DW_OP_breg10 (a0): 0; DW_OP_const1u: 255; DW_OP_and; DW_OP_stack_value)
    00001396 00000a98 00000ab4 (DW_OP_reg10 (a0))
    000013a1 00000b9c 00000bc0 (DW_OP_reg10 (a0))
    000013ac 00000bcc 00000bd4 (DW_OP_reg10 (a0))
    000013b7 00000c34 00000c40 (DW_OP_reg10 (a0))
    000013c2 <End of list>
    000013ca 000009bc 000009cc (DW_OP_reg8 (s0))
    000013d5 000009cc 000009d0 (DW_OP_breg8 (s0): 0; DW_OP_lit16; DW_OP_lit19; DW_OP_shl; DW_OP_or; DW_OP_stack_value)
    000013e6 000009d8 00000a18 (DW_OP_reg8 (s0))
    000013f1 00000a58 00000ab0 (DW_OP_reg8 (s0))
    000013fc 00000b9c 00000ba4 (DW_OP_reg8 (s0))
    00001407 00000bcc 00000bd4 (DW_OP_reg8 (s0))
    00001412 <End of list>
    0000141a 00000a98 00000b48 (DW_OP_lit0; DW_OP_stack_value)
    00001426 00000ba8 00000bc0 (DW_OP_reg15 (a5))
    00001431 00000bd4 00000bdc (DW_OP_lit0; DW_OP_stack_value)
    0000143d <End of list>
    00001445 000009f8 00000a18 (DW_OP_reg16 (a6))
    00001450 00000a98 00000ba0 (DW_OP_reg16 (a6))
    0000145b 00000ba0 00000ba8 (DW_OP_breg19 (s3): 0; DW_OP_const1u: 255; DW_OP_and; DW_OP_stack_value)
    0000146b 00000ba8 00000bd0 (DW_OP_reg16 (a6))
    00001476 00000bd0 00000bd4 (DW_OP_breg20 (s4): 0; DW_OP_const1u: 255; DW_OP_and; DW_OP_stack_value)
    00001486 00000bd4 00000c84 (DW_OP_reg16 (a6))
    00001491 <End of list>
    00001499 000009fc 00000a18 (DW_OP_reg17 (a7))
    000014a4 00000a98 00000b4c (DW_OP_reg17 (a7))
    000014af 00000b4c 00000b90 (DW_OP_reg14 (a4))
    000014ba 00000b9c 00000bc0 (DW_OP_reg17 (a7))
    000014c5 00000bcc 00000bd8 (DW_OP_reg17 (a7))
    000014d0 00000bd8 00000bdc (DW_OP_breg18 (s2): 1; DW_OP_stack_value)
    000014dd 00000bdc 00000be4 (DW_OP_reg14 (a4))
    000014e8 00000be4 00000bf4 (DW_OP_reg15 (a5))
    000014f3 00000bf4 00000c30 (DW_OP_const1u: 32; DW_OP_breg17 (a7): 0; DW_OP_minus; DW_OP_stack_value)
    00001503 00000c30 00000c34 (DW_OP_breg14 (a4): 0; DW_OP_breg17 (a7): 0; DW_OP_minus; DW_OP_plus_uconst: 31; DW_OP_stack_value)
    00001515 00000c34 00000c40 (DW_OP_reg17 (a7))
    00001520 00000c40 00000c4c (DW_OP_reg14 (a4))
    0000152b <End of list>
    00001533 00000b30 00000b44 (DW_OP_reg8 (s0))
    0000153e 00000b48 00000b84 (DW_OP_reg8 (s0))
    00001549 00000b84 00000b8c (DW_OP_breg8 (s0): 0; DW_OP_lit3; DW_OP_shr; DW_OP_stack_value)
    00001558 00000b8c 00000b94 (DW_OP_reg8 (s0))
    00001563 00000ba8 00000bc4 (DW_OP_reg8 (s0))
    0000156e 00000bd4 00000bf8 (DW_OP_reg8 (s0))
    00001579 00000c00 00000c24 (DW_OP_reg8 (s0))
    00001584 00000c40 00000c48 (DW_OP_reg8 (s0))
    0000158f <End of list>
    00001597 00000c5c 00000c64 (DW_OP_breg8 (s0): 0; DW_OP_breg10 (a0): 0; DW_OP_or; DW_OP_GNU_reinterpret <0x755>; DW_OP_stack_value)
    000015a9 00000c64 00000c84 (DW_OP_reg10 (a0))
    000015b4 <End of list>
    000015bc 00000a24 00000a38 (DW_OP_breg10 (a0): -8; DW_OP_stack_value)
    000015c9 <End of list>
    000015d1 00000a64 00000a74 (DW_OP_breg10 (a0): -8; DW_OP_stack_value)
    000015de <End of list>
    000015e6 00000b10 00000b20 (DW_OP_reg14 (a4))
    000015f1 00000b30 00000b44 (DW_OP_reg8 (s0))
    000015fc 00000bd4 00000bdc (DW_OP_reg8 (s0))
    00001607 <End of list>
    0000160f 00000b00 00000b1c (DW_OP_breg15 (a5): 0; DW_OP_lit16; DW_OP_shr; DW_OP_breg10 (a0): 0; DW_OP_plus; DW_OP_stack_value)
    00001621 00000b28 00000b2c (DW_OP_reg8 (s0))
    0000162c <End of list>
    00001634 00000ac0 00000b0c (DW_OP_reg6 (t1))
    0000163f <End of list>
    00001647 00000ad0 00000ad8 (DW_OP_reg10 (a0))
    00001652 00000ad8 00000aec (DW_OP_reg28 (t3))
    0000165d 00000aec 00000af4 (DW_OP_breg6 (t1): 0; DW_OP_lit16; DW_OP_shr; DW_OP_breg28 (t3): 0; DW_OP_plus; DW_OP_stack_value)
    0000166f 00000af8 00000b1c (DW_OP_reg15 (a5))
    0000167a <End of list>
    00001682 00000ae0 00000ae8 (DW_OP_reg10 (a0))
    0000168d 00000ae8 00000b04 (DW_OP_reg14 (a4))
    00001698 <End of list>
    000016a0 00000aec 00000b48 (DW_OP_reg10 (a0))
    000016ab 00000bd4 00000bdc (DW_OP_reg10 (a0))
    000016b6 <End of list>
    000016be 00000a98 00000aac (DW_OP_reg9 (s1))
    000016c9 <End of list>
    000016d1 00000aa4 00000ab0 (DW_OP_reg8 (s0))
    000016dc <End of list>
    000016e4 00000aa4 00000b48 (DW_OP_reg31 (t6))
    000016ef 00000bd4 00000bdc (DW_OP_reg31 (t6))
    000016fa <End of list>
    00001702 00000aa8 00000af0 (DW_OP_reg15 (a5))
    0000170d <End of list>
    00001715 00000d5c 00000d80 (DW_OP_reg10 (a0))
    00001720 00000d80 00000d94 (DW_OP_GNU_entry_value: (DW_OP_reg10 (a0)); DW_OP_stack_value)
    0000172e 00000d94 00000da8 (DW_OP_reg10 (a0))
    00001739 <End of list>
    00001741 00000d5c 00000d80 (DW_OP_reg10 (a0))
    0000174c 00000d80 00000d94 (DW_OP_GNU_entry_value: (DW_OP_reg10 (a0)); DW_OP_stack_value)
    0000175a 00000d94 00000da8 (DW_OP_reg10 (a0))
    00001765 <End of list>
    0000176d 00000d70 00000d84 (DW_OP_reg15 (a5))
    00001778 <End of list>

Contents of the .debug_aranges section (loaded from FP_test_rv32i.elf):

  Length:                   28
  Version:                  2
  Offset into .debug_info:  0x0
  Pointer Size:             4
  Segment Size:             0

    Address    Length
    00000164 0000045c 
    00000000 00000000 
  Length:                   28
  Version:                  2
  Offset into .debug_info:  0x33c
  Pointer Size:             4
  Segment Size:             0

    Address    Length
    000005c0 00000394 
    00000000 00000000 
  Length:                   28
  Version:                  2
  Offset into .debug_info:  0x730
  Pointer Size:             4
  Segment Size:             0

    Address    Length
    00000954 00000330 
    00000000 00000000 
  Length:                   28
  Version:                  2
  Offset into .debug_info:  0xb68
  Pointer Size:             4
  Segment Size:             0

    Address    Length
    00000c84 00000024 
    00000000 00000000 
  Length:                   28
  Version:                  2
  Offset into .debug_info:  0xb8e
  Pointer Size:             4
  Segment Size:             0

    Address    Length
    00000ca8 000000b4 
    00000000 00000000 
  Length:                   28
  Version:                  2
  Offset into .debug_info:  0xbb4
  Pointer Size:             4
  Segment Size:             0

    Address    Length
    00000d5c 0000004c 
    00000000 00000000 
  Length:                   20
  Version:                  2
  Offset into .debug_info:  0xcf8
  Pointer Size:             4
  Segment Size:             0

    Address    Length
    00000000 00000000 

Contents of the .debug_ranges section (loaded from FP_test_rv32i.elf):

    Offset   Begin    End
    00000000 00000164 00000168 
    00000000 0000016c 00000174 
    00000000 0000017c 00000184 
    00000000 0000018c 00000190 
    00000000 <End of list>
    00000028 00000184 0000018c 
    00000028 00000190 00000194 
    00000028 0000019c 000001a0 
    00000028 000001a4 000001a4 (start == end)
    00000028 000001c8 000001cc 
    00000028 000002b4 000002b8 
    00000028 00000358 0000035c 
    00000028 00000434 00000438 
    00000028 <End of list>
    00000070 000001a8 000001ac 
    00000070 000001b0 000001c8 
    00000070 000001cc 000001d8 
    00000070 000001e0 00000270 
    00000070 00000278 000002b4 
    00000070 000002b8 000002f4 
    00000070 00000310 00000314 
    00000070 00000328 00000338 
    00000070 00000530 00000538 
    00000070 <End of list>
    000000c0 000001d8 000001e0 
    000000c0 000002f4 000002f4 (start == end)
    000000c0 00000314 00000328 
    000000c0 00000338 00000358 
    000000c0 0000035c 000003ec 
    000000c0 000003f0 00000434 
    000000c0 00000438 00000520 
    000000c0 000005b0 000005b8 
    000000c0 <End of list>
    00000108 0000039c 000003a8 
    00000108 000004bc 000004f8 
    00000108 0000050c 00000520 
    00000108 <End of list>
    00000128 000002f4 00000310 
    00000128 00000538 00000574 
    00000128 000005b8 000005c0 
    00000128 <End of list>
    00000148 00000574 00000588 
    00000148 0000058c 00000590 
    00000148 00000594 00000598 
    00000148 <End of list>
    00000168 <End of list>
    00000190 00000624 00000628 
    00000190 00000694 000006b0 
    00000190 <End of list>
    000001a8 00000628 0000063c 
    000001a8 000008c8 000008cc 
    000001a8 <End of list>
    000001c0 00000658 0000065c 
    000001c0 000006d4 000006f0 
    000001c0 <End of list>
    000001d8 00000710 000007f0 
    000001d8 0000088c 00000898 
    000001d8 <End of list>
    000001f0 00000720 000007dc 
    000001f0 000007e0 000007e8 
    000001f0 <End of list>
    00000208 000008e0 00000938 
    00000208 00000948 00000954 
    00000208 <End of list>
    00000220 <End of list>
    00000248 000009a8 000009ac 
    00000248 00000a1c 00000a38 
    00000248 <End of list>
    00000260 000009ac 000009c0 
    00000260 00000bcc 00000bd0 
    00000260 <End of list>
    00000278 000009dc 000009e0 
    00000278 00000a5c 00000a78 
    00000278 <End of list>
    00000290 00000a98 00000b10 
    00000290 00000b18 00000b1c 
    00000290 00000b24 00000b28 
    00000290 <End of list>
    000002b0 00000bc0 00000bcc 
    000002b0 00000bdc 00000c34 
    000002b0 <End of list>
    000002c8 00000d5c 00000d70 
    000002c8 00000d70 00000d8c 
    000002c8 00000d94 00000da8 
    000002c8 <End of list>

Raw dump of debug contents of section .debug_line (loaded from FP_test_rv32i.elf):

  Offset:                      0x0
  Length:                      2602
  DWARF Version:               3
  Prologue Length:             79
  Minimum Instruction Length:  1
  Initial value of 'is_stmt':  1
  Line Base:                   -5
  Line Range:                  14
  Opcode Base:                 13

 Opcodes:
  Opcode 1 has 0 args
  Opcode 2 has 1 arg
  Opcode 3 has 1 arg
  Opcode 4 has 1 arg
  Opcode 5 has 1 arg
  Opcode 6 has 0 args
  Opcode 7 has 0 args
  Opcode 8 has 0 args
  Opcode 9 has 1 arg
  Opcode 10 has 0 args
  Opcode 11 has 0 args
  Opcode 12 has 1 arg

 The Directory Table (offset 0x1b):
  1	../../.././riscv-gcc/libgcc/soft-fp

 The File Name Table (offset 0x40):
  Entry	Dir	Time	Size	Name
  1	1	0	0	addsf3.c
  2	1	0	0	single.h

 Line Number Statements:
  [0x00000059]  Set column to 1
  [0x0000005b]  Extended opcode 2: set Address to 0x164
  [0x00000062]  Advance Line by 35 to 36
  [0x00000064]  Copy
  [0x00000065]  Set column to 3
  [0x00000067]  Advance Line by 1 to 37
  [0x00000069]  Advance PC by fixed size amount 0 to 0x164
  [0x0000006c]  Copy (view 1)
  [0x0000006d]  Advance Line by 0 to 37
  [0x0000006f]  Advance PC by fixed size amount 0 to 0x164
  [0x00000072]  Copy (view 2)
  [0x00000073]  Set column to 13
  [0x00000075]  Advance Line by 0 to 37
  [0x00000077]  Advance PC by fixed size amount 0 to 0x164
  [0x0000007a]  Copy (view 3)
  [0x0000007b]  Set column to 3
  [0x0000007d]  Advance Line by 1 to 38
  [0x0000007f]  Advance PC by fixed size amount 0 to 0x164
  [0x00000082]  Copy (view 4)
  [0x00000083]  Advance Line by 0 to 38
  [0x00000085]  Advance PC by fixed size amount 0 to 0x164
  [0x00000088]  Copy (view 5)
  [0x00000089]  Advance Line by 0 to 38
  [0x0000008b]  Advance PC by fixed size amount 0 to 0x164
  [0x0000008e]  Copy (view 6)
  [0x0000008f]  Advance Line by 0 to 38
  [0x00000091]  Advance PC by fixed size amount 0 to 0x164
  [0x00000094]  Copy (view 7)
  [0x00000095]  Advance Line by 1 to 39
  [0x00000097]  Advance PC by fixed size amount 0 to 0x164
  [0x0000009a]  Copy (view 8)
  [0x0000009b]  Advance Line by 0 to 39
  [0x0000009d]  Advance PC by fixed size amount 0 to 0x164
  [0x000000a0]  Copy (view 9)
  [0x000000a1]  Advance Line by 0 to 39
  [0x000000a3]  Advance PC by fixed size amount 0 to 0x164
  [0x000000a6]  Copy (view 10)
  [0x000000a7]  Advance Line by 0 to 39
  [0x000000a9]  Advance PC by fixed size amount 0 to 0x164
  [0x000000ac]  Copy (view 11)
  [0x000000ad]  Advance Line by 1 to 40
  [0x000000af]  Advance PC by fixed size amount 0 to 0x164
  [0x000000b2]  Copy (view 12)
  [0x000000b3]  Advance Line by 0 to 40
  [0x000000b5]  Advance PC by fixed size amount 0 to 0x164
  [0x000000b8]  Copy (view 13)
  [0x000000b9]  Advance Line by 0 to 40
  [0x000000bb]  Advance PC by fixed size amount 0 to 0x164
  [0x000000be]  Copy (view 14)
  [0x000000bf]  Advance Line by 0 to 40
  [0x000000c1]  Advance PC by fixed size amount 0 to 0x164
  [0x000000c4]  Copy (view 15)
  [0x000000c5]  Advance Line by 1 to 41
  [0x000000c7]  Advance PC by fixed size amount 0 to 0x164
  [0x000000ca]  Copy (view 16)
  [0x000000cb]  Advance Line by 2 to 43
  [0x000000cd]  Advance PC by fixed size amount 0 to 0x164
  [0x000000d0]  Copy (view 17)
  [0x000000d1]  Advance Line by 1 to 44
  [0x000000d3]  Advance PC by fixed size amount 0 to 0x164
  [0x000000d6]  Copy (view 18)
  [0x000000d7]  Advance Line by 0 to 44
  [0x000000d9]  Advance PC by fixed size amount 0 to 0x164
  [0x000000dc]  Copy (view 19)
  [0x000000dd]  Advance Line by 0 to 44
  [0x000000df]  Advance PC by fixed size amount 0 to 0x164
  [0x000000e2]  Copy (view 20)
  [0x000000e3]  Advance Line by 0 to 44
  [0x000000e5]  Advance PC by fixed size amount 0 to 0x164
  [0x000000e8]  Copy (view 21)
  [0x000000e9]  Advance Line by 0 to 44
  [0x000000eb]  Advance PC by fixed size amount 0 to 0x164
  [0x000000ee]  Copy (view 22)
  [0x000000ef]  Set column to 1
  [0x000000f1]  Set is_stmt to 0
  [0x000000f2]  Advance Line by -8 to 36
  [0x000000f4]  Advance PC by fixed size amount 4 to 0x168
  [0x000000f7]  Copy (view 23)
  [0x000000f8]  Set column to 3
  [0x000000fa]  Advance Line by 8 to 44
  [0x000000fc]  Advance PC by fixed size amount 4 to 0x16c
  [0x000000ff]  Copy (view 24)
  [0x00000100]  Set is_stmt to 1
  [0x00000101]  Advance Line by 0 to 44
  [0x00000103]  Advance PC by fixed size amount 8 to 0x174
  [0x00000106]  Copy (view 25)
  [0x00000107]  Set column to 1
  [0x00000109]  Set is_stmt to 0
  [0x0000010a]  Advance Line by -8 to 36
  [0x0000010c]  Advance PC by fixed size amount 0 to 0x174
  [0x0000010f]  Copy (view 26)
  [0x00000110]  Set column to 3
  [0x00000112]  Advance Line by 8 to 44
  [0x00000114]  Advance PC by fixed size amount 8 to 0x17c
  [0x00000117]  Copy (view 27)
  [0x00000118]  Advance Line by 1 to 45
  [0x0000011a]  Advance PC by fixed size amount 8 to 0x184
  [0x0000011d]  Copy (view 28)
  [0x0000011e]  Advance Line by -1 to 44
  [0x00000120]  Advance PC by fixed size amount 8 to 0x18c
  [0x00000123]  Copy (view 29)
  [0x00000124]  Set is_stmt to 1
  [0x00000125]  Advance Line by 0 to 44
  [0x00000127]  Advance PC by fixed size amount 4 to 0x190
  [0x0000012a]  Copy (view 30)
  [0x0000012b]  Advance Line by 0 to 44
  [0x0000012d]  Advance PC by fixed size amount 0 to 0x190
  [0x00000130]  Copy (view 31)
  [0x00000131]  Advance Line by 0 to 44
  [0x00000133]  Advance PC by fixed size amount 0 to 0x190
  [0x00000136]  Copy (view 32)
  [0x00000137]  Advance Line by 0 to 44
  [0x00000139]  Advance PC by fixed size amount 0 to 0x190
  [0x0000013c]  Copy (view 33)
  [0x0000013d]  Advance Line by 0 to 44
  [0x0000013f]  Advance PC by fixed size amount 0 to 0x190
  [0x00000142]  Copy (view 34)
  [0x00000143]  Set is_stmt to 0
  [0x00000144]  Advance Line by 1 to 45
  [0x00000146]  Advance PC by fixed size amount 0 to 0x190
  [0x00000149]  Copy (view 35)
  [0x0000014a]  Set column to 1
  [0x0000014c]  Advance Line by -9 to 36
  [0x0000014e]  Advance PC by fixed size amount 4 to 0x194
  [0x00000151]  Copy (view 36)
  [0x00000152]  Set column to 3
  [0x00000154]  Advance Line by 9 to 45
  [0x00000156]  Advance PC by fixed size amount 8 to 0x19c
  [0x00000159]  Copy (view 37)
  [0x0000015a]  Advance Line by -1 to 44
  [0x0000015c]  Advance PC by fixed size amount 4 to 0x1a0
  [0x0000015f]  Copy (view 38)
  [0x00000160]  Set is_stmt to 1
  [0x00000161]  Advance Line by 0 to 44
  [0x00000163]  Advance PC by fixed size amount 4 to 0x1a4
  [0x00000166]  Copy (view 39)
  [0x00000167]  Advance Line by 0 to 44
  [0x00000169]  Advance PC by fixed size amount 0 to 0x1a4
  [0x0000016c]  Copy (view 40)
  [0x0000016d]  Advance Line by 1 to 45
  [0x0000016f]  Advance PC by fixed size amount 0 to 0x1a4
  [0x00000172]  Copy (view 41)
  [0x00000173]  Advance Line by 0 to 45
  [0x00000175]  Advance PC by fixed size amount 0 to 0x1a4
  [0x00000178]  Copy (view 42)
  [0x00000179]  Advance Line by 0 to 45
  [0x0000017b]  Advance PC by fixed size amount 0 to 0x1a4
  [0x0000017e]  Copy (view 43)
  [0x0000017f]  Advance Line by 0 to 45
  [0x00000181]  Advance PC by fixed size amount 0 to 0x1a4
  [0x00000184]  Copy (view 44)
  [0x00000185]  Advance Line by 0 to 45
  [0x00000187]  Advance PC by fixed size amount 0 to 0x1a4
  [0x0000018a]  Copy (view 45)
  [0x0000018b]  Advance Line by 0 to 45
  [0x0000018d]  Advance PC by fixed size amount 0 to 0x1a4
  [0x00000190]  Copy (view 46)
  [0x00000191]  Advance Line by 0 to 45
  [0x00000193]  Advance PC by fixed size amount 0 to 0x1a4
  [0x00000196]  Copy (view 47)
  [0x00000197]  Advance Line by 0 to 45
  [0x00000199]  Advance PC by fixed size amount 0 to 0x1a4
  [0x0000019c]  Copy (view 48)
  [0x0000019d]  Advance Line by 0 to 45
  [0x0000019f]  Advance PC by fixed size amount 0 to 0x1a4
  [0x000001a2]  Copy (view 49)
  [0x000001a3]  Advance Line by 0 to 45
  [0x000001a5]  Advance PC by fixed size amount 0 to 0x1a4
  [0x000001a8]  Copy (view 50)
  [0x000001a9]  Advance Line by 0 to 45
  [0x000001ab]  Advance PC by fixed size amount 0 to 0x1a4
  [0x000001ae]  Copy (view 51)
  [0x000001af]  Advance Line by 0 to 45
  [0x000001b1]  Advance PC by fixed size amount 4 to 0x1a8
  [0x000001b4]  Copy (view 52)
  [0x000001b5]  Advance Line by 0 to 45
  [0x000001b7]  Advance PC by fixed size amount 0 to 0x1a8
  [0x000001ba]  Copy (view 53)
  [0x000001bb]  Advance Line by 1 to 46
  [0x000001bd]  Advance PC by fixed size amount 0 to 0x1a8
  [0x000001c0]  Copy (view 54)
  [0x000001c1]  Advance Line by 0 to 46
  [0x000001c3]  Advance PC by fixed size amount 0 to 0x1a8
  [0x000001c6]  Copy (view 55)
  [0x000001c7]  Advance Line by 0 to 46
  [0x000001c9]  Advance PC by fixed size amount 0 to 0x1a8
  [0x000001cc]  Copy (view 56)
  [0x000001cd]  Advance Line by 0 to 46
  [0x000001cf]  Advance PC by fixed size amount 0 to 0x1a8
  [0x000001d2]  Copy (view 57)
  [0x000001d3]  Advance Line by 0 to 46
  [0x000001d5]  Advance PC by fixed size amount 0 to 0x1a8
  [0x000001d8]  Copy (view 58)
  [0x000001d9]  Advance Line by 0 to 46
  [0x000001db]  Advance PC by fixed size amount 0 to 0x1a8
  [0x000001de]  Copy (view 59)
  [0x000001df]  Advance Line by 0 to 46
  [0x000001e1]  Advance PC by fixed size amount 0 to 0x1a8
  [0x000001e4]  Copy (view 60)
  [0x000001e5]  Advance Line by 0 to 46
  [0x000001e7]  Advance PC by fixed size amount 0 to 0x1a8
  [0x000001ea]  Copy (view 61)
  [0x000001eb]  Extended opcode 4: set Discriminator to 7
  [0x000001ef]  Advance Line by 0 to 46
  [0x000001f1]  Advance PC by fixed size amount 8 to 0x1b0
  [0x000001f4]  Copy (view 62)
  [0x000001f5]  Extended opcode 4: set Discriminator to 7
  [0x000001f9]  Advance Line by 0 to 46
  [0x000001fb]  Advance PC by fixed size amount 0 to 0x1b0
  [0x000001fe]  Copy (view 63)
  [0x000001ff]  Extended opcode 4: set Discriminator to 7
  [0x00000203]  Advance Line by 0 to 46
  [0x00000205]  Advance PC by fixed size amount 0 to 0x1b0
  [0x00000208]  Copy (view 64)
  [0x00000209]  Extended opcode 4: set Discriminator to 9
  [0x0000020d]  Advance Line by 0 to 46
  [0x0000020f]  Advance PC by fixed size amount 4 to 0x1b4
  [0x00000212]  Copy (view 65)
  [0x00000213]  Extended opcode 4: set Discriminator to 9
  [0x00000217]  Advance Line by 0 to 46
  [0x00000219]  Advance PC by fixed size amount 0 to 0x1b4
  [0x0000021c]  Copy (view 66)
  [0x0000021d]  Extended opcode 4: set Discriminator to 11
  [0x00000221]  Advance Line by 0 to 46
  [0x00000223]  Advance PC by fixed size amount 4 to 0x1b8
  [0x00000226]  Copy (view 67)
  [0x00000227]  Extended opcode 4: set Discriminator to 14
  [0x0000022b]  Advance Line by 0 to 46
  [0x0000022d]  Advance PC by fixed size amount 4 to 0x1bc
  [0x00000230]  Copy (view 68)
  [0x00000231]  Extended opcode 4: set Discriminator to 14
  [0x00000235]  Advance Line by 0 to 46
  [0x00000237]  Advance PC by fixed size amount 0 to 0x1bc
  [0x0000023a]  Copy (view 69)
  [0x0000023b]  Extended opcode 4: set Discriminator to 14
  [0x0000023f]  Advance Line by 0 to 46
  [0x00000241]  Advance PC by fixed size amount 4 to 0x1c0
  [0x00000244]  Copy (view 70)
  [0x00000245]  Extended opcode 4: set Discriminator to 75
  [0x00000249]  Advance Line by 0 to 46
  [0x0000024b]  Advance PC by fixed size amount 4 to 0x1c4
  [0x0000024e]  Copy (view 71)
  [0x0000024f]  Extended opcode 4: set Discriminator to 75
  [0x00000253]  Advance Line by 0 to 46
  [0x00000255]  Advance PC by fixed size amount 4 to 0x1c8
  [0x00000258]  Copy (view 72)
  [0x00000259]  Extended opcode 4: set Discriminator to 75
  [0x0000025d]  Set is_stmt to 0
  [0x0000025e]  Advance Line by -1 to 45
  [0x00000260]  Advance PC by fixed size amount 0 to 0x1c8
  [0x00000263]  Copy (view 73)
  [0x00000264]  Extended opcode 4: set Discriminator to 75
  [0x00000268]  Advance Line by 1 to 46
  [0x0000026a]  Advance PC by fixed size amount 4 to 0x1cc
  [0x0000026d]  Copy (view 74)
  [0x0000026e]  Extended opcode 4: set Discriminator to 24
  [0x00000272]  Set is_stmt to 1
  [0x00000273]  Advance Line by 0 to 46
  [0x00000275]  Advance PC by fixed size amount 4 to 0x1d0
  [0x00000278]  Copy (view 75)
  [0x00000279]  Set is_stmt to 0
  [0x0000027a]  Advance Line by 0 to 46
  [0x0000027c]  Advance PC by fixed size amount 8 to 0x1d8
  [0x0000027f]  Copy (view 76)
  [0x00000280]  Extended opcode 4: set Discriminator to 12
  [0x00000284]  Set is_stmt to 1
  [0x00000285]  Advance Line by 0 to 46
  [0x00000287]  Advance PC by fixed size amount 8 to 0x1e0
  [0x0000028a]  Copy (view 77)
  [0x0000028b]  Extended opcode 4: set Discriminator to 38
  [0x0000028f]  Advance Line by 0 to 46
  [0x00000291]  Advance PC by fixed size amount 8 to 0x1e8
  [0x00000294]  Copy (view 78)
  [0x00000295]  Extended opcode 4: set Discriminator to 47
  [0x00000299]  Advance Line by 0 to 46
  [0x0000029b]  Advance PC by fixed size amount 12 to 0x1f4
  [0x0000029e]  Copy (view 79)
  [0x0000029f]  Extended opcode 4: set Discriminator to 48
  [0x000002a3]  Advance Line by 0 to 46
  [0x000002a5]  Advance PC by fixed size amount 12 to 0x200
  [0x000002a8]  Copy (view 80)
  [0x000002a9]  Extended opcode 4: set Discriminator to 59
  [0x000002ad]  Advance Line by 0 to 46
  [0x000002af]  Advance PC by fixed size amount 24 to 0x218
  [0x000002b2]  Copy (view 81)
  [0x000002b3]  Extended opcode 4: set Discriminator to 112
  [0x000002b7]  Advance Line by 0 to 46
  [0x000002b9]  Advance PC by fixed size amount 4 to 0x21c
  [0x000002bc]  Copy (view 82)
  [0x000002bd]  Extended opcode 4: set Discriminator to 171
  [0x000002c2]  Advance Line by 0 to 46
  [0x000002c4]  Advance PC by fixed size amount 12 to 0x228
  [0x000002c7]  Copy (view 83)
  [0x000002c8]  Extended opcode 4: set Discriminator to 171
  [0x000002cd]  Advance Line by 0 to 46
  [0x000002cf]  Advance PC by fixed size amount 0 to 0x228
  [0x000002d2]  Copy (view 84)
  [0x000002d3]  Extended opcode 4: set Discriminator to 171
  [0x000002d8]  Advance Line by 0 to 46
  [0x000002da]  Advance PC by fixed size amount 4 to 0x22c
  [0x000002dd]  Copy (view 85)
  [0x000002de]  Extended opcode 4: set Discriminator to 171
  [0x000002e3]  Advance Line by 0 to 46
  [0x000002e5]  Advance PC by fixed size amount 0 to 0x22c
  [0x000002e8]  Copy (view 86)
  [0x000002e9]  Set is_stmt to 0
  [0x000002ea]  Advance Line by 0 to 46
  [0x000002ec]  Advance PC by fixed size amount 8 to 0x234
  [0x000002ef]  Copy (view 87)
  [0x000002f0]  Extended opcode 4: set Discriminator to 10
  [0x000002f4]  Set is_stmt to 1
  [0x000002f5]  Advance Line by 0 to 46
  [0x000002f7]  Advance PC by fixed size amount 28 to 0x250
  [0x000002fa]  Copy (view 88)
  [0x000002fb]  Extended opcode 4: set Discriminator to 61
  [0x000002ff]  Advance Line by 0 to 46
  [0x00000301]  Advance PC by fixed size amount 4 to 0x254
  [0x00000304]  Copy (view 89)
  [0x00000305]  Extended opcode 4: set Discriminator to 61
  [0x00000309]  Advance Line by 0 to 46
  [0x0000030b]  Advance PC by fixed size amount 4 to 0x258
  [0x0000030e]  Copy (view 90)
  [0x0000030f]  Extended opcode 4: set Discriminator to 61
  [0x00000313]  Advance Line by 0 to 46
  [0x00000315]  Advance PC by fixed size amount 0 to 0x258
  [0x00000318]  Copy (view 91)
  [0x00000319]  Extended opcode 4: set Discriminator to 63
  [0x0000031d]  Advance Line by 0 to 46
  [0x0000031f]  Advance PC by fixed size amount 4 to 0x25c
  [0x00000322]  Copy (view 92)
  [0x00000323]  Extended opcode 4: set Discriminator to 66
  [0x00000327]  Advance Line by 0 to 46
  [0x00000329]  Advance PC by fixed size amount 4 to 0x260
  [0x0000032c]  Copy (view 93)
  [0x0000032d]  Extended opcode 4: set Discriminator to 66
  [0x00000331]  Advance Line by 0 to 46
  [0x00000333]  Advance PC by fixed size amount 0 to 0x260
  [0x00000336]  Copy (view 94)
  [0x00000337]  Extended opcode 4: set Discriminator to 66
  [0x0000033b]  Advance Line by 0 to 46
  [0x0000033d]  Advance PC by fixed size amount 4 to 0x264
  [0x00000340]  Copy (view 95)
  [0x00000341]  Extended opcode 4: set Discriminator to 76
  [0x00000345]  Advance Line by 0 to 46
  [0x00000347]  Advance PC by fixed size amount 4 to 0x268
  [0x0000034a]  Copy (view 96)
  [0x0000034b]  Set is_stmt to 0
  [0x0000034c]  Advance Line by -1 to 45
  [0x0000034e]  Advance PC by fixed size amount 8 to 0x270
  [0x00000351]  Copy (view 97)
  [0x00000352]  Extended opcode 4: set Discriminator to 64
  [0x00000356]  Set is_stmt to 1
  [0x00000357]  Advance Line by 1 to 46
  [0x00000359]  Advance PC by fixed size amount 8 to 0x278
  [0x0000035c]  Copy (view 98)
  [0x0000035d]  Extended opcode 4: set Discriminator to 90
  [0x00000361]  Advance Line by 0 to 46
  [0x00000363]  Advance PC by fixed size amount 8 to 0x280
  [0x00000366]  Copy (view 99)
  [0x00000367]  Extended opcode 4: set Discriminator to 99
  [0x0000036b]  Advance Line by 0 to 46
  [0x0000036d]  Advance PC by fixed size amount 12 to 0x28c
  [0x00000370]  Copy (view 100)
  [0x00000371]  Extended opcode 4: set Discriminator to 100
  [0x00000375]  Advance Line by 0 to 46
  [0x00000377]  Advance PC by fixed size amount 12 to 0x298
  [0x0000037a]  Copy (view 101)
  [0x0000037b]  Extended opcode 4: set Discriminator to 111
  [0x0000037f]  Advance Line by 0 to 46
  [0x00000381]  Advance PC by fixed size amount 24 to 0x2b0
  [0x00000384]  Copy (view 102)
  [0x00000385]  Extended opcode 4: set Discriminator to 111
  [0x00000389]  Set is_stmt to 0
  [0x0000038a]  Advance Line by -1 to 45
  [0x0000038c]  Advance PC by fixed size amount 4 to 0x2b4
  [0x0000038f]  Copy (view 103)
  [0x00000390]  Extended opcode 4: set Discriminator to 62
  [0x00000394]  Set is_stmt to 1
  [0x00000395]  Advance Line by 1 to 46
  [0x00000397]  Advance PC by fixed size amount 8 to 0x2bc
  [0x0000039a]  Copy (view 104)
  [0x0000039b]  Extended opcode 4: set Discriminator to 113
  [0x0000039f]  Advance Line by 0 to 46
  [0x000003a1]  Advance PC by fixed size amount 12 to 0x2c8
  [0x000003a4]  Copy (view 105)
  [0x000003a5]  Extended opcode 4: set Discriminator to 115
  [0x000003a9]  Advance Line by 0 to 46
  [0x000003ab]  Advance PC by fixed size amount 4 to 0x2cc
  [0x000003ae]  Copy (view 106)
  [0x000003af]  Extended opcode 4: set Discriminator to 115
  [0x000003b3]  Advance Line by 0 to 46
  [0x000003b5]  Advance PC by fixed size amount 0 to 0x2cc
  [0x000003b8]  Copy (view 107)
  [0x000003b9]  Extended opcode 4: set Discriminator to 118
  [0x000003bd]  Advance Line by 0 to 46
  [0x000003bf]  Advance PC by fixed size amount 4 to 0x2d0
  [0x000003c2]  Copy (view 108)
  [0x000003c3]  Extended opcode 4: set Discriminator to 124
  [0x000003c7]  Advance Line by 0 to 46
  [0x000003c9]  Advance PC by fixed size amount 4 to 0x2d4
  [0x000003cc]  Copy (view 109)
  [0x000003cd]  Extended opcode 4: set Discriminator to 124
  [0x000003d1]  Advance Line by 0 to 46
  [0x000003d3]  Advance PC by fixed size amount 0 to 0x2d4
  [0x000003d6]  Copy (view 110)
  [0x000003d7]  Extended opcode 4: set Discriminator to 124
  [0x000003db]  Advance Line by 0 to 46
  [0x000003dd]  Advance PC by fixed size amount 4 to 0x2d8
  [0x000003e0]  Copy (view 111)
  [0x000003e1]  Extended opcode 4: set Discriminator to 126
  [0x000003e5]  Advance Line by 0 to 46
  [0x000003e7]  Advance PC by fixed size amount 12 to 0x2e4
  [0x000003ea]  Copy (view 112)
  [0x000003eb]  Extended opcode 4: set Discriminator to 126
  [0x000003ef]  Advance Line by 0 to 46
  [0x000003f1]  Advance PC by fixed size amount 12 to 0x2f0
  [0x000003f4]  Copy (view 113)
  [0x000003f5]  Extended opcode 4: set Discriminator to 377
  [0x000003fa]  Advance Line by 0 to 46
  [0x000003fc]  Advance PC by fixed size amount 4 to 0x2f4
  [0x000003ff]  Copy (view 114)
  [0x00000400]  Extended opcode 4: set Discriminator to 377
  [0x00000405]  Advance Line by 0 to 46
  [0x00000407]  Advance PC by fixed size amount 0 to 0x2f4
  [0x0000040a]  Copy (view 115)
  [0x0000040b]  Extended opcode 4: set Discriminator to 377
  [0x00000410]  Advance Line by 1 to 47
  [0x00000412]  Advance PC by fixed size amount 0 to 0x2f4
  [0x00000415]  Copy (view 116)
  [0x00000416]  Extended opcode 4: set Discriminator to 377
  [0x0000041b]  Advance Line by 0 to 47
  [0x0000041d]  Advance PC by fixed size amount 0 to 0x2f4
  [0x00000420]  Copy (view 117)
  [0x00000421]  Extended opcode 4: set Discriminator to 377
  [0x00000426]  Advance Line by 0 to 47
  [0x00000428]  Advance PC by fixed size amount 0 to 0x2f4
  [0x0000042b]  Copy (view 118)
  [0x0000042c]  Extended opcode 4: set Discriminator to 377
  [0x00000431]  Advance Line by 0 to 47
  [0x00000433]  Advance PC by fixed size amount 0 to 0x2f4
  [0x00000436]  Copy (view 119)
  [0x00000437]  Extended opcode 4: set Discriminator to 377
  [0x0000043c]  Advance Line by 0 to 47
  [0x0000043e]  Advance PC by fixed size amount 0 to 0x2f4
  [0x00000441]  Copy (view 120)
  [0x00000442]  Extended opcode 4: set Discriminator to 37
  [0x00000446]  Advance Line by 0 to 47
  [0x00000448]  Advance PC by fixed size amount 8 to 0x2fc
  [0x0000044b]  Copy (view 121)
  [0x0000044c]  Extended opcode 4: set Discriminator to 37
  [0x00000450]  Advance Line by 0 to 47
  [0x00000452]  Advance PC by fixed size amount 0 to 0x2fc
  [0x00000455]  Copy (view 122)
  [0x00000456]  Extended opcode 4: set Discriminator to 37
  [0x0000045a]  Advance Line by 0 to 47
  [0x0000045c]  Advance PC by fixed size amount 0 to 0x2fc
  [0x0000045f]  Copy (view 123)
  [0x00000460]  Extended opcode 4: set Discriminator to 37
  [0x00000464]  Advance Line by 0 to 47
  [0x00000466]  Advance PC by fixed size amount 0 to 0x2fc
  [0x00000469]  Copy (view 124)
  [0x0000046a]  Extended opcode 4: set Discriminator to 44
  [0x0000046e]  Advance Line by 0 to 47
  [0x00000470]  Advance PC by fixed size amount 12 to 0x308
  [0x00000473]  Copy (view 125)
  [0x00000474]  Extended opcode 4: set Discriminator to 143
  [0x00000479]  Advance Line by -1 to 46
  [0x0000047b]  Advance PC by fixed size amount 8 to 0x310
  [0x0000047e]  Copy (view 126)
  [0x0000047f]  Extended opcode 4: set Discriminator to 143
  [0x00000484]  Advance Line by 0 to 46
  [0x00000486]  Advance PC by fixed size amount 0 to 0x310
  [0x00000489]  Copy (view 127)
  [0x0000048a]  Extended opcode 4: set Discriminator to 143
  [0x0000048f]  Advance Line by 0 to 46
  [0x00000491]  Advance PC by fixed size amount 0 to 0x310
  [0x00000494]  Copy (view 128)
  [0x00000495]  Extended opcode 4: set Discriminator to 143
  [0x0000049a]  Advance Line by 0 to 46
  [0x0000049c]  Advance PC by fixed size amount 0 to 0x310
  [0x0000049f]  Copy (view 129)
  [0x000004a0]  Extended opcode 4: set Discriminator to 143
  [0x000004a5]  Advance Line by 0 to 46
  [0x000004a7]  Advance PC by fixed size amount 0 to 0x310
  [0x000004aa]  Copy (view 130)
  [0x000004ab]  Extended opcode 4: set Discriminator to 143
  [0x000004b0]  Advance Line by 0 to 46
  [0x000004b2]  Advance PC by fixed size amount 0 to 0x310
  [0x000004b5]  Copy (view 131)
  [0x000004b6]  Extended opcode 4: set Discriminator to 143
  [0x000004bb]  Advance Line by 0 to 46
  [0x000004bd]  Advance PC by fixed size amount 0 to 0x310
  [0x000004c0]  Copy (view 132)
  [0x000004c1]  Extended opcode 4: set Discriminator to 143
  [0x000004c6]  Advance Line by 0 to 46
  [0x000004c8]  Advance PC by fixed size amount 0 to 0x310
  [0x000004cb]  Copy (view 133)
  [0x000004cc]  Extended opcode 4: set Discriminator to 329
  [0x000004d1]  Advance Line by 0 to 46
  [0x000004d3]  Advance PC by fixed size amount 4 to 0x314
  [0x000004d6]  Copy (view 134)
  [0x000004d7]  Set is_stmt to 0
  [0x000004d8]  Advance Line by 0 to 46
  [0x000004da]  Advance PC by fixed size amount 4 to 0x318
  [0x000004dd]  Copy (view 135)
  [0x000004de]  Extended opcode 4: set Discriminator to 114
  [0x000004e2]  Set is_stmt to 1
  [0x000004e3]  Advance Line by 0 to 46
  [0x000004e5]  Advance PC by fixed size amount 16 to 0x328
  [0x000004e8]  Copy (view 136)
  [0x000004e9]  Extended opcode 4: set Discriminator to 114
  [0x000004ed]  Advance Line by 0 to 46
  [0x000004ef]  Advance PC by fixed size amount 0 to 0x328
  [0x000004f2]  Copy (view 137)
  [0x000004f3]  Extended opcode 4: set Discriminator to 114
  [0x000004f7]  Advance Line by 0 to 46
  [0x000004f9]  Advance PC by fixed size amount 0 to 0x328
  [0x000004fc]  Copy (view 138)
  [0x000004fd]  Extended opcode 4: set Discriminator to 114
  [0x00000501]  Advance Line by 0 to 46
  [0x00000503]  Advance PC by fixed size amount 0 to 0x328
  [0x00000506]  Copy (view 139)
  [0x00000507]  Set is_stmt to 0
  [0x00000508]  Advance Line by 0 to 46
  [0x0000050a]  Advance PC by fixed size amount 8 to 0x330
  [0x0000050d]  Copy (view 140)
  [0x0000050e]  Extended opcode 4: set Discriminator to 8
  [0x00000512]  Set is_stmt to 1
  [0x00000513]  Advance Line by 0 to 46
  [0x00000515]  Advance PC by fixed size amount 16 to 0x340
  [0x00000518]  Copy (view 141)
  [0x00000519]  Extended opcode 4: set Discriminator to 8
  [0x0000051d]  Advance Line by 0 to 46
  [0x0000051f]  Advance PC by fixed size amount 0 to 0x340
  [0x00000522]  Copy (view 142)
  [0x00000523]  Extended opcode 4: set Discriminator to 189
  [0x00000528]  Advance Line by 0 to 46
  [0x0000052a]  Advance PC by fixed size amount 4 to 0x344
  [0x0000052d]  Copy (view 143)
  [0x0000052e]  Extended opcode 4: set Discriminator to 189
  [0x00000533]  Advance Line by 0 to 46
  [0x00000535]  Advance PC by fixed size amount 0 to 0x344
  [0x00000538]  Copy (view 144)
  [0x00000539]  Extended opcode 4: set Discriminator to 189
  [0x0000053e]  Advance Line by 0 to 46
  [0x00000540]  Advance PC by fixed size amount 0 to 0x344
  [0x00000543]  Copy (view 145)
  [0x00000544]  Extended opcode 4: set Discriminator to 191
  [0x00000549]  Advance Line by 0 to 46
  [0x0000054b]  Advance PC by fixed size amount 4 to 0x348
  [0x0000054e]  Copy (view 146)
  [0x0000054f]  Extended opcode 4: set Discriminator to 194
  [0x00000554]  Advance Line by 0 to 46
  [0x00000556]  Advance PC by fixed size amount 4 to 0x34c
  [0x00000559]  Copy (view 147)
  [0x0000055a]  Extended opcode 4: set Discriminator to 194
  [0x0000055f]  Advance Line by 0 to 46
  [0x00000561]  Advance PC by fixed size amount 0 to 0x34c
  [0x00000564]  Copy (view 148)
  [0x00000565]  Extended opcode 4: set Discriminator to 194
  [0x0000056a]  Advance Line by 0 to 46
  [0x0000056c]  Advance PC by fixed size amount 4 to 0x350
  [0x0000056f]  Copy (view 149)
  [0x00000570]  Extended opcode 4: set Discriminator to 203
  [0x00000575]  Advance Line by 0 to 46
  [0x00000577]  Advance PC by fixed size amount 4 to 0x354
  [0x0000057a]  Copy (view 150)
  [0x0000057b]  Extended opcode 4: set Discriminator to 203
  [0x00000580]  Advance Line by 0 to 46
  [0x00000582]  Advance PC by fixed size amount 4 to 0x358
  [0x00000585]  Copy (view 151)
  [0x00000586]  Extended opcode 4: set Discriminator to 255
  [0x0000058b]  Set is_stmt to 0
  [0x0000058c]  Advance Line by -1 to 45
  [0x0000058e]  Advance PC by fixed size amount 0 to 0x358
  [0x00000591]  Copy (view 152)
  [0x00000592]  Extended opcode 4: set Discriminator to 255
  [0x00000597]  Advance Line by 1 to 46
  [0x00000599]  Advance PC by fixed size amount 4 to 0x35c
  [0x0000059c]  Copy (view 153)
  [0x0000059d]  Extended opcode 4: set Discriminator to 204
  [0x000005a2]  Set is_stmt to 1
  [0x000005a3]  Advance Line by 0 to 46
  [0x000005a5]  Advance PC by fixed size amount 4 to 0x360
  [0x000005a8]  Copy (view 154)
  [0x000005a9]  Extended opcode 4: set Discriminator to 227
  [0x000005ae]  Advance Line by 0 to 46
  [0x000005b0]  Advance PC by fixed size amount 8 to 0x368
  [0x000005b3]  Copy (view 155)
  [0x000005b4]  Extended opcode 4: set Discriminator to 228
  [0x000005b9]  Advance Line by 0 to 46
  [0x000005bb]  Advance PC by fixed size amount 12 to 0x374
  [0x000005be]  Copy (view 156)
  [0x000005bf]  Extended opcode 4: set Discriminator to 239
  [0x000005c4]  Advance Line by 0 to 46
  [0x000005c6]  Advance PC by fixed size amount 24 to 0x38c
  [0x000005c9]  Copy (view 157)
  [0x000005ca]  Extended opcode 4: set Discriminator to 292
  [0x000005cf]  Advance Line by 0 to 46
  [0x000005d1]  Advance PC by fixed size amount 4 to 0x390
  [0x000005d4]  Copy (view 158)
  [0x000005d5]  Extended opcode 4: set Discriminator to 351
  [0x000005da]  Advance Line by 0 to 46
  [0x000005dc]  Advance PC by fixed size amount 12 to 0x39c
  [0x000005df]  Copy (view 159)
  [0x000005e0]  Extended opcode 4: set Discriminator to 351
  [0x000005e5]  Advance Line by 0 to 46
  [0x000005e7]  Advance PC by fixed size amount 0 to 0x39c
  [0x000005ea]  Copy (view 160)
  [0x000005eb]  Extended opcode 4: set Discriminator to 192
  [0x000005f0]  Advance Line by 0 to 46
  [0x000005f2]  Advance PC by fixed size amount 12 to 0x3a8
  [0x000005f5]  Copy (view 161)
  [0x000005f6]  Extended opcode 4: set Discriminator to 218
  [0x000005fb]  Advance Line by 0 to 46
  [0x000005fd]  Advance PC by fixed size amount 8 to 0x3b0
  [0x00000600]  Copy (view 162)
  [0x00000601]  Extended opcode 4: set Discriminator to 190
  [0x00000606]  Advance Line by 0 to 46
  [0x00000608]  Advance PC by fixed size amount 16 to 0x3c0
  [0x0000060b]  Copy (view 163)
  [0x0000060c]  Extended opcode 4: set Discriminator to 241
  [0x00000611]  Advance Line by 0 to 46
  [0x00000613]  Advance PC by fixed size amount 4 to 0x3c4
  [0x00000616]  Copy (view 164)
  [0x00000617]  Extended opcode 4: set Discriminator to 241
  [0x0000061c]  Advance Line by 0 to 46
  [0x0000061e]  Advance PC by fixed size amount 4 to 0x3c8
  [0x00000621]  Copy (view 165)
  [0x00000622]  Extended opcode 4: set Discriminator to 241
  [0x00000627]  Advance Line by 0 to 46
  [0x00000629]  Advance PC by fixed size amount 0 to 0x3c8
  [0x0000062c]  Copy (view 166)
  [0x0000062d]  Extended opcode 4: set Discriminator to 241
  [0x00000632]  Advance Line by 0 to 46
  [0x00000634]  Advance PC by fixed size amount 0 to 0x3c8
  [0x00000637]  Copy (view 167)
  [0x00000638]  Extended opcode 4: set Discriminator to 243
  [0x0000063d]  Advance Line by 0 to 46
  [0x0000063f]  Advance PC by fixed size amount 4 to 0x3cc
  [0x00000642]  Copy (view 168)
  [0x00000643]  Extended opcode 4: set Discriminator to 246
  [0x00000648]  Advance Line by 0 to 46
  [0x0000064a]  Advance PC by fixed size amount 4 to 0x3d0
  [0x0000064d]  Copy (view 169)
  [0x0000064e]  Extended opcode 4: set Discriminator to 246
  [0x00000653]  Advance Line by 0 to 46
  [0x00000655]  Advance PC by fixed size amount 0 to 0x3d0
  [0x00000658]  Copy (view 170)
  [0x00000659]  Extended opcode 4: set Discriminator to 246
  [0x0000065e]  Advance Line by 0 to 46
  [0x00000660]  Advance PC by fixed size amount 4 to 0x3d4
  [0x00000663]  Copy (view 171)
  [0x00000664]  Extended opcode 4: set Discriminator to 255
  [0x00000669]  Advance Line by 0 to 46
  [0x0000066b]  Advance PC by fixed size amount 4 to 0x3d8
  [0x0000066e]  Copy (view 172)
  [0x0000066f]  Extended opcode 4: set Discriminator to 255
  [0x00000674]  Advance Line by 0 to 46
  [0x00000676]  Advance PC by fixed size amount 4 to 0x3dc
  [0x00000679]  Copy (view 173)
  [0x0000067a]  Extended opcode 4: set Discriminator to 256
  [0x0000067f]  Advance Line by 0 to 46
  [0x00000681]  Advance PC by fixed size amount 8 to 0x3e4
  [0x00000684]  Copy (view 174)
  [0x00000685]  Set is_stmt to 0
  [0x00000686]  Advance Line by -1 to 45
  [0x00000688]  Advance PC by fixed size amount 8 to 0x3ec
  [0x0000068b]  Copy (view 175)
  [0x0000068c]  Advance Line by 1 to 46
  [0x0000068e]  Advance PC by fixed size amount 4 to 0x3f0
  [0x00000691]  Copy (view 176)
  [0x00000692]  Extended opcode 4: set Discriminator to 244
  [0x00000697]  Set is_stmt to 1
  [0x00000698]  Advance Line by 0 to 46
  [0x0000069a]  Advance PC by fixed size amount 8 to 0x3f8
  [0x0000069d]  Copy (view 177)
  [0x0000069e]  Extended opcode 4: set Discriminator to 270
  [0x000006a3]  Advance Line by 0 to 46
  [0x000006a5]  Advance PC by fixed size amount 8 to 0x400
  [0x000006a8]  Copy (view 178)
  [0x000006a9]  Extended opcode 4: set Discriminator to 279
  [0x000006ae]  Advance Line by 0 to 46
  [0x000006b0]  Advance PC by fixed size amount 12 to 0x40c
  [0x000006b3]  Copy (view 179)
  [0x000006b4]  Extended opcode 4: set Discriminator to 280
  [0x000006b9]  Advance Line by 0 to 46
  [0x000006bb]  Advance PC by fixed size amount 12 to 0x418
  [0x000006be]  Copy (view 180)
  [0x000006bf]  Extended opcode 4: set Discriminator to 291
  [0x000006c4]  Advance Line by 0 to 46
  [0x000006c6]  Advance PC by fixed size amount 24 to 0x430
  [0x000006c9]  Copy (view 181)
  [0x000006ca]  Extended opcode 4: set Discriminator to 291
  [0x000006cf]  Set is_stmt to 0
  [0x000006d0]  Advance Line by -1 to 45
  [0x000006d2]  Advance PC by fixed size amount 4 to 0x434
  [0x000006d5]  Copy (view 182)
  [0x000006d6]  Extended opcode 4: set Discriminator to 242
  [0x000006db]  Set is_stmt to 1
  [0x000006dc]  Advance Line by 1 to 46
  [0x000006de]  Advance PC by fixed size amount 12 to 0x440
  [0x000006e1]  Copy (view 183)
  [0x000006e2]  Extended opcode 4: set Discriminator to 293
  [0x000006e7]  Advance Line by 0 to 46
  [0x000006e9]  Advance PC by fixed size amount 12 to 0x44c
  [0x000006ec]  Copy (view 184)
  [0x000006ed]  Extended opcode 4: set Discriminator to 295
  [0x000006f2]  Advance Line by 0 to 46
  [0x000006f4]  Advance PC by fixed size amount 4 to 0x450
  [0x000006f7]  Copy (view 185)
  [0x000006f8]  Extended opcode 4: set Discriminator to 295
  [0x000006fd]  Advance Line by 0 to 46
  [0x000006ff]  Advance PC by fixed size amount 0 to 0x450
  [0x00000702]  Copy (view 186)
  [0x00000703]  Extended opcode 4: set Discriminator to 297
  [0x00000708]  Advance Line by 0 to 46
  [0x0000070a]  Advance PC by fixed size amount 4 to 0x454
  [0x0000070d]  Copy (view 187)
  [0x0000070e]  Extended opcode 4: set Discriminator to 297
  [0x00000713]  Advance Line by 0 to 46
  [0x00000715]  Advance PC by fixed size amount 0 to 0x454
  [0x00000718]  Copy (view 188)
  [0x00000719]  Set is_stmt to 0
  [0x0000071a]  Advance Line by 0 to 46
  [0x0000071c]  Advance PC by fixed size amount 8 to 0x45c
  [0x0000071f]  Copy (view 189)
  [0x00000720]  Extended opcode 4: set Discriminator to 298
  [0x00000725]  Set is_stmt to 1
  [0x00000726]  Advance Line by 0 to 46
  [0x00000728]  Advance PC by fixed size amount 12 to 0x468
  [0x0000072b]  Copy (view 190)
  [0x0000072c]  Extended opcode 4: set Discriminator to 305
  [0x00000731]  Advance Line by 0 to 46
  [0x00000733]  Advance PC by fixed size amount 4 to 0x46c
  [0x00000736]  Copy (view 191)
  [0x00000737]  Extended opcode 4: set Discriminator to 305
  [0x0000073c]  Advance Line by 0 to 46
  [0x0000073e]  Advance PC by fixed size amount 0 to 0x46c
  [0x00000741]  Copy (view 192)
  [0x00000742]  Extended opcode 4: set Discriminator to 305
  [0x00000747]  Advance Line by 0 to 46
  [0x00000749]  Advance PC by fixed size amount 4 to 0x470
  [0x0000074c]  Copy (view 193)
  [0x0000074d]  Extended opcode 4: set Discriminator to 305
  [0x00000752]  Advance Line by 0 to 46
  [0x00000754]  Advance PC by fixed size amount 0 to 0x470
  [0x00000757]  Copy (view 194)
  [0x00000758]  Extended opcode 4: set Discriminator to 308
  [0x0000075d]  Advance Line by 0 to 46
  [0x0000075f]  Advance PC by fixed size amount 16 to 0x480
  [0x00000762]  Copy (view 195)
  [0x00000763]  Extended opcode 4: set Discriminator to 327
  [0x00000768]  Advance Line by 0 to 46
  [0x0000076a]  Advance PC by fixed size amount 16 to 0x490
  [0x0000076d]  Copy (view 196)
  [0x0000076e]  Extended opcode 4: set Discriminator to 327
  [0x00000773]  Advance Line by 0 to 46
  [0x00000775]  Advance PC by fixed size amount 0 to 0x490
  [0x00000778]  Copy (view 197)
  [0x00000779]  Extended opcode 4: set Discriminator to 327
  [0x0000077e]  Advance Line by 0 to 46
  [0x00000780]  Advance PC by fixed size amount 0 to 0x490
  [0x00000783]  Copy (view 198)
  [0x00000784]  Extended opcode 4: set Discriminator to 327
  [0x00000789]  Advance Line by 0 to 46
  [0x0000078b]  Advance PC by fixed size amount 0 to 0x490
  [0x0000078e]  Copy (view 199)
  [0x0000078f]  Extended opcode 4: set Discriminator to 327
  [0x00000794]  Advance Line by 0 to 46
  [0x00000796]  Advance PC by fixed size amount 0 to 0x490
  [0x00000799]  Copy (view 200)
  [0x0000079a]  Extended opcode 4: set Discriminator to 327
  [0x0000079f]  Advance Line by 0 to 46
  [0x000007a1]  Advance PC by fixed size amount 0 to 0x490
  [0x000007a4]  Copy (view 201)
  [0x000007a5]  Extended opcode 4: set Discriminator to 327
  [0x000007aa]  Advance Line by 0 to 46
  [0x000007ac]  Advance PC by fixed size amount 0 to 0x490
  [0x000007af]  Copy (view 202)
  [0x000007b0]  Extended opcode 4: set Discriminator to 327
  [0x000007b5]  Advance Line by 0 to 46
  [0x000007b7]  Advance PC by fixed size amount 0 to 0x490
  [0x000007ba]  Copy (view 203)
  [0x000007bb]  Extended opcode 4: set Discriminator to 328
  [0x000007c0]  Advance Line by 0 to 46
  [0x000007c2]  Advance PC by fixed size amount 4 to 0x494
  [0x000007c5]  Copy (view 204)
  [0x000007c6]  Set is_stmt to 0
  [0x000007c7]  Advance Line by 0 to 46
  [0x000007c9]  Advance PC by fixed size amount 4 to 0x498
  [0x000007cc]  Copy (view 205)
  [0x000007cd]  Extended opcode 4: set Discriminator to 294
  [0x000007d2]  Set is_stmt to 1
  [0x000007d3]  Advance Line by 0 to 46
  [0x000007d5]  Advance PC by fixed size amount 12 to 0x4a4
  [0x000007d8]  Copy (view 206)
  [0x000007d9]  Extended opcode 4: set Discriminator to 294
  [0x000007de]  Advance Line by 0 to 46
  [0x000007e0]  Advance PC by fixed size amount 0 to 0x4a4
  [0x000007e3]  Copy (view 207)
  [0x000007e4]  Extended opcode 4: set Discriminator to 294
  [0x000007e9]  Advance Line by 0 to 46
  [0x000007eb]  Advance PC by fixed size amount 4 to 0x4a8
  [0x000007ee]  Copy (view 208)
  [0x000007ef]  Extended opcode 4: set Discriminator to 294
  [0x000007f4]  Advance Line by 0 to 46
  [0x000007f6]  Advance PC by fixed size amount 0 to 0x4a8
  [0x000007f9]  Copy (view 209)
  [0x000007fa]  Extended opcode 4: set Discriminator to 344
  [0x000007ff]  Advance Line by 0 to 46
  [0x00000801]  Advance PC by fixed size amount 12 to 0x4b4
  [0x00000804]  Copy (view 210)
  [0x00000805]  Extended opcode 4: set Discriminator to 344
  [0x0000080a]  Advance Line by 0 to 46
  [0x0000080c]  Advance PC by fixed size amount 4 to 0x4b8
  [0x0000080f]  Copy (view 211)
  [0x00000810]  Extended opcode 4: set Discriminator to 354
  [0x00000815]  Advance Line by 0 to 46
  [0x00000817]  Advance PC by fixed size amount 4 to 0x4bc
  [0x0000081a]  Copy (view 212)
  [0x0000081b]  Extended opcode 4: set Discriminator to 354
  [0x00000820]  Advance Line by 0 to 46
  [0x00000822]  Advance PC by fixed size amount 0 to 0x4bc
  [0x00000825]  Copy (view 213)
  [0x00000826]  Extended opcode 4: set Discriminator to 354
  [0x0000082b]  Advance Line by 0 to 46
  [0x0000082d]  Advance PC by fixed size amount 0 to 0x4bc
  [0x00000830]  Copy (view 214)
  [0x00000831]  Extended opcode 4: set Discriminator to 354
  [0x00000836]  Advance Line by 0 to 46
  [0x00000838]  Advance PC by fixed size amount 0 to 0x4bc
  [0x0000083b]  Copy (view 215)
  [0x0000083c]  Extended opcode 4: set Discriminator to 354
  [0x00000841]  Advance Line by 0 to 46
  [0x00000843]  Advance PC by fixed size amount 8 to 0x4c4
  [0x00000846]  Copy (view 216)
  [0x00000847]  Extended opcode 4: set Discriminator to 354
  [0x0000084c]  Advance Line by 0 to 46
  [0x0000084e]  Advance PC by fixed size amount 0 to 0x4c4
  [0x00000851]  Copy (view 217)
  [0x00000852]  Extended opcode 4: set Discriminator to 354
  [0x00000857]  Advance Line by 0 to 46
  [0x00000859]  Advance PC by fixed size amount 4 to 0x4c8
  [0x0000085c]  Copy (view 218)
  [0x0000085d]  Extended opcode 4: set Discriminator to 354
  [0x00000862]  Advance Line by 0 to 46
  [0x00000864]  Advance PC by fixed size amount 0 to 0x4c8
  [0x00000867]  Copy (view 219)
  [0x00000868]  Extended opcode 4: set Discriminator to 354
  [0x0000086d]  Advance Line by 0 to 46
  [0x0000086f]  Advance PC by fixed size amount 0 to 0x4c8
  [0x00000872]  Copy (view 220)
  [0x00000873]  Extended opcode 4: set Discriminator to 354
  [0x00000878]  Advance Line by 0 to 46
  [0x0000087a]  Advance PC by fixed size amount 4 to 0x4cc
  [0x0000087d]  Copy (view 221)
  [0x0000087e]  Extended opcode 4: set Discriminator to 354
  [0x00000883]  Advance Line by 0 to 46
  [0x00000885]  Advance PC by fixed size amount 0 to 0x4cc
  [0x00000888]  Copy (view 222)
  [0x00000889]  Extended opcode 4: set Discriminator to 367
  [0x0000088e]  Advance Line by 0 to 46
  [0x00000890]  Advance PC by fixed size amount 4 to 0x4d0
  [0x00000893]  Copy (view 223)
  [0x00000894]  Extended opcode 4: set Discriminator to 367
  [0x00000899]  Advance Line by 0 to 46
  [0x0000089b]  Advance PC by fixed size amount 8 to 0x4d8
  [0x0000089e]  Copy (view 224)
  [0x0000089f]  Extended opcode 4: set Discriminator to 367
  [0x000008a4]  Advance Line by 0 to 46
  [0x000008a6]  Advance PC by fixed size amount 24 to 0x4f0
  [0x000008a9]  Copy (view 225)
  [0x000008aa]  Extended opcode 4: set Discriminator to 345
  [0x000008af]  Advance Line by 0 to 46
  [0x000008b1]  Advance PC by fixed size amount 8 to 0x4f8
  [0x000008b4]  Copy (view 226)
  [0x000008b5]  Set is_stmt to 0
  [0x000008b6]  Advance Line by 0 to 46
  [0x000008b8]  Advance PC by fixed size amount 4 to 0x4fc
  [0x000008bb]  Copy (view 227)
  [0x000008bc]  Extended opcode 4: set Discriminator to 368
  [0x000008c1]  Set is_stmt to 1
  [0x000008c2]  Advance Line by 0 to 46
  [0x000008c4]  Advance PC by fixed size amount 16 to 0x50c
  [0x000008c7]  Copy (view 228)
  [0x000008c8]  Extended opcode 4: set Discriminator to 368
  [0x000008cd]  Advance Line by 0 to 46
  [0x000008cf]  Advance PC by fixed size amount 12 to 0x518
  [0x000008d2]  Copy (view 229)
  [0x000008d3]  Set is_stmt to 0
  [0x000008d4]  Advance Line by -1 to 45
  [0x000008d6]  Advance PC by fixed size amount 8 to 0x520
  [0x000008d9]  Copy (view 230)
  [0x000008da]  Extended opcode 4: set Discriminator to 47
  [0x000008de]  Set is_stmt to 1
  [0x000008df]  Advance Line by 2 to 47
  [0x000008e1]  Advance PC by fixed size amount 24 to 0x538
  [0x000008e4]  Copy (view 231)
  [0x000008e5]  Extended opcode 4: set Discriminator to 47
  [0x000008e9]  Advance Line by 0 to 47
  [0x000008eb]  Advance PC by fixed size amount 0 to 0x538
  [0x000008ee]  Copy (view 232)
  [0x000008ef]  Extended opcode 4: set Discriminator to 47
  [0x000008f3]  Advance Line by 0 to 47
  [0x000008f5]  Advance PC by fixed size amount 0 to 0x538
  [0x000008f8]  Copy (view 233)
  [0x000008f9]  Extended opcode 4: set Discriminator to 63
  [0x000008fd]  Advance Line by 0 to 47
  [0x000008ff]  Advance PC by fixed size amount 12 to 0x544
  [0x00000902]  Copy (view 234)
  [0x00000903]  Extended opcode 4: set Discriminator to 63
  [0x00000907]  Advance Line by 0 to 47
  [0x00000909]  Advance PC by fixed size amount 0 to 0x544
  [0x0000090c]  Copy (view 235)
  [0x0000090d]  Extended opcode 4: set Discriminator to 63
  [0x00000911]  Advance Line by 0 to 47
  [0x00000913]  Advance PC by fixed size amount 4 to 0x548
  [0x00000916]  Copy (view 236)
  [0x00000917]  Set is_stmt to 0
  [0x00000918]  Advance Line by 0 to 47
  [0x0000091a]  Advance PC by fixed size amount 8 to 0x550
  [0x0000091d]  Copy (view 237)
  [0x0000091e]  Extended opcode 4: set Discriminator to 79
  [0x00000922]  Set is_stmt to 1
  [0x00000923]  Advance Line by 0 to 47
  [0x00000925]  Advance PC by fixed size amount 12 to 0x55c
  [0x00000928]  Copy (view 238)
  [0x00000929]  Extended opcode 4: set Discriminator to 79
  [0x0000092d]  Advance Line by 0 to 47
  [0x0000092f]  Advance PC by fixed size amount 0 to 0x55c
  [0x00000932]  Copy (view 239)
  [0x00000933]  Extended opcode 4: set Discriminator to 79
  [0x00000937]  Advance Line by 0 to 47
  [0x00000939]  Advance PC by fixed size amount 8 to 0x564
  [0x0000093c]  Copy (view 240)
  [0x0000093d]  Extended opcode 4: set Discriminator to 80
  [0x00000941]  Set is_stmt to 0
  [0x00000942]  Advance Line by 0 to 47
  [0x00000944]  Advance PC by fixed size amount 4 to 0x568
  [0x00000947]  Copy (view 241)
  [0x00000948]  Advance Line by 0 to 47
  [0x0000094a]  Advance PC by fixed size amount 4 to 0x56c
  [0x0000094d]  Copy (view 242)
  [0x0000094e]  Extended opcode 4: set Discriminator to 90
  [0x00000952]  Set is_stmt to 1
  [0x00000953]  Advance Line by 0 to 47
  [0x00000955]  Advance PC by fixed size amount 8 to 0x574
  [0x00000958]  Copy (view 243)
  [0x00000959]  Extended opcode 4: set Discriminator to 90
  [0x0000095d]  Advance Line by 0 to 47
  [0x0000095f]  Advance PC by fixed size amount 0 to 0x574
  [0x00000962]  Copy (view 244)
  [0x00000963]  Extended opcode 4: set Discriminator to 90
  [0x00000967]  Advance Line by 0 to 47
  [0x00000969]  Advance PC by fixed size amount 0 to 0x574
  [0x0000096c]  Copy (view 245)
  [0x0000096d]  Extended opcode 4: set Discriminator to 90
  [0x00000971]  Advance Line by 0 to 47
  [0x00000973]  Advance PC by fixed size amount 0 to 0x574
  [0x00000976]  Copy (view 246)
  [0x00000977]  Extended opcode 4: set Discriminator to 90
  [0x0000097b]  Advance Line by 0 to 47
  [0x0000097d]  Advance PC by fixed size amount 0 to 0x574
  [0x00000980]  Copy (view 247)
  [0x00000981]  Extended opcode 4: set Discriminator to 90
  [0x00000985]  Advance Line by 0 to 47
  [0x00000987]  Advance PC by fixed size amount 0 to 0x574
  [0x0000098a]  Copy (view 248)
  [0x0000098b]  Extended opcode 4: set Discriminator to 90
  [0x0000098f]  Advance Line by 0 to 47
  [0x00000991]  Advance PC by fixed size amount 0 to 0x574
  [0x00000994]  Copy (view 249)
  [0x00000995]  Set column to 1
  [0x00000997]  Extended opcode 4: set Discriminator to 90
  [0x0000099b]  Set is_stmt to 0
  [0x0000099c]  Advance Line by 4 to 51
  [0x0000099e]  Advance PC by fixed size amount 20 to 0x588
  [0x000009a1]  Copy (view 250)
  [0x000009a2]  Set column to 3
  [0x000009a4]  Extended opcode 4: set Discriminator to 90
  [0x000009a8]  Advance Line by -4 to 47
  [0x000009aa]  Advance PC by fixed size amount 4 to 0x58c
  [0x000009ad]  Copy (view 251)
  [0x000009ae]  Set column to 1
  [0x000009b0]  Extended opcode 4: set Discriminator to 90
  [0x000009b4]  Advance Line by 4 to 51
  [0x000009b6]  Advance PC by fixed size amount 4 to 0x590
  [0x000009b9]  Copy (view 252)
  [0x000009ba]  Set column to 3
  [0x000009bc]  Extended opcode 4: set Discriminator to 90
  [0x000009c0]  Advance Line by -4 to 47
  [0x000009c2]  Advance PC by fixed size amount 4 to 0x594
  [0x000009c5]  Copy (view 253)
  [0x000009c6]  Extended opcode 4: set Discriminator to 90
  [0x000009ca]  Set is_stmt to 1
  [0x000009cb]  Advance Line by 0 to 47
  [0x000009cd]  Advance PC by fixed size amount 4 to 0x598
  [0x000009d0]  Copy (view 254)
  [0x000009d1]  Extended opcode 4: set Discriminator to 90
  [0x000009d5]  Advance Line by 0 to 47
  [0x000009d7]  Advance PC by fixed size amount 0 to 0x598
  [0x000009da]  Copy (view 255)
  [0x000009db]  Extended opcode 4: set Discriminator to 90
  [0x000009df]  Advance Line by 0 to 47
  [0x000009e1]  Advance PC by fixed size amount 0 to 0x598
  [0x000009e4]  Copy (view 256)
  [0x000009e5]  Extended opcode 4: set Discriminator to 90
  [0x000009e9]  Advance Line by 1 to 48
  [0x000009eb]  Advance PC by fixed size amount 0 to 0x598
  [0x000009ee]  Copy (view 257)
  [0x000009ef]  Extended opcode 4: set Discriminator to 90
  [0x000009f3]  Advance Line by 0 to 48
  [0x000009f5]  Advance PC by fixed size amount 0 to 0x598
  [0x000009f8]  Copy (view 258)
  [0x000009f9]  Extended opcode 4: set Discriminator to 90
  [0x000009fd]  Advance Line by 0 to 48
  [0x000009ff]  Advance PC by fixed size amount 0 to 0x598
  [0x00000a02]  Copy (view 259)
  [0x00000a03]  Extended opcode 4: set Discriminator to 90
  [0x00000a07]  Advance Line by 2 to 50
  [0x00000a09]  Advance PC by fixed size amount 0 to 0x598
  [0x00000a0c]  Copy (view 260)
  [0x00000a0d]  Set column to 1
  [0x00000a0f]  Extended opcode 4: set Discriminator to 90
  [0x00000a13]  Set is_stmt to 0
  [0x00000a14]  Advance Line by 1 to 51
  [0x00000a16]  Advance PC by fixed size amount 0 to 0x598
  [0x00000a19]  Copy (view 261)
  [0x00000a1a]  Set column to 3
  [0x00000a1c]  Advance Line by -6 to 45
  [0x00000a1e]  Advance PC by fixed size amount 20 to 0x5ac
  [0x00000a21]  Copy (view 262)
  [0x00000a22]  Advance Line by 1 to 46
  [0x00000a24]  Advance PC by fixed size amount 4 to 0x5b0
  [0x00000a27]  Copy (view 263)
  [0x00000a28]  Advance PC by fixed size amount 16 to 0x5c0
  [0x00000a2b]  Extended opcode 1: End of Sequence


  Offset:                      0xa2e
  Length:                      2106
  DWARF Version:               3
  Prologue Length:             79
  Minimum Instruction Length:  1
  Initial value of 'is_stmt':  1
  Line Base:                   -5
  Line Range:                  14
  Opcode Base:                 13

 Opcodes:
  Opcode 1 has 0 args
  Opcode 2 has 1 arg
  Opcode 3 has 1 arg
  Opcode 4 has 1 arg
  Opcode 5 has 1 arg
  Opcode 6 has 0 args
  Opcode 7 has 0 args
  Opcode 8 has 0 args
  Opcode 9 has 1 arg
  Opcode 10 has 0 args
  Opcode 11 has 0 args
  Opcode 12 has 1 arg

 The Directory Table (offset 0xa49):
  1	../../.././riscv-gcc/libgcc/soft-fp

 The File Name Table (offset 0xa6e):
  Entry	Dir	Time	Size	Name
  1	1	0	0	divsf3.c
  2	1	0	0	single.h

 Line Number Statements:
  [0x00000a87]  Set column to 1
  [0x00000a89]  Extended opcode 2: set Address to 0x5c0
  [0x00000a90]  Advance Line by 35 to 36
  [0x00000a92]  Copy
  [0x00000a93]  Set column to 3
  [0x00000a95]  Advance Line by 1 to 37
  [0x00000a97]  Advance PC by fixed size amount 0 to 0x5c0
  [0x00000a9a]  Copy (view 1)
  [0x00000a9b]  Advance Line by 0 to 37
  [0x00000a9d]  Advance PC by fixed size amount 0 to 0x5c0
  [0x00000aa0]  Copy (view 2)
  [0x00000aa1]  Set column to 13
  [0x00000aa3]  Advance Line by 0 to 37
  [0x00000aa5]  Advance PC by fixed size amount 0 to 0x5c0
  [0x00000aa8]  Copy (view 3)
  [0x00000aa9]  Set column to 3
  [0x00000aab]  Advance Line by 1 to 38
  [0x00000aad]  Advance PC by fixed size amount 0 to 0x5c0
  [0x00000ab0]  Copy (view 4)
  [0x00000ab1]  Advance Line by 0 to 38
  [0x00000ab3]  Advance PC by fixed size amount 0 to 0x5c0
  [0x00000ab6]  Copy (view 5)
  [0x00000ab7]  Advance Line by 0 to 38
  [0x00000ab9]  Advance PC by fixed size amount 0 to 0x5c0
  [0x00000abc]  Copy (view 6)
  [0x00000abd]  Advance Line by 0 to 38
  [0x00000abf]  Advance PC by fixed size amount 0 to 0x5c0
  [0x00000ac2]  Copy (view 7)
  [0x00000ac3]  Advance Line by 1 to 39
  [0x00000ac5]  Advance PC by fixed size amount 0 to 0x5c0
  [0x00000ac8]  Copy (view 8)
  [0x00000ac9]  Advance Line by 0 to 39
  [0x00000acb]  Advance PC by fixed size amount 0 to 0x5c0
  [0x00000ace]  Copy (view 9)
  [0x00000acf]  Advance Line by 0 to 39
  [0x00000ad1]  Advance PC by fixed size amount 0 to 0x5c0
  [0x00000ad4]  Copy (view 10)
  [0x00000ad5]  Advance Line by 0 to 39
  [0x00000ad7]  Advance PC by fixed size amount 0 to 0x5c0
  [0x00000ada]  Copy (view 11)
  [0x00000adb]  Advance Line by 1 to 40
  [0x00000add]  Advance PC by fixed size amount 0 to 0x5c0
  [0x00000ae0]  Copy (view 12)
  [0x00000ae1]  Advance Line by 0 to 40
  [0x00000ae3]  Advance PC by fixed size amount 0 to 0x5c0
  [0x00000ae6]  Copy (view 13)
  [0x00000ae7]  Advance Line by 0 to 40
  [0x00000ae9]  Advance PC by fixed size amount 0 to 0x5c0
  [0x00000aec]  Copy (view 14)
  [0x00000aed]  Advance Line by 0 to 40
  [0x00000aef]  Advance PC by fixed size amount 0 to 0x5c0
  [0x00000af2]  Copy (view 15)
  [0x00000af3]  Advance Line by 1 to 41
  [0x00000af5]  Advance PC by fixed size amount 0 to 0x5c0
  [0x00000af8]  Copy (view 16)
  [0x00000af9]  Advance Line by 2 to 43
  [0x00000afb]  Advance PC by fixed size amount 0 to 0x5c0
  [0x00000afe]  Copy (view 17)
  [0x00000aff]  Advance Line by 1 to 44
  [0x00000b01]  Advance PC by fixed size amount 0 to 0x5c0
  [0x00000b04]  Copy (view 18)
  [0x00000b05]  Advance Line by 0 to 44
  [0x00000b07]  Advance PC by fixed size amount 0 to 0x5c0
  [0x00000b0a]  Copy (view 19)
  [0x00000b0b]  Advance Line by 0 to 44
  [0x00000b0d]  Advance PC by fixed size amount 0 to 0x5c0
  [0x00000b10]  Copy (view 20)
  [0x00000b11]  Advance Line by 0 to 44
  [0x00000b13]  Advance PC by fixed size amount 0 to 0x5c0
  [0x00000b16]  Copy (view 21)
  [0x00000b17]  Advance Line by 0 to 44
  [0x00000b19]  Advance PC by fixed size amount 0 to 0x5c0
  [0x00000b1c]  Copy (view 22)
  [0x00000b1d]  Set column to 1
  [0x00000b1f]  Set is_stmt to 0
  [0x00000b20]  Advance Line by -8 to 36
  [0x00000b22]  Advance PC by fixed size amount 0 to 0x5c0
  [0x00000b25]  Copy (view 23)
  [0x00000b26]  Set column to 3
  [0x00000b28]  Advance Line by 8 to 44
  [0x00000b2a]  Advance PC by fixed size amount 24 to 0x5d8
  [0x00000b2d]  Copy (view 24)
  [0x00000b2e]  Set column to 1
  [0x00000b30]  Advance Line by -8 to 36
  [0x00000b32]  Advance PC by fixed size amount 4 to 0x5dc
  [0x00000b35]  Copy (view 25)
  [0x00000b36]  Advance Line by 0 to 36
  [0x00000b38]  Advance PC by fixed size amount 32 to 0x5fc
  [0x00000b3b]  Copy (view 26)
  [0x00000b3c]  Set column to 3
  [0x00000b3e]  Advance Line by 8 to 44
  [0x00000b40]  Advance PC by fixed size amount 4 to 0x600
  [0x00000b43]  Copy (view 27)
  [0x00000b44]  Set is_stmt to 1
  [0x00000b45]  Advance Line by 0 to 44
  [0x00000b47]  Advance PC by fixed size amount 4 to 0x604
  [0x00000b4a]  Copy (view 28)
  [0x00000b4b]  Advance Line by 0 to 44
  [0x00000b4d]  Advance PC by fixed size amount 0 to 0x604
  [0x00000b50]  Copy (view 29)
  [0x00000b51]  Advance Line by 0 to 44
  [0x00000b53]  Advance PC by fixed size amount 4 to 0x608
  [0x00000b56]  Copy (view 30)
  [0x00000b57]  Advance Line by 0 to 44
  [0x00000b59]  Advance PC by fixed size amount 0 to 0x608
  [0x00000b5c]  Copy (view 31)
  [0x00000b5d]  Advance Line by 0 to 44
  [0x00000b5f]  Advance PC by fixed size amount 0 to 0x608
  [0x00000b62]  Copy (view 32)
  [0x00000b63]  Extended opcode 4: set Discriminator to 1
  [0x00000b67]  Advance Line by 0 to 44
  [0x00000b69]  Advance PC by fixed size amount 12 to 0x614
  [0x00000b6c]  Copy (view 33)
  [0x00000b6d]  Extended opcode 4: set Discriminator to 1
  [0x00000b71]  Advance Line by 0 to 44
  [0x00000b73]  Advance PC by fixed size amount 0 to 0x614
  [0x00000b76]  Copy (view 34)
  [0x00000b77]  Extended opcode 4: set Discriminator to 1
  [0x00000b7b]  Advance Line by 0 to 44
  [0x00000b7d]  Advance PC by fixed size amount 0 to 0x614
  [0x00000b80]  Copy (view 35)
  [0x00000b81]  Extended opcode 4: set Discriminator to 1
  [0x00000b85]  Advance Line by 0 to 44
  [0x00000b87]  Advance PC by fixed size amount 0 to 0x614
  [0x00000b8a]  Copy (view 36)
  [0x00000b8b]  Extended opcode 4: set Discriminator to 1
  [0x00000b8f]  Advance Line by 0 to 44
  [0x00000b91]  Advance PC by fixed size amount 12 to 0x620
  [0x00000b94]  Copy (view 37)
  [0x00000b95]  Extended opcode 4: set Discriminator to 1
  [0x00000b99]  Advance Line by 0 to 44
  [0x00000b9b]  Advance PC by fixed size amount 0 to 0x620
  [0x00000b9e]  Copy (view 38)
  [0x00000b9f]  Extended opcode 4: set Discriminator to 1
  [0x00000ba3]  Advance Line by 0 to 44
  [0x00000ba5]  Advance PC by fixed size amount 4 to 0x624
  [0x00000ba8]  Copy (view 39)
  [0x00000ba9]  Extended opcode 4: set Discriminator to 1
  [0x00000bad]  Advance Line by 0 to 44
  [0x00000baf]  Advance PC by fixed size amount 0 to 0x624
  [0x00000bb2]  Copy (view 40)
  [0x00000bb3]  Extended opcode 4: set Discriminator to 15
  [0x00000bb7]  Advance Line by 0 to 44
  [0x00000bb9]  Advance PC by fixed size amount 0 to 0x624
  [0x00000bbc]  Copy (view 41)
  [0x00000bbd]  Extended opcode 4: set Discriminator to 15
  [0x00000bc1]  Advance Line by 0 to 44
  [0x00000bc3]  Advance PC by fixed size amount 0 to 0x624
  [0x00000bc6]  Copy (view 42)
  [0x00000bc7]  Extended opcode 4: set Discriminator to 8
  [0x00000bcb]  Advance Line by 0 to 44
  [0x00000bcd]  Advance PC by fixed size amount 4 to 0x628
  [0x00000bd0]  Copy (view 43)
  [0x00000bd1]  Extended opcode 4: set Discriminator to 8
  [0x00000bd5]  Advance Line by 0 to 44
  [0x00000bd7]  Advance PC by fixed size amount 0 to 0x628
  [0x00000bda]  Copy (view 44)
  [0x00000bdb]  Extended opcode 4: set Discriminator to 8
  [0x00000bdf]  Advance Line by 1 to 45
  [0x00000be1]  Advance PC by fixed size amount 0 to 0x628
  [0x00000be4]  Copy (view 45)
  [0x00000be5]  Extended opcode 4: set Discriminator to 8
  [0x00000be9]  Advance Line by 0 to 45
  [0x00000beb]  Advance PC by fixed size amount 0 to 0x628
  [0x00000bee]  Copy (view 46)
  [0x00000bef]  Extended opcode 4: set Discriminator to 8
  [0x00000bf3]  Advance Line by 0 to 45
  [0x00000bf5]  Advance PC by fixed size amount 0 to 0x628
  [0x00000bf8]  Copy (view 47)
  [0x00000bf9]  Extended opcode 4: set Discriminator to 8
  [0x00000bfd]  Advance Line by 0 to 45
  [0x00000bff]  Advance PC by fixed size amount 0 to 0x628
  [0x00000c02]  Copy (view 48)
  [0x00000c03]  Extended opcode 4: set Discriminator to 8
  [0x00000c07]  Advance Line by 0 to 45
  [0x00000c09]  Advance PC by fixed size amount 0 to 0x628
  [0x00000c0c]  Copy (view 49)
  [0x00000c0d]  Extended opcode 4: set Discriminator to 8
  [0x00000c11]  Advance Line by 0 to 45
  [0x00000c13]  Advance PC by fixed size amount 16 to 0x638
  [0x00000c16]  Copy (view 50)
  [0x00000c17]  Extended opcode 4: set Discriminator to 8
  [0x00000c1b]  Advance Line by 0 to 45
  [0x00000c1d]  Advance PC by fixed size amount 0 to 0x638
  [0x00000c20]  Copy (view 51)
  [0x00000c21]  Extended opcode 4: set Discriminator to 8
  [0x00000c25]  Advance Line by 0 to 45
  [0x00000c27]  Advance PC by fixed size amount 4 to 0x63c
  [0x00000c2a]  Copy (view 52)
  [0x00000c2b]  Extended opcode 4: set Discriminator to 8
  [0x00000c2f]  Advance Line by 0 to 45
  [0x00000c31]  Advance PC by fixed size amount 0 to 0x63c
  [0x00000c34]  Copy (view 53)
  [0x00000c35]  Extended opcode 4: set Discriminator to 8
  [0x00000c39]  Advance Line by 0 to 45
  [0x00000c3b]  Advance PC by fixed size amount 0 to 0x63c
  [0x00000c3e]  Copy (view 54)
  [0x00000c3f]  Set is_stmt to 0
  [0x00000c40]  Advance Line by 0 to 45
  [0x00000c42]  Advance PC by fixed size amount 4 to 0x640
  [0x00000c45]  Copy (view 55)
  [0x00000c46]  Extended opcode 4: set Discriminator to 1
  [0x00000c4a]  Set is_stmt to 1
  [0x00000c4b]  Advance Line by 0 to 45
  [0x00000c4d]  Advance PC by fixed size amount 8 to 0x648
  [0x00000c50]  Copy (view 56)
  [0x00000c51]  Extended opcode 4: set Discriminator to 1
  [0x00000c55]  Advance Line by 0 to 45
  [0x00000c57]  Advance PC by fixed size amount 0 to 0x648
  [0x00000c5a]  Copy (view 57)
  [0x00000c5b]  Extended opcode 4: set Discriminator to 1
  [0x00000c5f]  Advance Line by 0 to 45
  [0x00000c61]  Advance PC by fixed size amount 0 to 0x648
  [0x00000c64]  Copy (view 58)
  [0x00000c65]  Extended opcode 4: set Discriminator to 1
  [0x00000c69]  Advance Line by 0 to 45
  [0x00000c6b]  Advance PC by fixed size amount 0 to 0x648
  [0x00000c6e]  Copy (view 59)
  [0x00000c6f]  Extended opcode 4: set Discriminator to 1
  [0x00000c73]  Advance Line by 0 to 45
  [0x00000c75]  Advance PC by fixed size amount 12 to 0x654
  [0x00000c78]  Copy (view 60)
  [0x00000c79]  Extended opcode 4: set Discriminator to 1
  [0x00000c7d]  Advance Line by 0 to 45
  [0x00000c7f]  Advance PC by fixed size amount 0 to 0x654
  [0x00000c82]  Copy (view 61)
  [0x00000c83]  Extended opcode 4: set Discriminator to 1
  [0x00000c87]  Advance Line by 0 to 45
  [0x00000c89]  Advance PC by fixed size amount 4 to 0x658
  [0x00000c8c]  Copy (view 62)
  [0x00000c8d]  Extended opcode 4: set Discriminator to 1
  [0x00000c91]  Advance Line by 0 to 45
  [0x00000c93]  Advance PC by fixed size amount 0 to 0x658
  [0x00000c96]  Copy (view 63)
  [0x00000c97]  Extended opcode 4: set Discriminator to 15
  [0x00000c9b]  Advance Line by 0 to 45
  [0x00000c9d]  Advance PC by fixed size amount 0 to 0x658
  [0x00000ca0]  Copy (view 64)
  [0x00000ca1]  Extended opcode 4: set Discriminator to 15
  [0x00000ca5]  Advance Line by 0 to 45
  [0x00000ca7]  Advance PC by fixed size amount 0 to 0x658
  [0x00000caa]  Copy (view 65)
  [0x00000cab]  Extended opcode 4: set Discriminator to 8
  [0x00000caf]  Advance Line by 0 to 45
  [0x00000cb1]  Advance PC by fixed size amount 4 to 0x65c
  [0x00000cb4]  Copy (view 66)
  [0x00000cb5]  Extended opcode 4: set Discriminator to 8
  [0x00000cb9]  Advance Line by 0 to 45
  [0x00000cbb]  Advance PC by fixed size amount 0 to 0x65c
  [0x00000cbe]  Copy (view 67)
  [0x00000cbf]  Extended opcode 4: set Discriminator to 8
  [0x00000cc3]  Advance Line by 1 to 46
  [0x00000cc5]  Advance PC by fixed size amount 0 to 0x65c
  [0x00000cc8]  Copy (view 68)
  [0x00000cc9]  Extended opcode 4: set Discriminator to 8
  [0x00000ccd]  Advance Line by 0 to 46
  [0x00000ccf]  Advance PC by fixed size amount 0 to 0x65c
  [0x00000cd2]  Copy (view 69)
  [0x00000cd3]  Extended opcode 4: set Discriminator to 8
  [0x00000cd7]  Advance Line by 0 to 46
  [0x00000cd9]  Advance PC by fixed size amount 24 to 0x674
  [0x00000cdc]  Copy (view 70)
  [0x00000cdd]  Extended opcode 4: set Discriminator to 8
  [0x00000ce1]  Advance Line by 0 to 46
  [0x00000ce3]  Advance PC by fixed size amount 0 to 0x674
  [0x00000ce6]  Copy (view 71)
  [0x00000ce7]  Extended opcode 4: set Discriminator to 2
  [0x00000ceb]  Advance Line by -2 to 44
  [0x00000ced]  Advance PC by fixed size amount 28 to 0x690
  [0x00000cf0]  Copy (view 72)
  [0x00000cf1]  Extended opcode 4: set Discriminator to 15
  [0x00000cf5]  Advance Line by 0 to 44
  [0x00000cf7]  Advance PC by fixed size amount 4 to 0x694
  [0x00000cfa]  Copy (view 73)
  [0x00000cfb]  Extended opcode 4: set Discriminator to 15
  [0x00000cff]  Advance Line by 0 to 44
  [0x00000d01]  Advance PC by fixed size amount 0 to 0x694
  [0x00000d04]  Copy (view 74)
  [0x00000d05]  Extended opcode 4: set Discriminator to 15
  [0x00000d09]  Advance Line by 0 to 44
  [0x00000d0b]  Advance PC by fixed size amount 0 to 0x694
  [0x00000d0e]  Copy (view 75)
  [0x00000d0f]  Extended opcode 4: set Discriminator to 15
  [0x00000d13]  Advance Line by 0 to 44
  [0x00000d15]  Advance PC by fixed size amount 0 to 0x694
  [0x00000d18]  Copy (view 76)
  [0x00000d19]  Extended opcode 4: set Discriminator to 15
  [0x00000d1d]  Advance Line by 0 to 44
  [0x00000d1f]  Advance PC by fixed size amount 0 to 0x694
  [0x00000d22]  Copy (view 77)
  [0x00000d23]  Extended opcode 4: set Discriminator to 15
  [0x00000d27]  Advance Line by 0 to 44
  [0x00000d29]  Advance PC by fixed size amount 0 to 0x694
  [0x00000d2c]  Copy (view 78)
  [0x00000d2d]  Extended opcode 4: set Discriminator to 15
  [0x00000d31]  Advance Line by 0 to 44
  [0x00000d33]  Advance PC by fixed size amount 8 to 0x69c
  [0x00000d36]  Copy (view 79)
  [0x00000d37]  Extended opcode 4: set Discriminator to 15
  [0x00000d3b]  Advance Line by 0 to 44
  [0x00000d3d]  Advance PC by fixed size amount 0 to 0x69c
  [0x00000d40]  Copy (view 80)
  [0x00000d41]  Extended opcode 4: set Discriminator to 15
  [0x00000d45]  Advance Line by 0 to 44
  [0x00000d47]  Advance PC by fixed size amount 0 to 0x69c
  [0x00000d4a]  Copy (view 81)
  [0x00000d4b]  Extended opcode 4: set Discriminator to 15
  [0x00000d4f]  Advance Line by 0 to 44
  [0x00000d51]  Advance PC by fixed size amount 0 to 0x69c
  [0x00000d54]  Copy (view 82)
  [0x00000d55]  Extended opcode 4: set Discriminator to 15
  [0x00000d59]  Advance Line by 0 to 44
  [0x00000d5b]  Advance PC by fixed size amount 0 to 0x69c
  [0x00000d5e]  Copy (view 83)
  [0x00000d5f]  Extended opcode 4: set Discriminator to 15
  [0x00000d63]  Advance Line by 0 to 44
  [0x00000d65]  Advance PC by fixed size amount 12 to 0x6a8
  [0x00000d68]  Copy (view 84)
  [0x00000d69]  Extended opcode 4: set Discriminator to 15
  [0x00000d6d]  Advance Line by 0 to 44
  [0x00000d6f]  Advance PC by fixed size amount 0 to 0x6a8
  [0x00000d72]  Copy (view 85)
  [0x00000d73]  Extended opcode 4: set Discriminator to 3
  [0x00000d77]  Advance Line by 0 to 44
  [0x00000d79]  Advance PC by fixed size amount 8 to 0x6b0
  [0x00000d7c]  Copy (view 86)
  [0x00000d7d]  Set is_stmt to 0
  [0x00000d7e]  Advance Line by 0 to 44
  [0x00000d80]  Advance PC by fixed size amount 12 to 0x6bc
  [0x00000d83]  Copy (view 87)
  [0x00000d84]  Extended opcode 4: set Discriminator to 2
  [0x00000d88]  Set is_stmt to 1
  [0x00000d89]  Advance Line by 1 to 45
  [0x00000d8b]  Advance PC by fixed size amount 20 to 0x6d0
  [0x00000d8e]  Copy (view 88)
  [0x00000d8f]  Extended opcode 4: set Discriminator to 15
  [0x00000d93]  Advance Line by 0 to 45
  [0x00000d95]  Advance PC by fixed size amount 4 to 0x6d4
  [0x00000d98]  Copy (view 89)
  [0x00000d99]  Extended opcode 4: set Discriminator to 15
  [0x00000d9d]  Advance Line by 0 to 45
  [0x00000d9f]  Advance PC by fixed size amount 0 to 0x6d4
  [0x00000da2]  Copy (view 90)
  [0x00000da3]  Extended opcode 4: set Discriminator to 15
  [0x00000da7]  Advance Line by 0 to 45
  [0x00000da9]  Advance PC by fixed size amount 0 to 0x6d4
  [0x00000dac]  Copy (view 91)
  [0x00000dad]  Extended opcode 4: set Discriminator to 15
  [0x00000db1]  Advance Line by 0 to 45
  [0x00000db3]  Advance PC by fixed size amount 0 to 0x6d4
  [0x00000db6]  Copy (view 92)
  [0x00000db7]  Extended opcode 4: set Discriminator to 15
  [0x00000dbb]  Advance Line by 0 to 45
  [0x00000dbd]  Advance PC by fixed size amount 0 to 0x6d4
  [0x00000dc0]  Copy (view 93)
  [0x00000dc1]  Extended opcode 4: set Discriminator to 15
  [0x00000dc5]  Advance Line by 0 to 45
  [0x00000dc7]  Advance PC by fixed size amount 0 to 0x6d4
  [0x00000dca]  Copy (view 94)
  [0x00000dcb]  Extended opcode 4: set Discriminator to 15
  [0x00000dcf]  Advance Line by 0 to 45
  [0x00000dd1]  Advance PC by fixed size amount 8 to 0x6dc
  [0x00000dd4]  Copy (view 95)
  [0x00000dd5]  Extended opcode 4: set Discriminator to 15
  [0x00000dd9]  Advance Line by 0 to 45
  [0x00000ddb]  Advance PC by fixed size amount 0 to 0x6dc
  [0x00000dde]  Copy (view 96)
  [0x00000ddf]  Extended opcode 4: set Discriminator to 15
  [0x00000de3]  Advance Line by 0 to 45
  [0x00000de5]  Advance PC by fixed size amount 0 to 0x6dc
  [0x00000de8]  Copy (view 97)
  [0x00000de9]  Extended opcode 4: set Discriminator to 15
  [0x00000ded]  Advance Line by 0 to 45
  [0x00000def]  Advance PC by fixed size amount 0 to 0x6dc
  [0x00000df2]  Copy (view 98)
  [0x00000df3]  Extended opcode 4: set Discriminator to 15
  [0x00000df7]  Advance Line by 0 to 45
  [0x00000df9]  Advance PC by fixed size amount 0 to 0x6dc
  [0x00000dfc]  Copy (view 99)
  [0x00000dfd]  Extended opcode 4: set Discriminator to 15
  [0x00000e01]  Advance Line by 0 to 45
  [0x00000e03]  Advance PC by fixed size amount 8 to 0x6e4
  [0x00000e06]  Copy (view 100)
  [0x00000e07]  Extended opcode 4: set Discriminator to 15
  [0x00000e0b]  Advance Line by 0 to 45
  [0x00000e0d]  Advance PC by fixed size amount 0 to 0x6e4
  [0x00000e10]  Copy (view 101)
  [0x00000e11]  Extended opcode 4: set Discriminator to 3
  [0x00000e15]  Advance Line by 0 to 45
  [0x00000e17]  Advance PC by fixed size amount 12 to 0x6f0
  [0x00000e1a]  Copy (view 102)
  [0x00000e1b]  Set is_stmt to 0
  [0x00000e1c]  Advance Line by 0 to 45
  [0x00000e1e]  Advance PC by fixed size amount 12 to 0x6fc
  [0x00000e21]  Copy (view 103)
  [0x00000e22]  Extended opcode 4: set Discriminator to 2
  [0x00000e26]  Set is_stmt to 1
  [0x00000e27]  Advance Line by 1 to 46
  [0x00000e29]  Advance PC by fixed size amount 20 to 0x710
  [0x00000e2c]  Copy (view 104)
  [0x00000e2d]  Extended opcode 4: set Discriminator to 2
  [0x00000e31]  Advance Line by 0 to 46
  [0x00000e33]  Advance PC by fixed size amount 0 to 0x710
  [0x00000e36]  Copy (view 105)
  [0x00000e37]  Extended opcode 4: set Discriminator to 2
  [0x00000e3b]  Advance Line by 0 to 46
  [0x00000e3d]  Advance PC by fixed size amount 0 to 0x710
  [0x00000e40]  Copy (view 106)
  [0x00000e41]  Extended opcode 4: set Discriminator to 2
  [0x00000e45]  Advance Line by 0 to 46
  [0x00000e47]  Advance PC by fixed size amount 0 to 0x710
  [0x00000e4a]  Copy (view 107)
  [0x00000e4b]  Extended opcode 4: set Discriminator to 2
  [0x00000e4f]  Advance Line by 0 to 46
  [0x00000e51]  Advance PC by fixed size amount 0 to 0x710
  [0x00000e54]  Copy (view 108)
  [0x00000e55]  Extended opcode 4: set Discriminator to 2
  [0x00000e59]  Advance Line by 0 to 46
  [0x00000e5b]  Advance PC by fixed size amount 0 to 0x710
  [0x00000e5e]  Copy (view 109)
  [0x00000e5f]  Extended opcode 4: set Discriminator to 2
  [0x00000e63]  Advance Line by 0 to 46
  [0x00000e65]  Advance PC by fixed size amount 0 to 0x710
  [0x00000e68]  Copy (view 110)
  [0x00000e69]  Extended opcode 4: set Discriminator to 2
  [0x00000e6d]  Advance Line by 0 to 46
  [0x00000e6f]  Advance PC by fixed size amount 0 to 0x710
  [0x00000e72]  Copy (view 111)
  [0x00000e73]  Extended opcode 4: set Discriminator to 2
  [0x00000e77]  Advance Line by 0 to 46
  [0x00000e79]  Advance PC by fixed size amount 4 to 0x714
  [0x00000e7c]  Copy (view 112)
  [0x00000e7d]  Extended opcode 4: set Discriminator to 10
  [0x00000e81]  Advance Line by 0 to 46
  [0x00000e83]  Advance PC by fixed size amount 4 to 0x718
  [0x00000e86]  Copy (view 113)
  [0x00000e87]  Extended opcode 4: set Discriminator to 10
  [0x00000e8b]  Advance Line by 0 to 46
  [0x00000e8d]  Advance PC by fixed size amount 4 to 0x71c
  [0x00000e90]  Copy (view 114)
  [0x00000e91]  Extended opcode 4: set Discriminator to 10
  [0x00000e95]  Advance Line by 0 to 46
  [0x00000e97]  Advance PC by fixed size amount 0 to 0x71c
  [0x00000e9a]  Copy (view 115)
  [0x00000e9b]  Extended opcode 4: set Discriminator to 13
  [0x00000e9f]  Advance Line by 0 to 46
  [0x00000ea1]  Advance PC by fixed size amount 4 to 0x720
  [0x00000ea4]  Copy (view 116)
  [0x00000ea5]  Extended opcode 4: set Discriminator to 13
  [0x00000ea9]  Advance Line by 0 to 46
  [0x00000eab]  Advance PC by fixed size amount 0 to 0x720
  [0x00000eae]  Copy (view 117)
  [0x00000eaf]  Extended opcode 4: set Discriminator to 13
  [0x00000eb3]  Advance Line by 0 to 46
  [0x00000eb5]  Advance PC by fixed size amount 0 to 0x720
  [0x00000eb8]  Copy (view 118)
  [0x00000eb9]  Extended opcode 4: set Discriminator to 13
  [0x00000ebd]  Advance Line by 0 to 46
  [0x00000ebf]  Advance PC by fixed size amount 0 to 0x720
  [0x00000ec2]  Copy (view 119)
  [0x00000ec3]  Extended opcode 4: set Discriminator to 13
  [0x00000ec7]  Advance Line by 0 to 46
  [0x00000ec9]  Advance PC by fixed size amount 4 to 0x724
  [0x00000ecc]  Copy (view 120)
  [0x00000ecd]  Extended opcode 4: set Discriminator to 13
  [0x00000ed1]  Advance Line by 0 to 46
  [0x00000ed3]  Advance PC by fixed size amount 24 to 0x73c
  [0x00000ed6]  Copy (view 121)
  [0x00000ed7]  Extended opcode 4: set Discriminator to 13
  [0x00000edb]  Advance Line by 0 to 46
  [0x00000edd]  Advance PC by fixed size amount 0 to 0x73c
  [0x00000ee0]  Copy (view 122)
  [0x00000ee1]  Extended opcode 4: set Discriminator to 13
  [0x00000ee5]  Advance Line by 0 to 46
  [0x00000ee7]  Advance PC by fixed size amount 8 to 0x744
  [0x00000eea]  Copy (view 123)
  [0x00000eeb]  Extended opcode 4: set Discriminator to 13
  [0x00000eef]  Advance Line by 0 to 46
  [0x00000ef1]  Advance PC by fixed size amount 12 to 0x750
  [0x00000ef4]  Copy (view 124)
  [0x00000ef5]  Extended opcode 4: set Discriminator to 13
  [0x00000ef9]  Advance Line by 0 to 46
  [0x00000efb]  Advance PC by fixed size amount 24 to 0x768
  [0x00000efe]  Copy (view 125)
  [0x00000eff]  Extended opcode 4: set Discriminator to 14
  [0x00000f03]  Advance Line by 0 to 46
  [0x00000f05]  Advance PC by fixed size amount 8 to 0x770
  [0x00000f08]  Copy (view 126)
  [0x00000f09]  Extended opcode 4: set Discriminator to 14
  [0x00000f0d]  Advance Line by 0 to 46
  [0x00000f0f]  Advance PC by fixed size amount 8 to 0x778
  [0x00000f12]  Copy (view 127)
  [0x00000f13]  Extended opcode 4: set Discriminator to 16
  [0x00000f17]  Advance Line by 0 to 46
  [0x00000f19]  Advance PC by fixed size amount 4 to 0x77c
  [0x00000f1c]  Copy (view 128)
  [0x00000f1d]  Extended opcode 4: set Discriminator to 18
  [0x00000f21]  Advance Line by 0 to 46
  [0x00000f23]  Advance PC by fixed size amount 4 to 0x780
  [0x00000f26]  Copy (view 129)
  [0x00000f27]  Extended opcode 4: set Discriminator to 20
  [0x00000f2b]  Advance Line by 0 to 46
  [0x00000f2d]  Advance PC by fixed size amount 8 to 0x788
  [0x00000f30]  Copy (view 130)
  [0x00000f31]  Extended opcode 4: set Discriminator to 20
  [0x00000f35]  Advance Line by 0 to 46
  [0x00000f37]  Advance PC by fixed size amount 4 to 0x78c
  [0x00000f3a]  Copy (view 131)
  [0x00000f3b]  Extended opcode 4: set Discriminator to 20
  [0x00000f3f]  Advance Line by 0 to 46
  [0x00000f41]  Advance PC by fixed size amount 0 to 0x78c
  [0x00000f44]  Copy (view 132)
  [0x00000f45]  Extended opcode 4: set Discriminator to 20
  [0x00000f49]  Advance Line by 0 to 46
  [0x00000f4b]  Advance PC by fixed size amount 20 to 0x7a0
  [0x00000f4e]  Copy (view 133)
  [0x00000f4f]  Extended opcode 4: set Discriminator to 20
  [0x00000f53]  Advance Line by 0 to 46
  [0x00000f55]  Advance PC by fixed size amount 12 to 0x7ac
  [0x00000f58]  Copy (view 134)
  [0x00000f59]  Extended opcode 4: set Discriminator to 20
  [0x00000f5d]  Advance Line by 0 to 46
  [0x00000f5f]  Advance PC by fixed size amount 16 to 0x7bc
  [0x00000f62]  Copy (view 135)
  [0x00000f63]  Extended opcode 4: set Discriminator to 21
  [0x00000f67]  Advance Line by 0 to 46
  [0x00000f69]  Advance PC by fixed size amount 8 to 0x7c4
  [0x00000f6c]  Copy (view 136)
  [0x00000f6d]  Extended opcode 4: set Discriminator to 21
  [0x00000f71]  Advance Line by 0 to 46
  [0x00000f73]  Advance PC by fixed size amount 8 to 0x7cc
  [0x00000f76]  Copy (view 137)
  [0x00000f77]  Extended opcode 4: set Discriminator to 23
  [0x00000f7b]  Advance Line by 0 to 46
  [0x00000f7d]  Advance PC by fixed size amount 4 to 0x7d0
  [0x00000f80]  Copy (view 138)
  [0x00000f81]  Extended opcode 4: set Discriminator to 25
  [0x00000f85]  Advance Line by 0 to 46
  [0x00000f87]  Advance PC by fixed size amount 4 to 0x7d4
  [0x00000f8a]  Copy (view 139)
  [0x00000f8b]  Extended opcode 4: set Discriminator to 27
  [0x00000f8f]  Advance Line by 0 to 46
  [0x00000f91]  Advance PC by fixed size amount 8 to 0x7dc
  [0x00000f94]  Copy (view 140)
  [0x00000f95]  Extended opcode 4: set Discriminator to 27
  [0x00000f99]  Advance Line by 0 to 46
  [0x00000f9b]  Advance PC by fixed size amount 0 to 0x7dc
  [0x00000f9e]  Copy (view 141)
  [0x00000f9f]  Extended opcode 4: set Discriminator to 27
  [0x00000fa3]  Advance Line by 0 to 46
  [0x00000fa5]  Advance PC by fixed size amount 0 to 0x7dc
  [0x00000fa8]  Copy (view 142)
  [0x00000fa9]  Extended opcode 4: set Discriminator to 27
  [0x00000fad]  Advance Line by 0 to 46
  [0x00000faf]  Advance PC by fixed size amount 0 to 0x7dc
  [0x00000fb2]  Copy (view 143)
  [0x00000fb3]  Extended opcode 4: set Discriminator to 27
  [0x00000fb7]  Advance Line by 0 to 46
  [0x00000fb9]  Advance PC by fixed size amount 0 to 0x7dc
  [0x00000fbc]  Copy (view 144)
  [0x00000fbd]  Extended opcode 4: set Discriminator to 27
  [0x00000fc1]  Advance Line by 0 to 46
  [0x00000fc3]  Advance PC by fixed size amount 20 to 0x7f0
  [0x00000fc6]  Copy (view 145)
  [0x00000fc7]  Extended opcode 4: set Discriminator to 27
  [0x00000fcb]  Advance Line by 0 to 46
  [0x00000fcd]  Advance PC by fixed size amount 0 to 0x7f0
  [0x00000fd0]  Copy (view 146)
  [0x00000fd1]  Extended opcode 4: set Discriminator to 27
  [0x00000fd5]  Advance Line by 0 to 46
  [0x00000fd7]  Advance PC by fixed size amount 0 to 0x7f0
  [0x00000fda]  Copy (view 147)
  [0x00000fdb]  Extended opcode 4: set Discriminator to 27
  [0x00000fdf]  Advance Line by 1 to 47
  [0x00000fe1]  Advance PC by fixed size amount 0 to 0x7f0
  [0x00000fe4]  Copy (view 148)
  [0x00000fe5]  Extended opcode 4: set Discriminator to 27
  [0x00000fe9]  Advance Line by 0 to 47
  [0x00000feb]  Advance PC by fixed size amount 0 to 0x7f0
  [0x00000fee]  Copy (view 149)
  [0x00000fef]  Extended opcode 4: set Discriminator to 27
  [0x00000ff3]  Advance Line by 0 to 47
  [0x00000ff5]  Advance PC by fixed size amount 0 to 0x7f0
  [0x00000ff8]  Copy (view 150)
  [0x00000ff9]  Extended opcode 4: set Discriminator to 2
  [0x00000ffd]  Advance Line by 0 to 47
  [0x00000fff]  Advance PC by fixed size amount 0 to 0x7f0
  [0x00001002]  Copy (view 151)
  [0x00001003]  Extended opcode 4: set Discriminator to 2
  [0x00001007]  Advance Line by 0 to 47
  [0x00001009]  Advance PC by fixed size amount 4 to 0x7f4
  [0x0000100c]  Copy (view 152)
  [0x0000100d]  Extended opcode 4: set Discriminator to 6
  [0x00001011]  Advance Line by 0 to 47
  [0x00001013]  Advance PC by fixed size amount 4 to 0x7f8
  [0x00001016]  Copy (view 153)
  [0x00001017]  Extended opcode 4: set Discriminator to 6
  [0x0000101b]  Advance Line by 0 to 47
  [0x0000101d]  Advance PC by fixed size amount 0 to 0x7f8
  [0x00001020]  Copy (view 154)
  [0x00001021]  Extended opcode 4: set Discriminator to 8
  [0x00001025]  Advance Line by 0 to 47
  [0x00001027]  Advance PC by fixed size amount 8 to 0x800
  [0x0000102a]  Copy (view 155)
  [0x0000102b]  Extended opcode 4: set Discriminator to 8
