
super_sorting_VGA_rv32i.elf:     file format elf32-littleriscv


Disassembly of section .vectors:

00000000 <reset_handler-0x18>:
   0:	00000013          	nop
   4:	00000013          	nop
   8:	00000013          	nop
   c:	00000013          	nop
  10:	00000013          	nop
  14:	0040006f          	j	18 <reset_handler>

00000018 <reset_handler>:
  18:	00000093          	li	ra,0
  1c:	00008113          	mv	sp,ra
  20:	00008193          	mv	gp,ra
  24:	00008213          	mv	tp,ra
  28:	00008293          	mv	t0,ra
  2c:	00008313          	mv	t1,ra
  30:	00008393          	mv	t2,ra
  34:	00008413          	mv	s0,ra
  38:	00008493          	mv	s1,ra
  3c:	00008513          	mv	a0,ra
  40:	00008593          	mv	a1,ra
  44:	00008613          	mv	a2,ra
  48:	00008693          	mv	a3,ra
  4c:	00008713          	mv	a4,ra
  50:	00008793          	mv	a5,ra
  54:	00008813          	mv	a6,ra
  58:	00008893          	mv	a7,ra
  5c:	00008913          	mv	s2,ra
  60:	00008993          	mv	s3,ra
  64:	00008a13          	mv	s4,ra
  68:	00008a93          	mv	s5,ra
  6c:	00008b13          	mv	s6,ra
  70:	00008b93          	mv	s7,ra
  74:	00008c13          	mv	s8,ra
  78:	00008c93          	mv	s9,ra
  7c:	00008d13          	mv	s10,ra
  80:	00008d93          	mv	s11,ra
  84:	00008e13          	mv	t3,ra
  88:	00008e93          	mv	t4,ra
  8c:	00008f13          	mv	t5,ra
  90:	00008f93          	mv	t6,ra
  94:	00c002b7          	lui	t0,0xc00
  98:	00c28293          	addi	t0,t0,12 # c0000c <_stack_start+0x7fec0c>
  9c:	0002a103          	lw	sp,0(t0)
  a0:	43c000ef          	jal	ra,4dc <main>
  a4:	00100073          	ebreak

Disassembly of section .text:

000000a8 <delay>:
  a8:	fe010113          	addi	sp,sp,-32
  ac:	00812e23          	sw	s0,28(sp)
  b0:	02010413          	addi	s0,sp,32
  b4:	fe042623          	sw	zero,-20(s0)
  b8:	0100006f          	j	c8 <delay+0x20>
  bc:	fec42783          	lw	a5,-20(s0)
  c0:	00178793          	addi	a5,a5,1
  c4:	fef42623          	sw	a5,-20(s0)
  c8:	fec42703          	lw	a4,-20(s0)
  cc:	000147b7          	lui	a5,0x14
  d0:	87f78793          	addi	a5,a5,-1921 # 1387f <_endtext+0x12ba7>
  d4:	fee7d4e3          	bge	a5,a4,bc <delay+0x14>
  d8:	00000013          	nop
  dc:	00000013          	nop
  e0:	01c12403          	lw	s0,28(sp)
  e4:	02010113          	addi	sp,sp,32
  e8:	00008067          	ret

000000ec <draw_stick>:
  ec:	fd010113          	addi	sp,sp,-48
  f0:	02812623          	sw	s0,44(sp)
  f4:	03010413          	addi	s0,sp,48
  f8:	fca42e23          	sw	a0,-36(s0)
  fc:	fcb42c23          	sw	a1,-40(s0)
 100:	fcc42a23          	sw	a2,-44(s0)
 104:	fcd42823          	sw	a3,-48(s0)
 108:	fd842783          	lw	a5,-40(s0)
 10c:	14178793          	addi	a5,a5,321
 110:	00179793          	slli	a5,a5,0x1
 114:	fd442703          	lw	a4,-44(s0)
 118:	00f707b3          	add	a5,a4,a5
 11c:	fef42223          	sw	a5,-28(s0)
 120:	fdc42703          	lw	a4,-36(s0)
 124:	00070793          	mv	a5,a4
 128:	00279793          	slli	a5,a5,0x2
 12c:	00e787b3          	add	a5,a5,a4
 130:	00479793          	slli	a5,a5,0x4
 134:	00178793          	addi	a5,a5,1
 138:	fef42023          	sw	a5,-32(s0)
 13c:	fe042623          	sw	zero,-20(s0)
 140:	0340006f          	j	174 <draw_stick+0x88>
 144:	fe442703          	lw	a4,-28(s0)
 148:	fec42783          	lw	a5,-20(s0)
 14c:	40f70733          	sub	a4,a4,a5
 150:	fd042783          	lw	a5,-48(s0)
 154:	00f707b3          	add	a5,a4,a5
 158:	00279713          	slli	a4,a5,0x2
 15c:	034007b7          	lui	a5,0x3400
 160:	00f707b3          	add	a5,a4,a5
 164:	0007a023          	sw	zero,0(a5) # 3400000 <_stack+0x2ffec00>
 168:	fec42783          	lw	a5,-20(s0)
 16c:	05078793          	addi	a5,a5,80
 170:	fef42623          	sw	a5,-20(s0)
 174:	fec42703          	lw	a4,-20(s0)
 178:	64000793          	li	a5,1600
 17c:	fce7d4e3          	bge	a5,a4,144 <draw_stick+0x58>
 180:	fe042423          	sw	zero,-24(s0)
 184:	0380006f          	j	1bc <draw_stick+0xd0>
 188:	fe442703          	lw	a4,-28(s0)
 18c:	fe842783          	lw	a5,-24(s0)
 190:	40f70733          	sub	a4,a4,a5
 194:	fd042783          	lw	a5,-48(s0)
 198:	00f707b3          	add	a5,a4,a5
 19c:	00279713          	slli	a4,a5,0x2
 1a0:	034007b7          	lui	a5,0x3400
 1a4:	00f707b3          	add	a5,a4,a5
 1a8:	fff00713          	li	a4,-1
 1ac:	00e7a023          	sw	a4,0(a5) # 3400000 <_stack+0x2ffec00>
 1b0:	fe842783          	lw	a5,-24(s0)
 1b4:	05078793          	addi	a5,a5,80
 1b8:	fef42423          	sw	a5,-24(s0)
 1bc:	fe842703          	lw	a4,-24(s0)
 1c0:	fe042783          	lw	a5,-32(s0)
 1c4:	fcf742e3          	blt	a4,a5,188 <draw_stick+0x9c>
 1c8:	00000013          	nop
 1cc:	00000013          	nop
 1d0:	02c12403          	lw	s0,44(sp)
 1d4:	03010113          	addi	sp,sp,48
 1d8:	00008067          	ret

000001dc <swap>:
 1dc:	fd010113          	addi	sp,sp,-48
 1e0:	02812623          	sw	s0,44(sp)
 1e4:	03010413          	addi	s0,sp,48
 1e8:	fca42e23          	sw	a0,-36(s0)
 1ec:	fcb42c23          	sw	a1,-40(s0)
 1f0:	fdc42783          	lw	a5,-36(s0)
 1f4:	0007a783          	lw	a5,0(a5)
 1f8:	fef42623          	sw	a5,-20(s0)
 1fc:	fd842783          	lw	a5,-40(s0)
 200:	0007a703          	lw	a4,0(a5)
 204:	fdc42783          	lw	a5,-36(s0)
 208:	00e7a023          	sw	a4,0(a5)
 20c:	fd842783          	lw	a5,-40(s0)
 210:	fec42703          	lw	a4,-20(s0)
 214:	00e7a023          	sw	a4,0(a5)
 218:	00000013          	nop
 21c:	02c12403          	lw	s0,44(sp)
 220:	03010113          	addi	sp,sp,48
 224:	00008067          	ret

00000228 <bubbleSort>:
 228:	fd010113          	addi	sp,sp,-48
 22c:	02112623          	sw	ra,44(sp)
 230:	02812423          	sw	s0,40(sp)
 234:	03010413          	addi	s0,sp,48
 238:	fca42e23          	sw	a0,-36(s0)
 23c:	fcb42c23          	sw	a1,-40(s0)
 240:	fcc42a23          	sw	a2,-44(s0)
 244:	fcd42823          	sw	a3,-48(s0)
 248:	fe042623          	sw	zero,-20(s0)
 24c:	0fc0006f          	j	348 <bubbleSort+0x120>
 250:	fe042423          	sw	zero,-24(s0)
 254:	0d00006f          	j	324 <bubbleSort+0xfc>
 258:	fe842783          	lw	a5,-24(s0)
 25c:	00279793          	slli	a5,a5,0x2
 260:	fdc42703          	lw	a4,-36(s0)
 264:	00f707b3          	add	a5,a4,a5
 268:	0007a703          	lw	a4,0(a5)
 26c:	fe842783          	lw	a5,-24(s0)
 270:	00178793          	addi	a5,a5,1
 274:	00279793          	slli	a5,a5,0x2
 278:	fdc42683          	lw	a3,-36(s0)
 27c:	00f687b3          	add	a5,a3,a5
 280:	0007a783          	lw	a5,0(a5)
 284:	08e7da63          	bge	a5,a4,318 <bubbleSort+0xf0>
 288:	fe842783          	lw	a5,-24(s0)
 28c:	00279793          	slli	a5,a5,0x2
 290:	fdc42703          	lw	a4,-36(s0)
 294:	00f706b3          	add	a3,a4,a5
 298:	fe842783          	lw	a5,-24(s0)
 29c:	00178793          	addi	a5,a5,1
 2a0:	00279793          	slli	a5,a5,0x2
 2a4:	fdc42703          	lw	a4,-36(s0)
 2a8:	00f707b3          	add	a5,a4,a5
 2ac:	00078593          	mv	a1,a5
 2b0:	00068513          	mv	a0,a3
 2b4:	f29ff0ef          	jal	ra,1dc <swap>
 2b8:	fe842783          	lw	a5,-24(s0)
 2bc:	00279793          	slli	a5,a5,0x2
 2c0:	fdc42703          	lw	a4,-36(s0)
 2c4:	00f707b3          	add	a5,a4,a5
 2c8:	0007a783          	lw	a5,0(a5)
 2cc:	fd042683          	lw	a3,-48(s0)
 2d0:	fd442603          	lw	a2,-44(s0)
 2d4:	fe842583          	lw	a1,-24(s0)
 2d8:	00078513          	mv	a0,a5
 2dc:	e11ff0ef          	jal	ra,ec <draw_stick>
 2e0:	fe842783          	lw	a5,-24(s0)
 2e4:	00178793          	addi	a5,a5,1
 2e8:	00279793          	slli	a5,a5,0x2
 2ec:	fdc42703          	lw	a4,-36(s0)
 2f0:	00f707b3          	add	a5,a4,a5
 2f4:	0007a703          	lw	a4,0(a5)
 2f8:	fe842783          	lw	a5,-24(s0)
 2fc:	00178793          	addi	a5,a5,1
 300:	fd042683          	lw	a3,-48(s0)
 304:	fd442603          	lw	a2,-44(s0)
 308:	00078593          	mv	a1,a5
 30c:	00070513          	mv	a0,a4
 310:	dddff0ef          	jal	ra,ec <draw_stick>
 314:	d95ff0ef          	jal	ra,a8 <delay>
 318:	fe842783          	lw	a5,-24(s0)
 31c:	00178793          	addi	a5,a5,1
 320:	fef42423          	sw	a5,-24(s0)
 324:	fd842703          	lw	a4,-40(s0)
 328:	fec42783          	lw	a5,-20(s0)
 32c:	40f707b3          	sub	a5,a4,a5
 330:	fff78793          	addi	a5,a5,-1
 334:	fe842703          	lw	a4,-24(s0)
 338:	f2f740e3          	blt	a4,a5,258 <bubbleSort+0x30>
 33c:	fec42783          	lw	a5,-20(s0)
 340:	00178793          	addi	a5,a5,1
 344:	fef42623          	sw	a5,-20(s0)
 348:	fd842783          	lw	a5,-40(s0)
 34c:	fff78793          	addi	a5,a5,-1
 350:	fec42703          	lw	a4,-20(s0)
 354:	eef74ee3          	blt	a4,a5,250 <bubbleSort+0x28>
 358:	00000013          	nop
 35c:	00000013          	nop
 360:	02c12083          	lw	ra,44(sp)
 364:	02812403          	lw	s0,40(sp)
 368:	03010113          	addi	sp,sp,48
 36c:	00008067          	ret

00000370 <insertionSort>:
 370:	fd010113          	addi	sp,sp,-48
 374:	02112623          	sw	ra,44(sp)
 378:	02812423          	sw	s0,40(sp)
 37c:	03010413          	addi	s0,sp,48
 380:	fca42e23          	sw	a0,-36(s0)
 384:	fcb42c23          	sw	a1,-40(s0)
 388:	fcc42a23          	sw	a2,-44(s0)
 38c:	fcd42823          	sw	a3,-48(s0)
 390:	00100793          	li	a5,1
 394:	fef42623          	sw	a5,-20(s0)
 398:	1200006f          	j	4b8 <_min_stack+0xb8>
 39c:	fec42783          	lw	a5,-20(s0)
 3a0:	00279793          	slli	a5,a5,0x2
 3a4:	fdc42703          	lw	a4,-36(s0)
 3a8:	00f707b3          	add	a5,a4,a5
 3ac:	0007a783          	lw	a5,0(a5)
 3b0:	fef42223          	sw	a5,-28(s0)
 3b4:	fec42783          	lw	a5,-20(s0)
 3b8:	fff78793          	addi	a5,a5,-1
 3bc:	fef42423          	sw	a5,-24(s0)
 3c0:	0740006f          	j	434 <_min_stack+0x34>
 3c4:	fe842783          	lw	a5,-24(s0)
 3c8:	00279793          	slli	a5,a5,0x2
 3cc:	fdc42703          	lw	a4,-36(s0)
 3d0:	00f70733          	add	a4,a4,a5
 3d4:	fe842783          	lw	a5,-24(s0)
 3d8:	00178793          	addi	a5,a5,1
 3dc:	00279793          	slli	a5,a5,0x2
 3e0:	fdc42683          	lw	a3,-36(s0)
 3e4:	00f687b3          	add	a5,a3,a5
 3e8:	00072703          	lw	a4,0(a4)
 3ec:	00e7a023          	sw	a4,0(a5)
 3f0:	fe842783          	lw	a5,-24(s0)
 3f4:	00178793          	addi	a5,a5,1
 3f8:	00279793          	slli	a5,a5,0x2
 3fc:	fdc42703          	lw	a4,-36(s0)
 400:	00f707b3          	add	a5,a4,a5
 404:	0007a703          	lw	a4,0(a5)
 408:	fe842783          	lw	a5,-24(s0)
 40c:	00178793          	addi	a5,a5,1
 410:	fd042683          	lw	a3,-48(s0)
 414:	fd442603          	lw	a2,-44(s0)
 418:	00078593          	mv	a1,a5
 41c:	00070513          	mv	a0,a4
 420:	ccdff0ef          	jal	ra,ec <draw_stick>
 424:	c85ff0ef          	jal	ra,a8 <delay>
 428:	fe842783          	lw	a5,-24(s0)
 42c:	fff78793          	addi	a5,a5,-1
 430:	fef42423          	sw	a5,-24(s0)
 434:	fe842783          	lw	a5,-24(s0)
 438:	0207c063          	bltz	a5,458 <_min_stack+0x58>
 43c:	fe842783          	lw	a5,-24(s0)
 440:	00279793          	slli	a5,a5,0x2
 444:	fdc42703          	lw	a4,-36(s0)
 448:	00f707b3          	add	a5,a4,a5
 44c:	0007a783          	lw	a5,0(a5)
 450:	fe442703          	lw	a4,-28(s0)
 454:	f6f748e3          	blt	a4,a5,3c4 <insertionSort+0x54>
 458:	fe842783          	lw	a5,-24(s0)
 45c:	00178793          	addi	a5,a5,1
 460:	00279793          	slli	a5,a5,0x2
 464:	fdc42703          	lw	a4,-36(s0)
 468:	00f707b3          	add	a5,a4,a5
 46c:	fe442703          	lw	a4,-28(s0)
 470:	00e7a023          	sw	a4,0(a5)
 474:	fe842783          	lw	a5,-24(s0)
 478:	00178793          	addi	a5,a5,1
 47c:	00279793          	slli	a5,a5,0x2
 480:	fdc42703          	lw	a4,-36(s0)
 484:	00f707b3          	add	a5,a4,a5
 488:	0007a703          	lw	a4,0(a5)
 48c:	fe842783          	lw	a5,-24(s0)
 490:	00178793          	addi	a5,a5,1
 494:	fd042683          	lw	a3,-48(s0)
 498:	fd442603          	lw	a2,-44(s0)
 49c:	00078593          	mv	a1,a5
 4a0:	00070513          	mv	a0,a4
 4a4:	c49ff0ef          	jal	ra,ec <draw_stick>
 4a8:	c01ff0ef          	jal	ra,a8 <delay>
 4ac:	fec42783          	lw	a5,-20(s0)
 4b0:	00178793          	addi	a5,a5,1
 4b4:	fef42623          	sw	a5,-20(s0)
 4b8:	fec42703          	lw	a4,-20(s0)
 4bc:	fd842783          	lw	a5,-40(s0)
 4c0:	ecf74ee3          	blt	a4,a5,39c <insertionSort+0x2c>
 4c4:	00000013          	nop
 4c8:	00000013          	nop
 4cc:	02c12083          	lw	ra,44(sp)
 4d0:	02812403          	lw	s0,40(sp)
 4d4:	03010113          	addi	sp,sp,48
 4d8:	00008067          	ret

000004dc <main>:
 4dc:	f6010113          	addi	sp,sp,-160
 4e0:	08112e23          	sw	ra,156(sp)
 4e4:	08812c23          	sw	s0,152(sp)
 4e8:	0a010413          	addi	s0,sp,160
 4ec:	00c007b7          	lui	a5,0xc00
 4f0:	0007a783          	lw	a5,0(a5) # c00000 <_stack+0x7fec00>
 4f4:	fcf42423          	sw	a5,-56(s0)
 4f8:	fc842783          	lw	a5,-56(s0)
 4fc:	ffc78793          	addi	a5,a5,-4
 500:	00700713          	li	a4,7
 504:	6af76463          	bltu	a4,a5,bac <main+0x6d0>
 508:	00279713          	slli	a4,a5,0x2
 50c:	004007b7          	lui	a5,0x400
 510:	12078793          	addi	a5,a5,288 # 400120 <_endtext+0x3ff448>
 514:	00f707b3          	add	a5,a4,a5
 518:	0007a783          	lw	a5,0(a5)
 51c:	00078067          	jr	a5
 520:	b89ff0ef          	jal	ra,a8 <delay>
 524:	004007b7          	lui	a5,0x400
 528:	00078713          	mv	a4,a5
 52c:	f6040793          	addi	a5,s0,-160
 530:	00070693          	mv	a3,a4
 534:	04800713          	li	a4,72
 538:	00070613          	mv	a2,a4
 53c:	00068593          	mv	a1,a3
 540:	00078513          	mv	a0,a5
 544:	66c000ef          	jal	ra,bb0 <memcpy>
 548:	01200793          	li	a5,18
 54c:	faf42423          	sw	a5,-88(s0)
 550:	fe042423          	sw	zero,-24(s0)
 554:	03c0006f          	j	590 <main+0xb4>
 558:	fe842783          	lw	a5,-24(s0)
 55c:	00279793          	slli	a5,a5,0x2
 560:	ff040713          	addi	a4,s0,-16
 564:	00f707b3          	add	a5,a4,a5
 568:	f707a703          	lw	a4,-144(a5) # 3fff70 <_endtext+0x3ff298>
 56c:	000017b7          	lui	a5,0x1
 570:	e1078693          	addi	a3,a5,-496 # e10 <_endtext+0x138>
 574:	00000613          	li	a2,0
 578:	fe842583          	lw	a1,-24(s0)
 57c:	00070513          	mv	a0,a4
 580:	b6dff0ef          	jal	ra,ec <draw_stick>
 584:	fe842783          	lw	a5,-24(s0)
 588:	00178793          	addi	a5,a5,1
 58c:	fef42423          	sw	a5,-24(s0)
 590:	fe842703          	lw	a4,-24(s0)
 594:	fa842783          	lw	a5,-88(s0)
 598:	fcf740e3          	blt	a4,a5,558 <main+0x7c>
 59c:	b0dff0ef          	jal	ra,a8 <delay>
 5a0:	f6040713          	addi	a4,s0,-160
 5a4:	000017b7          	lui	a5,0x1
 5a8:	e1078693          	addi	a3,a5,-496 # e10 <_endtext+0x138>
 5ac:	00000613          	li	a2,0
 5b0:	fa842583          	lw	a1,-88(s0)
 5b4:	00070513          	mv	a0,a4
 5b8:	c71ff0ef          	jal	ra,228 <bubbleSort>
 5bc:	aedff0ef          	jal	ra,a8 <delay>
 5c0:	f61ff06f          	j	520 <main+0x44>
 5c4:	ae5ff0ef          	jal	ra,a8 <delay>
 5c8:	004007b7          	lui	a5,0x400
 5cc:	04878713          	addi	a4,a5,72 # 400048 <_endtext+0x3ff370>
 5d0:	f6040793          	addi	a5,s0,-160
 5d4:	00070693          	mv	a3,a4
 5d8:	04800713          	li	a4,72
 5dc:	00070613          	mv	a2,a4
 5e0:	00068593          	mv	a1,a3
 5e4:	00078513          	mv	a0,a5
 5e8:	5c8000ef          	jal	ra,bb0 <memcpy>
 5ec:	01200793          	li	a5,18
 5f0:	faf42623          	sw	a5,-84(s0)
 5f4:	fe042223          	sw	zero,-28(s0)
 5f8:	0400006f          	j	638 <main+0x15c>
 5fc:	fe442783          	lw	a5,-28(s0)
 600:	00279793          	slli	a5,a5,0x2
 604:	ff040713          	addi	a4,s0,-16
 608:	00f707b3          	add	a5,a4,a5
 60c:	f707a703          	lw	a4,-144(a5)
 610:	000017b7          	lui	a5,0x1
 614:	e1078693          	addi	a3,a5,-496 # e10 <_endtext+0x138>
 618:	000017b7          	lui	a5,0x1
 61c:	2e878613          	addi	a2,a5,744 # 12e8 <_endtext+0x610>
 620:	fe442583          	lw	a1,-28(s0)
 624:	00070513          	mv	a0,a4
 628:	ac5ff0ef          	jal	ra,ec <draw_stick>
 62c:	fe442783          	lw	a5,-28(s0)
 630:	00178793          	addi	a5,a5,1
 634:	fef42223          	sw	a5,-28(s0)
 638:	fe442703          	lw	a4,-28(s0)
 63c:	fac42783          	lw	a5,-84(s0)
 640:	faf74ee3          	blt	a4,a5,5fc <main+0x120>
 644:	a65ff0ef          	jal	ra,a8 <delay>
 648:	f6040713          	addi	a4,s0,-160
 64c:	000017b7          	lui	a5,0x1
 650:	e1078693          	addi	a3,a5,-496 # e10 <_endtext+0x138>
 654:	000017b7          	lui	a5,0x1
 658:	2e878613          	addi	a2,a5,744 # 12e8 <_endtext+0x610>
 65c:	fac42583          	lw	a1,-84(s0)
 660:	00070513          	mv	a0,a4
 664:	bc5ff0ef          	jal	ra,228 <bubbleSort>
 668:	a41ff0ef          	jal	ra,a8 <delay>
 66c:	f59ff06f          	j	5c4 <main+0xe8>
 670:	fe042623          	sw	zero,-20(s0)
 674:	0bc0006f          	j	730 <main+0x254>
 678:	fec42783          	lw	a5,-20(s0)
 67c:	00279713          	slli	a4,a5,0x2
 680:	034007b7          	lui	a5,0x3400
 684:	00f707b3          	add	a5,a4,a5
 688:	fff00713          	li	a4,-1
 68c:	00e7a023          	sw	a4,0(a5) # 3400000 <_stack+0x2ffec00>
 690:	fec42703          	lw	a4,-20(s0)
 694:	000017b7          	lui	a5,0x1
 698:	96078793          	addi	a5,a5,-1696 # 960 <main+0x484>
 69c:	00f707b3          	add	a5,a4,a5
 6a0:	00279713          	slli	a4,a5,0x2
 6a4:	034007b7          	lui	a5,0x3400
 6a8:	ec078793          	addi	a5,a5,-320 # 33ffec0 <_stack+0x2ffeac0>
 6ac:	00f707b3          	add	a5,a4,a5
 6b0:	fff00713          	li	a4,-1
 6b4:	00e7a023          	sw	a4,0(a5)
 6b8:	fec42703          	lw	a4,-20(s0)
 6bc:	000017b7          	lui	a5,0x1
 6c0:	2c078793          	addi	a5,a5,704 # 12c0 <_endtext+0x5e8>
 6c4:	00f707b3          	add	a5,a4,a5
 6c8:	00279713          	slli	a4,a5,0x2
 6cc:	034007b7          	lui	a5,0x3400
 6d0:	ec078793          	addi	a5,a5,-320 # 33ffec0 <_stack+0x2ffeac0>
 6d4:	00f707b3          	add	a5,a4,a5
 6d8:	fff00713          	li	a4,-1
 6dc:	00e7a023          	sw	a4,0(a5)
 6e0:	fec42703          	lw	a4,-20(s0)
 6e4:	000027b7          	lui	a5,0x2
 6e8:	c2078793          	addi	a5,a5,-992 # 1c20 <_endtext+0xf48>
 6ec:	00f707b3          	add	a5,a4,a5
 6f0:	00279713          	slli	a4,a5,0x2
 6f4:	034007b7          	lui	a5,0x3400
 6f8:	ec078793          	addi	a5,a5,-320 # 33ffec0 <_stack+0x2ffeac0>
 6fc:	00f707b3          	add	a5,a4,a5
 700:	fff00713          	li	a4,-1
 704:	00e7a023          	sw	a4,0(a5)
 708:	fec42783          	lw	a5,-20(s0)
 70c:	00279713          	slli	a4,a5,0x2
 710:	034097b7          	lui	a5,0x3409
 714:	4c078793          	addi	a5,a5,1216 # 34094c0 <_stack+0x30080c0>
 718:	00f707b3          	add	a5,a4,a5
 71c:	fff00713          	li	a4,-1
 720:	00e7a023          	sw	a4,0(a5)
 724:	fec42783          	lw	a5,-20(s0)
 728:	00178793          	addi	a5,a5,1
 72c:	fef42623          	sw	a5,-20(s0)
 730:	fec42703          	lw	a4,-20(s0)
 734:	04f00793          	li	a5,79
 738:	f4e7d0e3          	bge	a5,a4,678 <main+0x19c>
 73c:	fe042623          	sw	zero,-20(s0)
 740:	0900006f          	j	7d0 <main+0x2f4>
 744:	fec42703          	lw	a4,-20(s0)
 748:	00070793          	mv	a5,a4
 74c:	00279793          	slli	a5,a5,0x2
 750:	00e787b3          	add	a5,a5,a4
 754:	00679793          	slli	a5,a5,0x6
 758:	00078713          	mv	a4,a5
 75c:	034007b7          	lui	a5,0x3400
 760:	00f707b3          	add	a5,a4,a5
 764:	fff00713          	li	a4,-1
 768:	00e7a023          	sw	a4,0(a5) # 3400000 <_stack+0x2ffec00>
 76c:	fec42703          	lw	a4,-20(s0)
 770:	00070793          	mv	a5,a4
 774:	00279793          	slli	a5,a5,0x2
 778:	00e787b3          	add	a5,a5,a4
 77c:	00679793          	slli	a5,a5,0x6
 780:	00078713          	mv	a4,a5
 784:	034007b7          	lui	a5,0x3400
 788:	09c78793          	addi	a5,a5,156 # 340009c <_stack+0x2ffec9c>
 78c:	00f707b3          	add	a5,a4,a5
 790:	fff00713          	li	a4,-1
 794:	00e7a023          	sw	a4,0(a5)
 798:	fec42703          	lw	a4,-20(s0)
 79c:	00070793          	mv	a5,a4
 7a0:	00279793          	slli	a5,a5,0x2
 7a4:	00e787b3          	add	a5,a5,a4
 7a8:	00679793          	slli	a5,a5,0x6
 7ac:	00078713          	mv	a4,a5
 7b0:	034007b7          	lui	a5,0x3400
 7b4:	13c78793          	addi	a5,a5,316 # 340013c <_stack+0x2ffed3c>
 7b8:	00f707b3          	add	a5,a4,a5
 7bc:	fff00713          	li	a4,-1
 7c0:	00e7a023          	sw	a4,0(a5)
 7c4:	fec42783          	lw	a5,-20(s0)
 7c8:	00178793          	addi	a5,a5,1
 7cc:	fef42623          	sw	a5,-20(s0)
 7d0:	fec42703          	lw	a4,-20(s0)
 7d4:	07700793          	li	a5,119
 7d8:	f6e7d6e3          	bge	a5,a4,744 <main+0x268>
 7dc:	8cdff0ef          	jal	ra,a8 <delay>
 7e0:	004007b7          	lui	a5,0x400
 7e4:	09078713          	addi	a4,a5,144 # 400090 <_endtext+0x3ff3b8>
 7e8:	f6040793          	addi	a5,s0,-160
 7ec:	00070693          	mv	a3,a4
 7f0:	04800713          	li	a4,72
 7f4:	00070613          	mv	a2,a4
 7f8:	00068593          	mv	a1,a3
 7fc:	00078513          	mv	a0,a5
 800:	3b0000ef          	jal	ra,bb0 <memcpy>
 804:	01200793          	li	a5,18
 808:	faf42823          	sw	a5,-80(s0)
 80c:	fe042023          	sw	zero,-32(s0)
 810:	03c0006f          	j	84c <main+0x370>
 814:	fe042783          	lw	a5,-32(s0)
 818:	00279793          	slli	a5,a5,0x2
 81c:	ff040713          	addi	a4,s0,-16
 820:	00f707b3          	add	a5,a4,a5
 824:	f707a703          	lw	a4,-144(a5)
 828:	000017b7          	lui	a5,0x1
 82c:	e1078693          	addi	a3,a5,-496 # e10 <_endtext+0x138>
 830:	02800613          	li	a2,40
 834:	fe042583          	lw	a1,-32(s0)
 838:	00070513          	mv	a0,a4
 83c:	8b1ff0ef          	jal	ra,ec <draw_stick>
 840:	fe042783          	lw	a5,-32(s0)
 844:	00178793          	addi	a5,a5,1
 848:	fef42023          	sw	a5,-32(s0)
 84c:	fe042703          	lw	a4,-32(s0)
 850:	fb042783          	lw	a5,-80(s0)
 854:	fcf740e3          	blt	a4,a5,814 <main+0x338>
 858:	851ff0ef          	jal	ra,a8 <delay>
 85c:	f6040713          	addi	a4,s0,-160
 860:	000017b7          	lui	a5,0x1
 864:	e1078693          	addi	a3,a5,-496 # e10 <_endtext+0x138>
 868:	02800613          	li	a2,40
 86c:	fb042583          	lw	a1,-80(s0)
 870:	00070513          	mv	a0,a4
 874:	9b5ff0ef          	jal	ra,228 <bubbleSort>
 878:	831ff0ef          	jal	ra,a8 <delay>
 87c:	f61ff06f          	j	7dc <main+0x300>
 880:	829ff0ef          	jal	ra,a8 <delay>
 884:	004007b7          	lui	a5,0x400
 888:	0d878713          	addi	a4,a5,216 # 4000d8 <_endtext+0x3ff400>
 88c:	f6040793          	addi	a5,s0,-160
 890:	00070693          	mv	a3,a4
 894:	04800713          	li	a4,72
 898:	00070613          	mv	a2,a4
 89c:	00068593          	mv	a1,a3
 8a0:	00078513          	mv	a0,a5
 8a4:	30c000ef          	jal	ra,bb0 <memcpy>
 8a8:	01200793          	li	a5,18
 8ac:	faf42a23          	sw	a5,-76(s0)
 8b0:	fc042e23          	sw	zero,-36(s0)
 8b4:	0400006f          	j	8f4 <main+0x418>
 8b8:	fdc42783          	lw	a5,-36(s0)
 8bc:	00279793          	slli	a5,a5,0x2
 8c0:	ff040713          	addi	a4,s0,-16
 8c4:	00f707b3          	add	a5,a4,a5
 8c8:	f707a703          	lw	a4,-144(a5)
 8cc:	000017b7          	lui	a5,0x1
 8d0:	e1078693          	addi	a3,a5,-496 # e10 <_endtext+0x138>
 8d4:	000017b7          	lui	a5,0x1
 8d8:	2c078613          	addi	a2,a5,704 # 12c0 <_endtext+0x5e8>
 8dc:	fdc42583          	lw	a1,-36(s0)
 8e0:	00070513          	mv	a0,a4
 8e4:	809ff0ef          	jal	ra,ec <draw_stick>
 8e8:	fdc42783          	lw	a5,-36(s0)
 8ec:	00178793          	addi	a5,a5,1
 8f0:	fcf42e23          	sw	a5,-36(s0)
 8f4:	fdc42703          	lw	a4,-36(s0)
 8f8:	fb442783          	lw	a5,-76(s0)
 8fc:	faf74ee3          	blt	a4,a5,8b8 <main+0x3dc>
 900:	fa8ff0ef          	jal	ra,a8 <delay>
 904:	f6040713          	addi	a4,s0,-160
 908:	000017b7          	lui	a5,0x1
 90c:	e1078693          	addi	a3,a5,-496 # e10 <_endtext+0x138>
 910:	000017b7          	lui	a5,0x1
 914:	2c078613          	addi	a2,a5,704 # 12c0 <_endtext+0x5e8>
 918:	fb442583          	lw	a1,-76(s0)
 91c:	00070513          	mv	a0,a4
 920:	909ff0ef          	jal	ra,228 <bubbleSort>
 924:	f84ff0ef          	jal	ra,a8 <delay>
 928:	f59ff06f          	j	880 <main+0x3a4>
 92c:	f7cff0ef          	jal	ra,a8 <delay>
 930:	004007b7          	lui	a5,0x400
 934:	00078713          	mv	a4,a5
 938:	f6040793          	addi	a5,s0,-160
 93c:	00070693          	mv	a3,a4
 940:	04800713          	li	a4,72
 944:	00070613          	mv	a2,a4
 948:	00068593          	mv	a1,a3
 94c:	00078513          	mv	a0,a5
 950:	260000ef          	jal	ra,bb0 <memcpy>
 954:	01200793          	li	a5,18
 958:	faf42c23          	sw	a5,-72(s0)
 95c:	fc042c23          	sw	zero,-40(s0)
 960:	0380006f          	j	998 <main+0x4bc>
 964:	fd842783          	lw	a5,-40(s0)
 968:	00279793          	slli	a5,a5,0x2
 96c:	ff040713          	addi	a4,s0,-16
 970:	00f707b3          	add	a5,a4,a5
 974:	f707a783          	lw	a5,-144(a5) # 3fff70 <_endtext+0x3ff298>
 978:	4b000693          	li	a3,1200
 97c:	00000613          	li	a2,0
 980:	fd842583          	lw	a1,-40(s0)
 984:	00078513          	mv	a0,a5
 988:	f64ff0ef          	jal	ra,ec <draw_stick>
 98c:	fd842783          	lw	a5,-40(s0)
 990:	00178793          	addi	a5,a5,1
 994:	fcf42c23          	sw	a5,-40(s0)
 998:	fd842703          	lw	a4,-40(s0)
 99c:	fb842783          	lw	a5,-72(s0)
 9a0:	fcf742e3          	blt	a4,a5,964 <main+0x488>
 9a4:	f04ff0ef          	jal	ra,a8 <delay>
 9a8:	f6040793          	addi	a5,s0,-160
 9ac:	4b000693          	li	a3,1200
 9b0:	00000613          	li	a2,0
 9b4:	fb842583          	lw	a1,-72(s0)
 9b8:	00078513          	mv	a0,a5
 9bc:	9b5ff0ef          	jal	ra,370 <insertionSort>
 9c0:	ee8ff0ef          	jal	ra,a8 <delay>
 9c4:	f69ff06f          	j	92c <main+0x450>
 9c8:	ee0ff0ef          	jal	ra,a8 <delay>
 9cc:	004007b7          	lui	a5,0x400
 9d0:	04878713          	addi	a4,a5,72 # 400048 <_endtext+0x3ff370>
 9d4:	f6040793          	addi	a5,s0,-160
 9d8:	00070693          	mv	a3,a4
 9dc:	04800713          	li	a4,72
 9e0:	00070613          	mv	a2,a4
 9e4:	00068593          	mv	a1,a3
 9e8:	00078513          	mv	a0,a5
 9ec:	1c4000ef          	jal	ra,bb0 <memcpy>
 9f0:	01200793          	li	a5,18
 9f4:	faf42e23          	sw	a5,-68(s0)
 9f8:	fc042a23          	sw	zero,-44(s0)
 9fc:	03c0006f          	j	a38 <main+0x55c>
 a00:	fd442783          	lw	a5,-44(s0)
 a04:	00279793          	slli	a5,a5,0x2
 a08:	ff040713          	addi	a4,s0,-16
 a0c:	00f707b3          	add	a5,a4,a5
 a10:	f707a703          	lw	a4,-144(a5)
 a14:	4b000693          	li	a3,1200
 a18:	000017b7          	lui	a5,0x1
 a1c:	2e878613          	addi	a2,a5,744 # 12e8 <_endtext+0x610>
 a20:	fd442583          	lw	a1,-44(s0)
 a24:	00070513          	mv	a0,a4
 a28:	ec4ff0ef          	jal	ra,ec <draw_stick>
 a2c:	fd442783          	lw	a5,-44(s0)
 a30:	00178793          	addi	a5,a5,1
 a34:	fcf42a23          	sw	a5,-44(s0)
 a38:	fd442703          	lw	a4,-44(s0)
 a3c:	fbc42783          	lw	a5,-68(s0)
 a40:	fcf740e3          	blt	a4,a5,a00 <main+0x524>
 a44:	e64ff0ef          	jal	ra,a8 <delay>
 a48:	f6040713          	addi	a4,s0,-160
 a4c:	4b000693          	li	a3,1200
 a50:	000017b7          	lui	a5,0x1
 a54:	2e878613          	addi	a2,a5,744 # 12e8 <_endtext+0x610>
 a58:	fbc42583          	lw	a1,-68(s0)
 a5c:	00070513          	mv	a0,a4
 a60:	911ff0ef          	jal	ra,370 <insertionSort>
 a64:	e44ff0ef          	jal	ra,a8 <delay>
 a68:	f61ff06f          	j	9c8 <main+0x4ec>
 a6c:	e3cff0ef          	jal	ra,a8 <delay>
 a70:	004007b7          	lui	a5,0x400
 a74:	09078713          	addi	a4,a5,144 # 400090 <_endtext+0x3ff3b8>
 a78:	f6040793          	addi	a5,s0,-160
 a7c:	00070693          	mv	a3,a4
 a80:	04800713          	li	a4,72
 a84:	00070613          	mv	a2,a4
 a88:	00068593          	mv	a1,a3
 a8c:	00078513          	mv	a0,a5
 a90:	120000ef          	jal	ra,bb0 <memcpy>
 a94:	01200793          	li	a5,18
 a98:	fcf42023          	sw	a5,-64(s0)
 a9c:	fc042823          	sw	zero,-48(s0)
 aa0:	0380006f          	j	ad8 <main+0x5fc>
 aa4:	fd042783          	lw	a5,-48(s0)
 aa8:	00279793          	slli	a5,a5,0x2
 aac:	ff040713          	addi	a4,s0,-16
 ab0:	00f707b3          	add	a5,a4,a5
 ab4:	f707a783          	lw	a5,-144(a5)
 ab8:	4b000693          	li	a3,1200
 abc:	02800613          	li	a2,40
 ac0:	fd042583          	lw	a1,-48(s0)
 ac4:	00078513          	mv	a0,a5
 ac8:	e24ff0ef          	jal	ra,ec <draw_stick>
 acc:	fd042783          	lw	a5,-48(s0)
 ad0:	00178793          	addi	a5,a5,1
 ad4:	fcf42823          	sw	a5,-48(s0)
 ad8:	fd042703          	lw	a4,-48(s0)
 adc:	fc042783          	lw	a5,-64(s0)
 ae0:	fcf742e3          	blt	a4,a5,aa4 <main+0x5c8>
 ae4:	dc4ff0ef          	jal	ra,a8 <delay>
 ae8:	f6040793          	addi	a5,s0,-160
 aec:	4b000693          	li	a3,1200
 af0:	02800613          	li	a2,40
 af4:	fc042583          	lw	a1,-64(s0)
 af8:	00078513          	mv	a0,a5
 afc:	875ff0ef          	jal	ra,370 <insertionSort>
 b00:	da8ff0ef          	jal	ra,a8 <delay>
 b04:	f69ff06f          	j	a6c <main+0x590>
 b08:	da0ff0ef          	jal	ra,a8 <delay>
 b0c:	004007b7          	lui	a5,0x400
 b10:	0d878713          	addi	a4,a5,216 # 4000d8 <_endtext+0x3ff400>
 b14:	f6040793          	addi	a5,s0,-160
 b18:	00070693          	mv	a3,a4
 b1c:	04800713          	li	a4,72
 b20:	00070613          	mv	a2,a4
 b24:	00068593          	mv	a1,a3
 b28:	00078513          	mv	a0,a5
 b2c:	084000ef          	jal	ra,bb0 <memcpy>
 b30:	01200793          	li	a5,18
 b34:	fcf42223          	sw	a5,-60(s0)
 b38:	fc042623          	sw	zero,-52(s0)
 b3c:	03c0006f          	j	b78 <main+0x69c>
 b40:	fcc42783          	lw	a5,-52(s0)
 b44:	00279793          	slli	a5,a5,0x2
 b48:	ff040713          	addi	a4,s0,-16
 b4c:	00f707b3          	add	a5,a4,a5
 b50:	f707a703          	lw	a4,-144(a5)
 b54:	4b000693          	li	a3,1200
 b58:	000017b7          	lui	a5,0x1
 b5c:	2c078613          	addi	a2,a5,704 # 12c0 <_endtext+0x5e8>
 b60:	fcc42583          	lw	a1,-52(s0)
 b64:	00070513          	mv	a0,a4
 b68:	d84ff0ef          	jal	ra,ec <draw_stick>
 b6c:	fcc42783          	lw	a5,-52(s0)
 b70:	00178793          	addi	a5,a5,1
 b74:	fcf42623          	sw	a5,-52(s0)
 b78:	fcc42703          	lw	a4,-52(s0)
 b7c:	fc442783          	lw	a5,-60(s0)
 b80:	fcf740e3          	blt	a4,a5,b40 <main+0x664>
 b84:	d24ff0ef          	jal	ra,a8 <delay>
 b88:	f6040713          	addi	a4,s0,-160
 b8c:	4b000693          	li	a3,1200
 b90:	000017b7          	lui	a5,0x1
 b94:	2c078613          	addi	a2,a5,704 # 12c0 <_endtext+0x5e8>
 b98:	fc442583          	lw	a1,-60(s0)
 b9c:	00070513          	mv	a0,a4
 ba0:	fd0ff0ef          	jal	ra,370 <insertionSort>
 ba4:	d04ff0ef          	jal	ra,a8 <delay>
 ba8:	f61ff06f          	j	b08 <main+0x62c>
 bac:	0000006f          	j	bac <main+0x6d0>

00000bb0 <memcpy>:
 bb0:	00a5c7b3          	xor	a5,a1,a0
 bb4:	0037f793          	andi	a5,a5,3
 bb8:	00c508b3          	add	a7,a0,a2
 bbc:	06079663          	bnez	a5,c28 <memcpy+0x78>
 bc0:	00300793          	li	a5,3
 bc4:	06c7f263          	bgeu	a5,a2,c28 <memcpy+0x78>
 bc8:	00357793          	andi	a5,a0,3
 bcc:	00050713          	mv	a4,a0
 bd0:	0c079a63          	bnez	a5,ca4 <memcpy+0xf4>
 bd4:	ffc8f613          	andi	a2,a7,-4
 bd8:	40e606b3          	sub	a3,a2,a4
 bdc:	02000793          	li	a5,32
 be0:	02000293          	li	t0,32
 be4:	06d7c263          	blt	a5,a3,c48 <memcpy+0x98>
 be8:	00058693          	mv	a3,a1
 bec:	00070793          	mv	a5,a4
 bf0:	02c77863          	bgeu	a4,a2,c20 <memcpy+0x70>
 bf4:	0006a803          	lw	a6,0(a3)
 bf8:	00478793          	addi	a5,a5,4
 bfc:	00468693          	addi	a3,a3,4
 c00:	ff07ae23          	sw	a6,-4(a5)
 c04:	fec7e8e3          	bltu	a5,a2,bf4 <memcpy+0x44>
 c08:	fff60793          	addi	a5,a2,-1
 c0c:	40e787b3          	sub	a5,a5,a4
 c10:	ffc7f793          	andi	a5,a5,-4
 c14:	00478793          	addi	a5,a5,4
 c18:	00f70733          	add	a4,a4,a5
 c1c:	00f585b3          	add	a1,a1,a5
 c20:	01176863          	bltu	a4,a7,c30 <memcpy+0x80>
 c24:	00008067          	ret
 c28:	00050713          	mv	a4,a0
 c2c:	ff157ce3          	bgeu	a0,a7,c24 <memcpy+0x74>
 c30:	0005c783          	lbu	a5,0(a1)
 c34:	00170713          	addi	a4,a4,1
 c38:	00158593          	addi	a1,a1,1
 c3c:	fef70fa3          	sb	a5,-1(a4)
 c40:	ff1768e3          	bltu	a4,a7,c30 <memcpy+0x80>
 c44:	00008067          	ret
 c48:	0045a683          	lw	a3,4(a1)
 c4c:	01c5a783          	lw	a5,28(a1)
 c50:	0005af83          	lw	t6,0(a1)
 c54:	0085af03          	lw	t5,8(a1)
 c58:	00c5ae83          	lw	t4,12(a1)
 c5c:	0105ae03          	lw	t3,16(a1)
 c60:	0145a303          	lw	t1,20(a1)
 c64:	0185a803          	lw	a6,24(a1)
 c68:	00d72223          	sw	a3,4(a4)
 c6c:	0205a683          	lw	a3,32(a1)
 c70:	01f72023          	sw	t6,0(a4)
 c74:	01e72423          	sw	t5,8(a4)
 c78:	01d72623          	sw	t4,12(a4)
 c7c:	01c72823          	sw	t3,16(a4)
 c80:	00672a23          	sw	t1,20(a4)
 c84:	01072c23          	sw	a6,24(a4)
 c88:	00f72e23          	sw	a5,28(a4)
 c8c:	02470713          	addi	a4,a4,36
 c90:	40e607b3          	sub	a5,a2,a4
 c94:	fed72e23          	sw	a3,-4(a4)
 c98:	02458593          	addi	a1,a1,36
 c9c:	faf2c6e3          	blt	t0,a5,c48 <memcpy+0x98>
 ca0:	f49ff06f          	j	be8 <memcpy+0x38>
 ca4:	0005c683          	lbu	a3,0(a1)
 ca8:	00170713          	addi	a4,a4,1
 cac:	00377793          	andi	a5,a4,3
 cb0:	fed70fa3          	sb	a3,-1(a4)
 cb4:	00158593          	addi	a1,a1,1
 cb8:	f0078ee3          	beqz	a5,bd4 <memcpy+0x24>
 cbc:	0005c683          	lbu	a3,0(a1)
 cc0:	00170713          	addi	a4,a4,1
 cc4:	00377793          	andi	a5,a4,3
 cc8:	fed70fa3          	sb	a3,-1(a4)
 ccc:	00158593          	addi	a1,a1,1
 cd0:	fc079ae3          	bnez	a5,ca4 <memcpy+0xf4>
 cd4:	f01ff06f          	j	bd4 <memcpy+0x24>
