
AliveTest_rv32i.elf:     file format elf32-littleriscv


Disassembly of section .vectors:

00000000 <_stack_start-0x400200>:
   0:	00000013          	nop
   4:	00000013          	nop
   8:	00000013          	nop
   c:	00000013          	nop
  10:	00000013          	nop
  14:	68c0006f          	j	6a0 <reset_handler>

Disassembly of section .text:

00000018 <ADDI>:
  18:	fe010113          	addi	sp,sp,-32
  1c:	00812e23          	sw	s0,28(sp)
  20:	02010413          	addi	s0,sp,32
  24:	fea42623          	sw	a0,-20(s0)
  28:	004017b7          	lui	a5,0x401
  2c:	f0078793          	addi	a5,a5,-256 # 400f00 <_bss_end+0x700>
  30:	fec42703          	lw	a4,-20(s0)
  34:	00170713          	addi	a4,a4,1
  38:	00e7a023          	sw	a4,0(a5)
  3c:	00000013          	nop
  40:	01c12403          	lw	s0,28(sp)
  44:	02010113          	addi	sp,sp,32
  48:	00008067          	ret

0000004c <SLTI>:
  4c:	fe010113          	addi	sp,sp,-32
  50:	00812e23          	sw	s0,28(sp)
  54:	02010413          	addi	s0,sp,32
  58:	fea42623          	sw	a0,-20(s0)
  5c:	fec42783          	lw	a5,-20(s0)
  60:	0057a793          	slti	a5,a5,5
  64:	0ff7f713          	andi	a4,a5,255
  68:	004017b7          	lui	a5,0x401
  6c:	f0478793          	addi	a5,a5,-252 # 400f04 <_bss_end+0x704>
  70:	00e7a023          	sw	a4,0(a5)
  74:	00000013          	nop
  78:	01c12403          	lw	s0,28(sp)
  7c:	02010113          	addi	sp,sp,32
  80:	00008067          	ret

00000084 <ANDI>:
  84:	fe010113          	addi	sp,sp,-32
  88:	00812e23          	sw	s0,28(sp)
  8c:	02010413          	addi	s0,sp,32
  90:	fea42623          	sw	a0,-20(s0)
  94:	004017b7          	lui	a5,0x401
  98:	f0878793          	addi	a5,a5,-248 # 400f08 <_bss_end+0x708>
  9c:	fec42703          	lw	a4,-20(s0)
  a0:	00677713          	andi	a4,a4,6
  a4:	00e7a023          	sw	a4,0(a5)
  a8:	00000013          	nop
  ac:	01c12403          	lw	s0,28(sp)
  b0:	02010113          	addi	sp,sp,32
  b4:	00008067          	ret

000000b8 <ORI>:
  b8:	fe010113          	addi	sp,sp,-32
  bc:	00812e23          	sw	s0,28(sp)
  c0:	02010413          	addi	s0,sp,32
  c4:	fea42623          	sw	a0,-20(s0)
  c8:	fec42783          	lw	a5,-20(s0)
  cc:	01a7e793          	ori	a5,a5,26
  d0:	fef42623          	sw	a5,-20(s0)
  d4:	fec42703          	lw	a4,-20(s0)
  d8:	01e00793          	li	a5,30
  dc:	00f71a63          	bne	a4,a5,f0 <ORI+0x38>
  e0:	004017b7          	lui	a5,0x401
  e4:	f0c78793          	addi	a5,a5,-244 # 400f0c <_bss_end+0x70c>
  e8:	00100713          	li	a4,1
  ec:	00e7a023          	sw	a4,0(a5)
  f0:	00000013          	nop
  f4:	01c12403          	lw	s0,28(sp)
  f8:	02010113          	addi	sp,sp,32
  fc:	00008067          	ret

00000100 <XORI>:
 100:	fe010113          	addi	sp,sp,-32
 104:	00812e23          	sw	s0,28(sp)
 108:	02010413          	addi	s0,sp,32
 10c:	fea42623          	sw	a0,-20(s0)
 110:	004017b7          	lui	a5,0x401
 114:	f1078793          	addi	a5,a5,-240 # 400f10 <_bss_end+0x710>
 118:	fec42703          	lw	a4,-20(s0)
 11c:	02a74713          	xori	a4,a4,42
 120:	00e7a023          	sw	a4,0(a5)
 124:	00000013          	nop
 128:	01c12403          	lw	s0,28(sp)
 12c:	02010113          	addi	sp,sp,32
 130:	00008067          	ret

00000134 <SLLI>:
 134:	fe010113          	addi	sp,sp,-32
 138:	00812e23          	sw	s0,28(sp)
 13c:	02010413          	addi	s0,sp,32
 140:	fea42623          	sw	a0,-20(s0)
 144:	fec42783          	lw	a5,-20(s0)
 148:	00379793          	slli	a5,a5,0x3
 14c:	fef42623          	sw	a5,-20(s0)
 150:	fec42703          	lw	a4,-20(s0)
 154:	04000793          	li	a5,64
 158:	00f71a63          	bne	a4,a5,16c <SLLI+0x38>
 15c:	004017b7          	lui	a5,0x401
 160:	f1478793          	addi	a5,a5,-236 # 400f14 <_bss_end+0x714>
 164:	00100713          	li	a4,1
 168:	00e7a023          	sw	a4,0(a5)
 16c:	00000013          	nop
 170:	01c12403          	lw	s0,28(sp)
 174:	02010113          	addi	sp,sp,32
 178:	00008067          	ret

0000017c <SRLI>:
 17c:	fe010113          	addi	sp,sp,-32
 180:	00812e23          	sw	s0,28(sp)
 184:	02010413          	addi	s0,sp,32
 188:	fea42623          	sw	a0,-20(s0)
 18c:	000417b7          	lui	a5,0x41
 190:	e0078793          	addi	a5,a5,-512 # 40e00 <_endtext+0x40714>
 194:	fec42703          	lw	a4,-20(s0)
 198:	00c75713          	srli	a4,a4,0xc
 19c:	00e7ac23          	sw	a4,24(a5)
 1a0:	00000013          	nop
 1a4:	01c12403          	lw	s0,28(sp)
 1a8:	02010113          	addi	sp,sp,32
 1ac:	00008067          	ret

000001b0 <SRAI>:
 1b0:	fe010113          	addi	sp,sp,-32
 1b4:	00812e23          	sw	s0,28(sp)
 1b8:	02010413          	addi	s0,sp,32
 1bc:	fea42623          	sw	a0,-20(s0)
 1c0:	fec42783          	lw	a5,-20(s0)
 1c4:	4037d793          	srai	a5,a5,0x3
 1c8:	fef42623          	sw	a5,-20(s0)
 1cc:	fec42703          	lw	a4,-20(s0)
 1d0:	c0000793          	li	a5,-1024
 1d4:	00f71a63          	bne	a4,a5,1e8 <SRAI+0x38>
 1d8:	004017b7          	lui	a5,0x401
 1dc:	f1c78793          	addi	a5,a5,-228 # 400f1c <_bss_end+0x71c>
 1e0:	00100713          	li	a4,1
 1e4:	00e7a023          	sw	a4,0(a5)
 1e8:	00000013          	nop
 1ec:	01c12403          	lw	s0,28(sp)
 1f0:	02010113          	addi	sp,sp,32
 1f4:	00008067          	ret

000001f8 <ADD>:
 1f8:	fe010113          	addi	sp,sp,-32
 1fc:	00812e23          	sw	s0,28(sp)
 200:	02010413          	addi	s0,sp,32
 204:	fea42623          	sw	a0,-20(s0)
 208:	feb42423          	sw	a1,-24(s0)
 20c:	fec42703          	lw	a4,-20(s0)
 210:	fe842783          	lw	a5,-24(s0)
 214:	00f707b3          	add	a5,a4,a5
 218:	fef42623          	sw	a5,-20(s0)
 21c:	fec42703          	lw	a4,-20(s0)
 220:	24300793          	li	a5,579
 224:	00f71a63          	bne	a4,a5,238 <_stack_len+0x38>
 228:	004017b7          	lui	a5,0x401
 22c:	f2078793          	addi	a5,a5,-224 # 400f20 <_bss_end+0x720>
 230:	00100713          	li	a4,1
 234:	00e7a023          	sw	a4,0(a5)
 238:	00000013          	nop
 23c:	01c12403          	lw	s0,28(sp)
 240:	02010113          	addi	sp,sp,32
 244:	00008067          	ret

00000248 <SLT>:
 248:	fe010113          	addi	sp,sp,-32
 24c:	00812e23          	sw	s0,28(sp)
 250:	02010413          	addi	s0,sp,32
 254:	fea42623          	sw	a0,-20(s0)
 258:	feb42423          	sw	a1,-24(s0)
 25c:	fec42703          	lw	a4,-20(s0)
 260:	fe842783          	lw	a5,-24(s0)
 264:	00f727b3          	slt	a5,a4,a5
 268:	0ff7f713          	andi	a4,a5,255
 26c:	004017b7          	lui	a5,0x401
 270:	f2478793          	addi	a5,a5,-220 # 400f24 <_bss_end+0x724>
 274:	00e7a023          	sw	a4,0(a5)
 278:	00000013          	nop
 27c:	01c12403          	lw	s0,28(sp)
 280:	02010113          	addi	sp,sp,32
 284:	00008067          	ret

00000288 <SLTU>:
 288:	fe010113          	addi	sp,sp,-32
 28c:	00812e23          	sw	s0,28(sp)
 290:	02010413          	addi	s0,sp,32
 294:	fea42623          	sw	a0,-20(s0)
 298:	fec42783          	lw	a5,-20(s0)
 29c:	00f037b3          	snez	a5,a5
 2a0:	0ff7f713          	andi	a4,a5,255
 2a4:	004017b7          	lui	a5,0x401
 2a8:	f2878793          	addi	a5,a5,-216 # 400f28 <_bss_end+0x728>
 2ac:	00e7a023          	sw	a4,0(a5)
 2b0:	00000013          	nop
 2b4:	01c12403          	lw	s0,28(sp)
 2b8:	02010113          	addi	sp,sp,32
 2bc:	00008067          	ret

000002c0 <AND>:
 2c0:	fe010113          	addi	sp,sp,-32
 2c4:	00812e23          	sw	s0,28(sp)
 2c8:	02010413          	addi	s0,sp,32
 2cc:	fea42623          	sw	a0,-20(s0)
 2d0:	feb42423          	sw	a1,-24(s0)
 2d4:	004017b7          	lui	a5,0x401
 2d8:	f2c78793          	addi	a5,a5,-212 # 400f2c <_bss_end+0x72c>
 2dc:	fec42683          	lw	a3,-20(s0)
 2e0:	fe842703          	lw	a4,-24(s0)
 2e4:	00e6f733          	and	a4,a3,a4
 2e8:	00e7a023          	sw	a4,0(a5)
 2ec:	00000013          	nop
 2f0:	01c12403          	lw	s0,28(sp)
 2f4:	02010113          	addi	sp,sp,32
 2f8:	00008067          	ret

000002fc <OR>:
 2fc:	fe010113          	addi	sp,sp,-32
 300:	00812e23          	sw	s0,28(sp)
 304:	02010413          	addi	s0,sp,32
 308:	fea42623          	sw	a0,-20(s0)
 30c:	feb42423          	sw	a1,-24(s0)
 310:	fec42703          	lw	a4,-20(s0)
 314:	fe842783          	lw	a5,-24(s0)
 318:	00f767b3          	or	a5,a4,a5
 31c:	fef42623          	sw	a5,-20(s0)
 320:	fec42703          	lw	a4,-20(s0)
 324:	000017b7          	lui	a5,0x1
 328:	ed678793          	addi	a5,a5,-298 # ed6 <_endtext+0x7ea>
 32c:	00f71a63          	bne	a4,a5,340 <OR+0x44>
 330:	004017b7          	lui	a5,0x401
 334:	f3078793          	addi	a5,a5,-208 # 400f30 <_bss_end+0x730>
 338:	00100713          	li	a4,1
 33c:	00e7a023          	sw	a4,0(a5)
 340:	00000013          	nop
 344:	01c12403          	lw	s0,28(sp)
 348:	02010113          	addi	sp,sp,32
 34c:	00008067          	ret

00000350 <XOR>:
 350:	fe010113          	addi	sp,sp,-32
 354:	00812e23          	sw	s0,28(sp)
 358:	02010413          	addi	s0,sp,32
 35c:	fea42623          	sw	a0,-20(s0)
 360:	feb42423          	sw	a1,-24(s0)
 364:	004017b7          	lui	a5,0x401
 368:	f3478793          	addi	a5,a5,-204 # 400f34 <_bss_end+0x734>
 36c:	fec42683          	lw	a3,-20(s0)
 370:	fe842703          	lw	a4,-24(s0)
 374:	00e6c733          	xor	a4,a3,a4
 378:	00e7a023          	sw	a4,0(a5)
 37c:	00000013          	nop
 380:	01c12403          	lw	s0,28(sp)
 384:	02010113          	addi	sp,sp,32
 388:	00008067          	ret

0000038c <SLL>:
 38c:	fe010113          	addi	sp,sp,-32
 390:	00812e23          	sw	s0,28(sp)
 394:	02010413          	addi	s0,sp,32
 398:	fea42623          	sw	a0,-20(s0)
 39c:	feb42423          	sw	a1,-24(s0)
 3a0:	fe842783          	lw	a5,-24(s0)
 3a4:	fec42703          	lw	a4,-20(s0)
 3a8:	00f717b3          	sll	a5,a4,a5
 3ac:	fef42623          	sw	a5,-20(s0)
 3b0:	fec42703          	lw	a4,-20(s0)
 3b4:	000087b7          	lui	a5,0x8
 3b8:	00f71a63          	bne	a4,a5,3cc <SLL+0x40>
 3bc:	004017b7          	lui	a5,0x401
 3c0:	f3878793          	addi	a5,a5,-200 # 400f38 <_bss_end+0x738>
 3c4:	00100713          	li	a4,1
 3c8:	00e7a023          	sw	a4,0(a5)
 3cc:	00000013          	nop
 3d0:	01c12403          	lw	s0,28(sp)
 3d4:	02010113          	addi	sp,sp,32
 3d8:	00008067          	ret

000003dc <SRL>:
 3dc:	fe010113          	addi	sp,sp,-32
 3e0:	00812e23          	sw	s0,28(sp)
 3e4:	02010413          	addi	s0,sp,32
 3e8:	fea42623          	sw	a0,-20(s0)
 3ec:	feb42423          	sw	a1,-24(s0)
 3f0:	000417b7          	lui	a5,0x41
 3f4:	e0078793          	addi	a5,a5,-512 # 40e00 <_endtext+0x40714>
 3f8:	fe842703          	lw	a4,-24(s0)
 3fc:	fec42683          	lw	a3,-20(s0)
 400:	00e6d733          	srl	a4,a3,a4
 404:	02e7ae23          	sw	a4,60(a5)
 408:	00000013          	nop
 40c:	01c12403          	lw	s0,28(sp)
 410:	02010113          	addi	sp,sp,32
 414:	00008067          	ret

00000418 <SUB>:
 418:	fe010113          	addi	sp,sp,-32
 41c:	00812e23          	sw	s0,28(sp)
 420:	02010413          	addi	s0,sp,32
 424:	fea42623          	sw	a0,-20(s0)
 428:	feb42423          	sw	a1,-24(s0)
 42c:	004017b7          	lui	a5,0x401
 430:	f4078793          	addi	a5,a5,-192 # 400f40 <_bss_end+0x740>
 434:	fe842683          	lw	a3,-24(s0)
 438:	fec42703          	lw	a4,-20(s0)
 43c:	40e68733          	sub	a4,a3,a4
 440:	00e7a023          	sw	a4,0(a5)
 444:	00000013          	nop
 448:	01c12403          	lw	s0,28(sp)
 44c:	02010113          	addi	sp,sp,32
 450:	00008067          	ret

00000454 <SRA>:
 454:	fe010113          	addi	sp,sp,-32
 458:	00812e23          	sw	s0,28(sp)
 45c:	02010413          	addi	s0,sp,32
 460:	fea42623          	sw	a0,-20(s0)
 464:	feb42423          	sw	a1,-24(s0)
 468:	fe842783          	lw	a5,-24(s0)
 46c:	fec42703          	lw	a4,-20(s0)
 470:	40f757b3          	sra	a5,a4,a5
 474:	fef42623          	sw	a5,-20(s0)
 478:	fec42703          	lw	a4,-20(s0)
 47c:	c0000793          	li	a5,-1024
 480:	00f71a63          	bne	a4,a5,494 <SRA+0x40>
 484:	004017b7          	lui	a5,0x401
 488:	f4478793          	addi	a5,a5,-188 # 400f44 <_bss_end+0x744>
 48c:	00100713          	li	a4,1
 490:	00e7a023          	sw	a4,0(a5)
 494:	00000013          	nop
 498:	01c12403          	lw	s0,28(sp)
 49c:	02010113          	addi	sp,sp,32
 4a0:	00008067          	ret

000004a4 <BEQ>:
 4a4:	fe010113          	addi	sp,sp,-32
 4a8:	00812e23          	sw	s0,28(sp)
 4ac:	02010413          	addi	s0,sp,32
 4b0:	fea42623          	sw	a0,-20(s0)
 4b4:	feb42423          	sw	a1,-24(s0)
 4b8:	fec42703          	lw	a4,-20(s0)
 4bc:	fe842783          	lw	a5,-24(s0)
 4c0:	00f70a63          	beq	a4,a5,4d4 <BEQ+0x30>
 4c4:	004017b7          	lui	a5,0x401
 4c8:	f4878793          	addi	a5,a5,-184 # 400f48 <_bss_end+0x748>
 4cc:	00100713          	li	a4,1
 4d0:	00e7a023          	sw	a4,0(a5)
 4d4:	00000013          	nop
 4d8:	01c12403          	lw	s0,28(sp)
 4dc:	02010113          	addi	sp,sp,32
 4e0:	00008067          	ret

000004e4 <BNE>:
 4e4:	fe010113          	addi	sp,sp,-32
 4e8:	00812e23          	sw	s0,28(sp)
 4ec:	02010413          	addi	s0,sp,32
 4f0:	fea42623          	sw	a0,-20(s0)
 4f4:	feb42423          	sw	a1,-24(s0)
 4f8:	fec42703          	lw	a4,-20(s0)
 4fc:	fe842783          	lw	a5,-24(s0)
 500:	00f71a63          	bne	a4,a5,514 <BNE+0x30>
 504:	004017b7          	lui	a5,0x401
 508:	f4c78793          	addi	a5,a5,-180 # 400f4c <_bss_end+0x74c>
 50c:	00100713          	li	a4,1
 510:	00e7a023          	sw	a4,0(a5)
 514:	00000013          	nop
 518:	01c12403          	lw	s0,28(sp)
 51c:	02010113          	addi	sp,sp,32
 520:	00008067          	ret

00000524 <BLT>:
 524:	fe010113          	addi	sp,sp,-32
 528:	00812e23          	sw	s0,28(sp)
 52c:	02010413          	addi	s0,sp,32
 530:	fea42623          	sw	a0,-20(s0)
 534:	feb42423          	sw	a1,-24(s0)
 538:	fec42703          	lw	a4,-20(s0)
 53c:	fe842783          	lw	a5,-24(s0)
 540:	00f74a63          	blt	a4,a5,554 <BLT+0x30>
 544:	004017b7          	lui	a5,0x401
 548:	f5078793          	addi	a5,a5,-176 # 400f50 <_bss_end+0x750>
 54c:	00100713          	li	a4,1
 550:	00e7a023          	sw	a4,0(a5)
 554:	00000013          	nop
 558:	01c12403          	lw	s0,28(sp)
 55c:	02010113          	addi	sp,sp,32
 560:	00008067          	ret

00000564 <BGE>:
 564:	fe010113          	addi	sp,sp,-32
 568:	00812e23          	sw	s0,28(sp)
 56c:	02010413          	addi	s0,sp,32
 570:	fea42623          	sw	a0,-20(s0)
 574:	feb42423          	sw	a1,-24(s0)
 578:	fec42703          	lw	a4,-20(s0)
 57c:	fe842783          	lw	a5,-24(s0)
 580:	00f75a63          	bge	a4,a5,594 <BGE+0x30>
 584:	004017b7          	lui	a5,0x401
 588:	f5478793          	addi	a5,a5,-172 # 400f54 <_bss_end+0x754>
 58c:	00100713          	li	a4,1
 590:	00e7a023          	sw	a4,0(a5)
 594:	00000013          	nop
 598:	01c12403          	lw	s0,28(sp)
 59c:	02010113          	addi	sp,sp,32
 5a0:	00008067          	ret

000005a4 <main>:
 5a4:	ff010113          	addi	sp,sp,-16
 5a8:	00112623          	sw	ra,12(sp)
 5ac:	00812423          	sw	s0,8(sp)
 5b0:	01010413          	addi	s0,sp,16
 5b4:	00000513          	li	a0,0
 5b8:	a61ff0ef          	jal	ra,18 <ADDI>
 5bc:	00100513          	li	a0,1
 5c0:	a8dff0ef          	jal	ra,4c <SLTI>
 5c4:	00100513          	li	a0,1
 5c8:	abdff0ef          	jal	ra,84 <ANDI>
 5cc:	00c00513          	li	a0,12
 5d0:	ae9ff0ef          	jal	ra,b8 <ORI>
 5d4:	02900513          	li	a0,41
 5d8:	b29ff0ef          	jal	ra,100 <XORI>
 5dc:	00800513          	li	a0,8
 5e0:	b55ff0ef          	jal	ra,134 <SLLI>
 5e4:	00001537          	lui	a0,0x1
 5e8:	b95ff0ef          	jal	ra,17c <SRLI>
 5ec:	fffff537          	lui	a0,0xfffff
 5f0:	bc1ff0ef          	jal	ra,1b0 <SRAI>
 5f4:	1c800593          	li	a1,456
 5f8:	07b00513          	li	a0,123
 5fc:	bfdff0ef          	jal	ra,1f8 <ADD>
 600:	0ab00593          	li	a1,171
 604:	05500513          	li	a0,85
 608:	cb9ff0ef          	jal	ra,2c0 <AND>
 60c:	000017b7          	lui	a5,0x1
 610:	e4678593          	addi	a1,a5,-442 # e46 <_endtext+0x75a>
 614:	4d200513          	li	a0,1234
 618:	ce5ff0ef          	jal	ra,2fc <OR>
 61c:	02900593          	li	a1,41
 620:	02a00513          	li	a0,42
 624:	d2dff0ef          	jal	ra,350 <XOR>
 628:	00300593          	li	a1,3
 62c:	00001537          	lui	a0,0x1
 630:	d5dff0ef          	jal	ra,38c <SLL>
 634:	00c00593          	li	a1,12
 638:	00001537          	lui	a0,0x1
 63c:	da1ff0ef          	jal	ra,3dc <SRL>
 640:	07a00593          	li	a1,122
 644:	07b00513          	li	a0,123
 648:	dd1ff0ef          	jal	ra,418 <SUB>
 64c:	00300593          	li	a1,3
 650:	fffff537          	lui	a0,0xfffff
 654:	e01ff0ef          	jal	ra,454 <SRA>
 658:	00900593          	li	a1,9
 65c:	00500513          	li	a0,5
 660:	e45ff0ef          	jal	ra,4a4 <BEQ>
 664:	02a00593          	li	a1,42
 668:	02a00513          	li	a0,42
 66c:	e79ff0ef          	jal	ra,4e4 <BNE>
 670:	00400593          	li	a1,4
 674:	00900513          	li	a0,9
 678:	eadff0ef          	jal	ra,524 <BLT>
 67c:	00700593          	li	a1,7
 680:	00100513          	li	a0,1
 684:	ee1ff0ef          	jal	ra,564 <BGE>
 688:	00000013          	nop
 68c:	00078513          	mv	a0,a5
 690:	00c12083          	lw	ra,12(sp)
 694:	00812403          	lw	s0,8(sp)
 698:	01010113          	addi	sp,sp,16
 69c:	00008067          	ret

000006a0 <reset_handler>:
 6a0:	00000093          	li	ra,0
 6a4:	00008113          	mv	sp,ra
 6a8:	00008193          	mv	gp,ra
 6ac:	00008213          	mv	tp,ra
 6b0:	00008293          	mv	t0,ra
 6b4:	00008313          	mv	t1,ra
 6b8:	00008393          	mv	t2,ra
 6bc:	00008413          	mv	s0,ra
 6c0:	00008493          	mv	s1,ra
 6c4:	00008513          	mv	a0,ra
 6c8:	00008593          	mv	a1,ra
 6cc:	00008613          	mv	a2,ra
 6d0:	00008693          	mv	a3,ra
 6d4:	00008713          	mv	a4,ra
 6d8:	00008793          	mv	a5,ra
 6dc:	00c002b7          	lui	t0,0xc00
 6e0:	00c28293          	addi	t0,t0,12 # c0000c <_bss_end+0x7ff80c>
 6e4:	0002a103          	lw	sp,0(t0)
 6e8:	ebdff0ef          	jal	ra,5a4 <main>
