
MC_Multitask_rv32i.elf:     file format elf32-littleriscv


Disassembly of section .vectors:

00000000 <reset_handler-0x18>:
   0:	00000013          	nop
   4:	00000013          	nop
   8:	00000013          	nop
   c:	00000013          	nop
  10:	00000013          	nop
  14:	0040006f          	j	18 <reset_handler>

00000018 <reset_handler>:
  18:	00000093          	li	ra,0
  1c:	00008113          	mv	sp,ra
  20:	00008193          	mv	gp,ra
  24:	00008213          	mv	tp,ra
  28:	00008293          	mv	t0,ra
  2c:	00008313          	mv	t1,ra
  30:	00008393          	mv	t2,ra
  34:	00008413          	mv	s0,ra
  38:	00008493          	mv	s1,ra
  3c:	00008513          	mv	a0,ra
  40:	00008593          	mv	a1,ra
  44:	00008613          	mv	a2,ra
  48:	00008693          	mv	a3,ra
  4c:	00008713          	mv	a4,ra
  50:	00008793          	mv	a5,ra
  54:	00008813          	mv	a6,ra
  58:	00008893          	mv	a7,ra
  5c:	00008913          	mv	s2,ra
  60:	00008993          	mv	s3,ra
  64:	00008a13          	mv	s4,ra
  68:	00008a93          	mv	s5,ra
  6c:	00008b13          	mv	s6,ra
  70:	00008b93          	mv	s7,ra
  74:	00008c13          	mv	s8,ra
  78:	00008c93          	mv	s9,ra
  7c:	00008d13          	mv	s10,ra
  80:	00008d93          	mv	s11,ra
  84:	00008e13          	mv	t3,ra
  88:	00008e93          	mv	t4,ra
  8c:	00008f13          	mv	t5,ra
  90:	00008f93          	mv	t6,ra
  94:	00c002b7          	lui	t0,0xc00
  98:	00c28293          	addi	t0,t0,12 # c0000c <_bss_end+0x7ff72c>
  9c:	0002a103          	lw	sp,0(t0)
  a0:	268000ef          	jal	ra,308 <main>
  a4:	00100073          	ebreak

Disassembly of section .text:

000000a8 <swap>:
  a8:	fd010113          	addi	sp,sp,-48
  ac:	02812623          	sw	s0,44(sp)
  b0:	03010413          	addi	s0,sp,48
  b4:	fca42e23          	sw	a0,-36(s0)
  b8:	fcb42c23          	sw	a1,-40(s0)
  bc:	fdc42783          	lw	a5,-36(s0)
  c0:	0007a783          	lw	a5,0(a5)
  c4:	fef42623          	sw	a5,-20(s0)
  c8:	fd842783          	lw	a5,-40(s0)
  cc:	0007a703          	lw	a4,0(a5)
  d0:	fdc42783          	lw	a5,-36(s0)
  d4:	00e7a023          	sw	a4,0(a5)
  d8:	fec42703          	lw	a4,-20(s0)
  dc:	fd842783          	lw	a5,-40(s0)
  e0:	00e7a023          	sw	a4,0(a5)
  e4:	00000013          	nop
  e8:	02c12403          	lw	s0,44(sp)
  ec:	03010113          	addi	sp,sp,48
  f0:	00008067          	ret

000000f4 <bubbleSort>:
  f4:	fd010113          	addi	sp,sp,-48
  f8:	02112623          	sw	ra,44(sp)
  fc:	02812423          	sw	s0,40(sp)
 100:	03010413          	addi	s0,sp,48
 104:	fca42e23          	sw	a0,-36(s0)
 108:	fcb42c23          	sw	a1,-40(s0)
 10c:	fe042623          	sw	zero,-20(s0)
 110:	09c0006f          	j	1ac <_min_stack+0xac>
 114:	fe042423          	sw	zero,-24(s0)
 118:	0700006f          	j	188 <_min_stack+0x88>
 11c:	fe842783          	lw	a5,-24(s0)
 120:	00279793          	slli	a5,a5,0x2
 124:	fdc42703          	lw	a4,-36(s0)
 128:	00f707b3          	add	a5,a4,a5
 12c:	0007a703          	lw	a4,0(a5)
 130:	fe842783          	lw	a5,-24(s0)
 134:	00178793          	addi	a5,a5,1
 138:	00279793          	slli	a5,a5,0x2
 13c:	fdc42683          	lw	a3,-36(s0)
 140:	00f687b3          	add	a5,a3,a5
 144:	0007a783          	lw	a5,0(a5)
 148:	02e7da63          	bge	a5,a4,17c <_min_stack+0x7c>
 14c:	fe842783          	lw	a5,-24(s0)
 150:	00279793          	slli	a5,a5,0x2
 154:	fdc42703          	lw	a4,-36(s0)
 158:	00f706b3          	add	a3,a4,a5
 15c:	fe842783          	lw	a5,-24(s0)
 160:	00178793          	addi	a5,a5,1
 164:	00279793          	slli	a5,a5,0x2
 168:	fdc42703          	lw	a4,-36(s0)
 16c:	00f707b3          	add	a5,a4,a5
 170:	00078593          	mv	a1,a5
 174:	00068513          	mv	a0,a3
 178:	f31ff0ef          	jal	ra,a8 <swap>
 17c:	fe842783          	lw	a5,-24(s0)
 180:	00178793          	addi	a5,a5,1
 184:	fef42423          	sw	a5,-24(s0)
 188:	fd842703          	lw	a4,-40(s0)
 18c:	fec42783          	lw	a5,-20(s0)
 190:	40f707b3          	sub	a5,a4,a5
 194:	fff78793          	addi	a5,a5,-1
 198:	fe842703          	lw	a4,-24(s0)
 19c:	f8f740e3          	blt	a4,a5,11c <_min_stack+0x1c>
 1a0:	fec42783          	lw	a5,-20(s0)
 1a4:	00178793          	addi	a5,a5,1
 1a8:	fef42623          	sw	a5,-20(s0)
 1ac:	fd842783          	lw	a5,-40(s0)
 1b0:	fff78793          	addi	a5,a5,-1
 1b4:	fec42703          	lw	a4,-20(s0)
 1b8:	f4f74ee3          	blt	a4,a5,114 <_min_stack+0x14>
 1bc:	00000013          	nop
 1c0:	00000013          	nop
 1c4:	02c12083          	lw	ra,44(sp)
 1c8:	02812403          	lw	s0,40(sp)
 1cc:	03010113          	addi	sp,sp,48
 1d0:	00008067          	ret

000001d4 <multiply>:
 1d4:	fd010113          	addi	sp,sp,-48
 1d8:	02112623          	sw	ra,44(sp)
 1dc:	02812423          	sw	s0,40(sp)
 1e0:	03010413          	addi	s0,sp,48
 1e4:	fca42e23          	sw	a0,-36(s0)
 1e8:	fcb42c23          	sw	a1,-40(s0)
 1ec:	fcc42a23          	sw	a2,-44(s0)
 1f0:	fd442783          	lw	a5,-44(s0)
 1f4:	0ff00713          	li	a4,255
 1f8:	00e7a023          	sw	a4,0(a5)
 1fc:	fd442783          	lw	a5,-44(s0)
 200:	0fe00713          	li	a4,254
 204:	00e7a023          	sw	a4,0(a5)
 208:	fe042623          	sw	zero,-20(s0)
 20c:	0d80006f          	j	2e4 <_stack_len+0xe4>
 210:	fe042423          	sw	zero,-24(s0)
 214:	0b80006f          	j	2cc <_stack_len+0xcc>
 218:	fe042023          	sw	zero,-32(s0)
 21c:	fe042223          	sw	zero,-28(s0)
 220:	0700006f          	j	290 <_stack_len+0x90>
 224:	fec42783          	lw	a5,-20(s0)
 228:	00279713          	slli	a4,a5,0x2
 22c:	fe442783          	lw	a5,-28(s0)
 230:	00f707b3          	add	a5,a4,a5
 234:	00279793          	slli	a5,a5,0x2
 238:	fdc42703          	lw	a4,-36(s0)
 23c:	00f707b3          	add	a5,a4,a5
 240:	0007a683          	lw	a3,0(a5)
 244:	fe442783          	lw	a5,-28(s0)
 248:	00279713          	slli	a4,a5,0x2
 24c:	fe842783          	lw	a5,-24(s0)
 250:	00f707b3          	add	a5,a4,a5
 254:	00279793          	slli	a5,a5,0x2
 258:	fd842703          	lw	a4,-40(s0)
 25c:	00f707b3          	add	a5,a4,a5
 260:	0007a783          	lw	a5,0(a5)
 264:	00078593          	mv	a1,a5
 268:	00068513          	mv	a0,a3
 26c:	3c0000ef          	jal	ra,62c <__mulsi3>
 270:	00050793          	mv	a5,a0
 274:	00078713          	mv	a4,a5
 278:	fe042783          	lw	a5,-32(s0)
 27c:	00e787b3          	add	a5,a5,a4
 280:	fef42023          	sw	a5,-32(s0)
 284:	fe442783          	lw	a5,-28(s0)
 288:	00178793          	addi	a5,a5,1
 28c:	fef42223          	sw	a5,-28(s0)
 290:	fe442703          	lw	a4,-28(s0)
 294:	00300793          	li	a5,3
 298:	f8e7d6e3          	bge	a5,a4,224 <_stack_len+0x24>
 29c:	fec42783          	lw	a5,-20(s0)
 2a0:	00279713          	slli	a4,a5,0x2
 2a4:	fe842783          	lw	a5,-24(s0)
 2a8:	00f707b3          	add	a5,a4,a5
 2ac:	00279793          	slli	a5,a5,0x2
 2b0:	fd442703          	lw	a4,-44(s0)
 2b4:	00f707b3          	add	a5,a4,a5
 2b8:	fe042703          	lw	a4,-32(s0)
 2bc:	00e7a023          	sw	a4,0(a5)
 2c0:	fe842783          	lw	a5,-24(s0)
 2c4:	00178793          	addi	a5,a5,1
 2c8:	fef42423          	sw	a5,-24(s0)
 2cc:	fe842703          	lw	a4,-24(s0)
 2d0:	00300793          	li	a5,3
 2d4:	f4e7d2e3          	bge	a5,a4,218 <_stack_len+0x18>
 2d8:	fec42783          	lw	a5,-20(s0)
 2dc:	00178793          	addi	a5,a5,1
 2e0:	fef42623          	sw	a5,-20(s0)
 2e4:	fec42703          	lw	a4,-20(s0)
 2e8:	00300793          	li	a5,3
 2ec:	f2e7d2e3          	bge	a5,a4,210 <_stack_len+0x10>
 2f0:	00000013          	nop
 2f4:	00000013          	nop
 2f8:	02c12083          	lw	ra,44(sp)
 2fc:	02812403          	lw	s0,40(sp)
 300:	03010113          	addi	sp,sp,48
 304:	00008067          	ret

00000308 <main>:
 308:	f4010113          	addi	sp,sp,-192
 30c:	0a112e23          	sw	ra,188(sp)
 310:	0a812c23          	sw	s0,184(sp)
 314:	0c010413          	addi	s0,sp,192
 318:	00c007b7          	lui	a5,0xc00
 31c:	0007a783          	lw	a5,0(a5) # c00000 <_bss_end+0x7ff720>
 320:	fef42023          	sw	a5,-32(s0)
 324:	fc042e23          	sw	zero,-36(s0)
 328:	fe042783          	lw	a5,-32(s0)
 32c:	ffc78793          	addi	a5,a5,-4
 330:	00700713          	li	a4,7
 334:	2ef76063          	bltu	a4,a5,614 <main+0x30c>
 338:	00279713          	slli	a4,a5,0x2
 33c:	004017b7          	lui	a5,0x401
 340:	8c078793          	addi	a5,a5,-1856 # 4008c0 <_stack_start+0x6c0>
 344:	00f707b3          	add	a5,a4,a5
 348:	0007a783          	lw	a5,0(a5)
 34c:	00078067          	jr	a5
 350:	01c007b7          	lui	a5,0x1c00
 354:	15078793          	addi	a5,a5,336 # 1c00150 <_bss_end+0x17ff870>
 358:	0007a023          	sw	zero,0(a5)
 35c:	024017b7          	lui	a5,0x2401
 360:	90078793          	addi	a5,a5,-1792 # 2400900 <_bss_end+0x2000020>
 364:	fcf42223          	sw	a5,-60(s0)
 368:	00800593          	li	a1,8
 36c:	fc442503          	lw	a0,-60(s0)
 370:	d85ff0ef          	jal	ra,f4 <bubbleSort>
 374:	0000006f          	j	374 <main+0x6c>
 378:	004017b7          	lui	a5,0x401
 37c:	80078793          	addi	a5,a5,-2048 # 400800 <_stack_start+0x600>
 380:	0007a883          	lw	a7,0(a5)
 384:	0047a803          	lw	a6,4(a5)
 388:	0087a503          	lw	a0,8(a5)
 38c:	00c7a583          	lw	a1,12(a5)
 390:	0107a603          	lw	a2,16(a5)
 394:	0147a683          	lw	a3,20(a5)
 398:	0187a703          	lw	a4,24(a5)
 39c:	01c7a783          	lw	a5,28(a5)
 3a0:	f9142223          	sw	a7,-124(s0)
 3a4:	f9042423          	sw	a6,-120(s0)
 3a8:	f8a42623          	sw	a0,-116(s0)
 3ac:	f8b42823          	sw	a1,-112(s0)
 3b0:	f8c42a23          	sw	a2,-108(s0)
 3b4:	f8d42c23          	sw	a3,-104(s0)
 3b8:	f8e42e23          	sw	a4,-100(s0)
 3bc:	faf42023          	sw	a5,-96(s0)
 3c0:	fe042623          	sw	zero,-20(s0)
 3c4:	03c0006f          	j	400 <main+0xf8>
 3c8:	fec42783          	lw	a5,-20(s0)
 3cc:	00279713          	slli	a4,a5,0x2
 3d0:	004017b7          	lui	a5,0x401
 3d4:	90078793          	addi	a5,a5,-1792 # 400900 <_bss_end+0x20>
 3d8:	00f70733          	add	a4,a4,a5
 3dc:	fec42783          	lw	a5,-20(s0)
 3e0:	00279793          	slli	a5,a5,0x2
 3e4:	ff040693          	addi	a3,s0,-16
 3e8:	00f687b3          	add	a5,a3,a5
 3ec:	f947a783          	lw	a5,-108(a5)
 3f0:	00f72023          	sw	a5,0(a4)
 3f4:	fec42783          	lw	a5,-20(s0)
 3f8:	00178793          	addi	a5,a5,1
 3fc:	fef42623          	sw	a5,-20(s0)
 400:	fec42703          	lw	a4,-20(s0)
 404:	00700793          	li	a5,7
 408:	fce7d0e3          	bge	a5,a4,3c8 <main+0xc0>
 40c:	02c007b7          	lui	a5,0x2c00
 410:	15478793          	addi	a5,a5,340 # 2c00154 <_bss_end+0x27ff874>
 414:	00100713          	li	a4,1
 418:	00e7a023          	sw	a4,0(a5)
 41c:	0000006f          	j	41c <main+0x114>
 420:	fc042423          	sw	zero,-56(s0)
 424:	004017b7          	lui	a5,0x401
 428:	82078713          	addi	a4,a5,-2016 # 400820 <_stack_start+0x620>
 42c:	f4440793          	addi	a5,s0,-188
 430:	00070693          	mv	a3,a4
 434:	04000713          	li	a4,64
 438:	00070613          	mv	a2,a4
 43c:	00068593          	mv	a1,a3
 440:	00078513          	mv	a0,a5
 444:	20c000ef          	jal	ra,650 <memcpy>
 448:	004017b7          	lui	a5,0x401
 44c:	86078713          	addi	a4,a5,-1952 # 400860 <_stack_start+0x660>
 450:	f8440793          	addi	a5,s0,-124
 454:	00070693          	mv	a3,a4
 458:	04000713          	li	a4,64
 45c:	00070613          	mv	a2,a4
 460:	00068593          	mv	a1,a3
 464:	00078513          	mv	a0,a5
 468:	1e8000ef          	jal	ra,650 <memcpy>
 46c:	fe042423          	sw	zero,-24(s0)
 470:	0680006f          	j	4d8 <main+0x1d0>
 474:	fe842783          	lw	a5,-24(s0)
 478:	00279713          	slli	a4,a5,0x2
 47c:	004017b7          	lui	a5,0x401
 480:	a0078793          	addi	a5,a5,-1536 # 400a00 <_bss_end+0x120>
 484:	00f70733          	add	a4,a4,a5
 488:	fe842783          	lw	a5,-24(s0)
 48c:	00279793          	slli	a5,a5,0x2
 490:	ff040693          	addi	a3,s0,-16
 494:	00f687b3          	add	a5,a3,a5
 498:	f547a783          	lw	a5,-172(a5)
 49c:	00f72023          	sw	a5,0(a4)
 4a0:	fe842783          	lw	a5,-24(s0)
 4a4:	00279713          	slli	a4,a5,0x2
 4a8:	004017b7          	lui	a5,0x401
 4ac:	b0078793          	addi	a5,a5,-1280 # 400b00 <_bss_end+0x220>
 4b0:	00f70733          	add	a4,a4,a5
 4b4:	fe842783          	lw	a5,-24(s0)
 4b8:	00279793          	slli	a5,a5,0x2
 4bc:	ff040693          	addi	a3,s0,-16
 4c0:	00f687b3          	add	a5,a3,a5
 4c4:	f947a783          	lw	a5,-108(a5)
 4c8:	00f72023          	sw	a5,0(a4)
 4cc:	fe842783          	lw	a5,-24(s0)
 4d0:	00178793          	addi	a5,a5,1
 4d4:	fef42423          	sw	a5,-24(s0)
 4d8:	fe842703          	lw	a4,-24(s0)
 4dc:	00f00793          	li	a5,15
 4e0:	f8e7dae3          	bge	a5,a4,474 <main+0x16c>
 4e4:	02c007b7          	lui	a5,0x2c00
 4e8:	15878793          	addi	a5,a5,344 # 2c00158 <_bss_end+0x27ff878>
 4ec:	00100713          	li	a4,1
 4f0:	00e7a023          	sw	a4,0(a5)
 4f4:	0000006f          	j	4f4 <main+0x1ec>
 4f8:	0000006f          	j	4f8 <main+0x1f0>
 4fc:	004017b7          	lui	a5,0x401
 500:	8a078793          	addi	a5,a5,-1888 # 4008a0 <_stack_start+0x6a0>
 504:	0007a883          	lw	a7,0(a5)
 508:	0047a803          	lw	a6,4(a5)
 50c:	0087a503          	lw	a0,8(a5)
 510:	00c7a583          	lw	a1,12(a5)
 514:	0107a603          	lw	a2,16(a5)
 518:	0147a683          	lw	a3,20(a5)
 51c:	0187a703          	lw	a4,24(a5)
 520:	01c7a783          	lw	a5,28(a5)
 524:	f9142223          	sw	a7,-124(s0)
 528:	f9042423          	sw	a6,-120(s0)
 52c:	f8a42623          	sw	a0,-116(s0)
 530:	f8b42823          	sw	a1,-112(s0)
 534:	f8c42a23          	sw	a2,-108(s0)
 538:	f8d42c23          	sw	a3,-104(s0)
 53c:	f8e42e23          	sw	a4,-100(s0)
 540:	faf42023          	sw	a5,-96(s0)
 544:	fe042223          	sw	zero,-28(s0)
 548:	03c0006f          	j	584 <main+0x27c>
 54c:	fe442783          	lw	a5,-28(s0)
 550:	00279713          	slli	a4,a5,0x2
 554:	004017b7          	lui	a5,0x401
 558:	90078793          	addi	a5,a5,-1792 # 400900 <_bss_end+0x20>
 55c:	00f70733          	add	a4,a4,a5
 560:	fe442783          	lw	a5,-28(s0)
 564:	00279793          	slli	a5,a5,0x2
 568:	ff040693          	addi	a3,s0,-16
 56c:	00f687b3          	add	a5,a3,a5
 570:	f947a783          	lw	a5,-108(a5)
 574:	00f72023          	sw	a5,0(a4)
 578:	fe442783          	lw	a5,-28(s0)
 57c:	00178793          	addi	a5,a5,1
 580:	fef42223          	sw	a5,-28(s0)
 584:	fe442703          	lw	a4,-28(s0)
 588:	00700793          	li	a5,7
 58c:	fce7d0e3          	bge	a5,a4,54c <main+0x244>
 590:	01c007b7          	lui	a5,0x1c00
 594:	15078793          	addi	a5,a5,336 # 1c00150 <_bss_end+0x17ff870>
 598:	00100713          	li	a4,1
 59c:	00e7a023          	sw	a4,0(a5)
 5a0:	0000006f          	j	5a0 <main+0x298>
 5a4:	02c007b7          	lui	a5,0x2c00
 5a8:	15478793          	addi	a5,a5,340 # 2c00154 <_bss_end+0x27ff874>
 5ac:	0007a023          	sw	zero,0(a5)
 5b0:	014017b7          	lui	a5,0x1401
 5b4:	90078793          	addi	a5,a5,-1792 # 1400900 <_bss_end+0x1000020>
 5b8:	fcf42623          	sw	a5,-52(s0)
 5bc:	00800593          	li	a1,8
 5c0:	fcc42503          	lw	a0,-52(s0)
 5c4:	b31ff0ef          	jal	ra,f4 <bubbleSort>
 5c8:	0000006f          	j	5c8 <main+0x2c0>
 5cc:	02c007b7          	lui	a5,0x2c00
 5d0:	15878793          	addi	a5,a5,344 # 2c00158 <_bss_end+0x27ff878>
 5d4:	0007a023          	sw	zero,0(a5)
 5d8:	014017b7          	lui	a5,0x1401
 5dc:	a0078793          	addi	a5,a5,-1536 # 1400a00 <_bss_end+0x1000120>
 5e0:	fcf42c23          	sw	a5,-40(s0)
 5e4:	014017b7          	lui	a5,0x1401
 5e8:	b0078793          	addi	a5,a5,-1280 # 1400b00 <_bss_end+0x1000220>
 5ec:	fcf42a23          	sw	a5,-44(s0)
 5f0:	014017b7          	lui	a5,0x1401
 5f4:	c0078793          	addi	a5,a5,-1024 # 1400c00 <_bss_end+0x1000320>
 5f8:	fcf42823          	sw	a5,-48(s0)
 5fc:	fd042603          	lw	a2,-48(s0)
 600:	fd442583          	lw	a1,-44(s0)
 604:	fd842503          	lw	a0,-40(s0)
 608:	bcdff0ef          	jal	ra,1d4 <multiply>
 60c:	0080006f          	j	614 <main+0x30c>
 610:	0000006f          	j	610 <main+0x308>
 614:	00000793          	li	a5,0
 618:	00078513          	mv	a0,a5
 61c:	0bc12083          	lw	ra,188(sp)
 620:	0b812403          	lw	s0,184(sp)
 624:	0c010113          	addi	sp,sp,192
 628:	00008067          	ret

0000062c <__mulsi3>:
 62c:	00050613          	mv	a2,a0
 630:	00000513          	li	a0,0
 634:	0015f693          	andi	a3,a1,1
 638:	00068463          	beqz	a3,640 <__mulsi3+0x14>
 63c:	00c50533          	add	a0,a0,a2
 640:	0015d593          	srli	a1,a1,0x1
 644:	00161613          	slli	a2,a2,0x1
 648:	fe0596e3          	bnez	a1,634 <__mulsi3+0x8>
 64c:	00008067          	ret

00000650 <memcpy>:
 650:	00a5c7b3          	xor	a5,a1,a0
 654:	0037f793          	andi	a5,a5,3
 658:	00c508b3          	add	a7,a0,a2
 65c:	06079663          	bnez	a5,6c8 <memcpy+0x78>
 660:	00300793          	li	a5,3
 664:	06c7f263          	bgeu	a5,a2,6c8 <memcpy+0x78>
 668:	00357793          	andi	a5,a0,3
 66c:	00050713          	mv	a4,a0
 670:	0c079a63          	bnez	a5,744 <memcpy+0xf4>
 674:	ffc8f613          	andi	a2,a7,-4
 678:	40e606b3          	sub	a3,a2,a4
 67c:	02000793          	li	a5,32
 680:	02000293          	li	t0,32
 684:	06d7c263          	blt	a5,a3,6e8 <memcpy+0x98>
 688:	00058693          	mv	a3,a1
 68c:	00070793          	mv	a5,a4
 690:	02c77863          	bgeu	a4,a2,6c0 <memcpy+0x70>
 694:	0006a803          	lw	a6,0(a3)
 698:	00478793          	addi	a5,a5,4
 69c:	00468693          	addi	a3,a3,4
 6a0:	ff07ae23          	sw	a6,-4(a5)
 6a4:	fec7e8e3          	bltu	a5,a2,694 <memcpy+0x44>
 6a8:	fff60793          	addi	a5,a2,-1
 6ac:	40e787b3          	sub	a5,a5,a4
 6b0:	ffc7f793          	andi	a5,a5,-4
 6b4:	00478793          	addi	a5,a5,4
 6b8:	00f70733          	add	a4,a4,a5
 6bc:	00f585b3          	add	a1,a1,a5
 6c0:	01176863          	bltu	a4,a7,6d0 <memcpy+0x80>
 6c4:	00008067          	ret
 6c8:	00050713          	mv	a4,a0
 6cc:	ff157ce3          	bgeu	a0,a7,6c4 <memcpy+0x74>
 6d0:	0005c783          	lbu	a5,0(a1)
 6d4:	00170713          	addi	a4,a4,1
 6d8:	00158593          	addi	a1,a1,1
 6dc:	fef70fa3          	sb	a5,-1(a4)
 6e0:	ff1768e3          	bltu	a4,a7,6d0 <memcpy+0x80>
 6e4:	00008067          	ret
 6e8:	0045a683          	lw	a3,4(a1)
 6ec:	01c5a783          	lw	a5,28(a1)
 6f0:	0005af83          	lw	t6,0(a1)
 6f4:	0085af03          	lw	t5,8(a1)
 6f8:	00c5ae83          	lw	t4,12(a1)
 6fc:	0105ae03          	lw	t3,16(a1)
 700:	0145a303          	lw	t1,20(a1)
 704:	0185a803          	lw	a6,24(a1)
 708:	00d72223          	sw	a3,4(a4)
 70c:	0205a683          	lw	a3,32(a1)
 710:	01f72023          	sw	t6,0(a4)
 714:	01e72423          	sw	t5,8(a4)
 718:	01d72623          	sw	t4,12(a4)
 71c:	01c72823          	sw	t3,16(a4)
 720:	00672a23          	sw	t1,20(a4)
 724:	01072c23          	sw	a6,24(a4)
 728:	00f72e23          	sw	a5,28(a4)
 72c:	02470713          	addi	a4,a4,36
 730:	40e607b3          	sub	a5,a2,a4
 734:	fed72e23          	sw	a3,-4(a4)
 738:	02458593          	addi	a1,a1,36
 73c:	faf2c6e3          	blt	t0,a5,6e8 <memcpy+0x98>
 740:	f49ff06f          	j	688 <memcpy+0x38>
 744:	0005c683          	lbu	a3,0(a1)
 748:	00170713          	addi	a4,a4,1
 74c:	00377793          	andi	a5,a4,3
 750:	fed70fa3          	sb	a3,-1(a4)
 754:	00158593          	addi	a1,a1,1
 758:	f0078ee3          	beqz	a5,674 <memcpy+0x24>
 75c:	0005c683          	lbu	a3,0(a1)
 760:	00170713          	addi	a4,a4,1
 764:	00377793          	andi	a5,a4,3
 768:	fed70fa3          	sb	a3,-1(a4)
 76c:	00158593          	addi	a1,a1,1
 770:	fc079ae3          	bnez	a5,744 <memcpy+0xf4>
 774:	f01ff06f          	j	674 <memcpy+0x24>
Raw dump of debug contents of section .debug_line (loaded from MC_Multitask_rv32i.elf):

  Offset:                      0x0
  Length:                      142
  DWARF Version:               3
  Prologue Length:             72
  Minimum Instruction Length:  1
  Initial value of 'is_stmt':  1
  Line Base:                   -5
  Line Range:                  14
  Opcode Base:                 13

 Opcodes:
  Opcode 1 has 0 args
  Opcode 2 has 1 arg
  Opcode 3 has 1 arg
  Opcode 4 has 1 arg
  Opcode 5 has 1 arg
  Opcode 6 has 0 args
  Opcode 7 has 0 args
  Opcode 8 has 0 args
  Opcode 9 has 1 arg
  Opcode 10 has 0 args
  Opcode 11 has 0 args
  Opcode 12 has 1 arg

 The Directory Table (offset 0x1b):
  1	../../.././riscv-gcc/libgcc/config/riscv

 The File Name Table (offset 0x45):
  Entry	Dir	Time	Size	Name
  1	1	0	0	muldi3.S

 Line Number Statements:
  [0x00000052]  Extended opcode 2: set Address to 0x62c
  [0x00000059]  Advance Line by 36 to 37
  [0x0000005b]  Copy
  [0x0000005c]  Advance Line by 1 to 38
  [0x0000005e]  Advance PC by fixed size amount 4 to 0x630
  [0x00000061]  Copy (view 1)
  [0x00000062]  Advance Line by 2 to 40
  [0x00000064]  Advance PC by fixed size amount 4 to 0x634
  [0x00000067]  Copy (view 2)
  [0x00000068]  Advance Line by 1 to 41
  [0x0000006a]  Advance PC by fixed size amount 4 to 0x638
  [0x0000006d]  Copy (view 3)
  [0x0000006e]  Advance Line by 1 to 42
  [0x00000070]  Advance PC by fixed size amount 4 to 0x63c
  [0x00000073]  Copy (view 4)
  [0x00000074]  Advance Line by 2 to 44
  [0x00000076]  Advance PC by fixed size amount 4 to 0x640
  [0x00000079]  Copy (view 5)
  [0x0000007a]  Advance Line by 1 to 45
  [0x0000007c]  Advance PC by fixed size amount 4 to 0x644
  [0x0000007f]  Copy (view 6)
  [0x00000080]  Advance Line by 1 to 46
  [0x00000082]  Advance PC by fixed size amount 4 to 0x648
  [0x00000085]  Copy (view 7)
  [0x00000086]  Advance Line by 1 to 47
  [0x00000088]  Advance PC by fixed size amount 4 to 0x64c
  [0x0000008b]  Copy (view 8)
  [0x0000008c]  Advance PC by fixed size amount 4 to 0x650
  [0x0000008f]  Extended opcode 1: End of Sequence


Contents of the .debug_info section (loaded from MC_Multitask_rv32i.elf):

  Compilation Unit @ offset 0x0:
   Length:        0x22 (32-bit)
   Version:       2
   Abbrev Offset: 0x0
   Pointer Size:  4
 <0><b>: Abbrev Number: 1 (DW_TAG_compile_unit)
    <c>   DW_AT_stmt_list   : 0x0
    <10>   DW_AT_low_pc      : 0x62c
    <14>   DW_AT_high_pc     : 0x650
    <18>   DW_AT_name        : (indirect string, offset: 0x0): ../../.././riscv-gcc/libgcc/config/riscv/muldi3.S
    <1c>   DW_AT_comp_dir    : (indirect string, offset: 0x32): /home/adlv/projects/riscv/riscv-gnu-toolchain/build-gcc-newlib-stage2/riscv32-unknown-elf/libgcc
    <20>   DW_AT_producer    : (indirect string, offset: 0x93): GNU AS 2.35
    <24>   DW_AT_language    : 32769	(MIPS assembler)

Contents of the .debug_abbrev section (loaded from MC_Multitask_rv32i.elf):

  Number TAG (0x0)
   1      DW_TAG_compile_unit    [no children]
    DW_AT_stmt_list    DW_FORM_data4
    DW_AT_low_pc       DW_FORM_addr
    DW_AT_high_pc      DW_FORM_addr
    DW_AT_name         DW_FORM_strp
    DW_AT_comp_dir     DW_FORM_strp
    DW_AT_producer     DW_FORM_strp
    DW_AT_language     DW_FORM_data2
    DW_AT value: 0     DW_FORM value: 0

Contents of the .debug_aranges section (loaded from MC_Multitask_rv32i.elf):

  Length:                   28
  Version:                  2
  Offset into .debug_info:  0x0
  Pointer Size:             4
  Segment Size:             0

    Address    Length
    0000062c 00000024 
    00000000 00000000 

Contents of the .debug_str section (loaded from MC_Multitask_rv32i.elf):

  0x00000000 2e2e2f2e 2e2f2e2e 2f2e2f72 69736376 ../../.././riscv
  0x00000010 2d676363 2f6c6962 6763632f 636f6e66 -gcc/libgcc/conf
  0x00000020 69672f72 69736376 2f6d756c 6469332e ig/riscv/muldi3.
  0x00000030 53002f68 6f6d652f 61646c76 2f70726f S./home/adlv/pro
  0x00000040 6a656374 732f7269 7363762f 72697363 jects/riscv/risc
  0x00000050 762d676e 752d746f 6f6c6368 61696e2f v-gnu-toolchain/
  0x00000060 6275696c 642d6763 632d6e65 776c6962 build-gcc-newlib
  0x00000070 2d737461 6765322f 72697363 7633322d -stage2/riscv32-
  0x00000080 756e6b6e 6f776e2d 656c662f 6c696267 unknown-elf/libg
  0x00000090 63630047 4e552041 5320322e 333500   cc.GNU AS 2.35.

